################################################################################
#                                                                              #
#      IAR Universal Linker V5.7.0.39                                          #
#                                                                              #
#           Link time     =  09/Sep/2019  13:20:43                             #
#           Target CPU    =  x51                                               #
#           List file     =  F:\SVN\06solution\Projects\农网\D105\Sw\Debug\Lis #
#                            t\D105R.map                                       #
#           Output file 1 =  F:\SVN\06solution\Projects\农网\D105\Sw\Debug\Exe #
#                            \v9811.hex                                        #
#                            Format: intel-extended                            #
#           Output file 2 =  F:\SVN\06solution\Projects\农网\D105\Sw\Debug\Exe #
#                            \D105R.d51                                        #
#                            Format: debug                                     #
#                            UBROF version 10.0.6                              #
#                            Using library modules for C-SPY (-r)              #
#           Command line  =  "-IE:\IAR for 8051 8303\8051\CONFIG\"             #
#                            -D_NR_OF_BANKS=0x04 -D_CODEBANK_END=0xFFFF        #
#                            -D_CODEBANK_START=0x8000 -D?CBANK_MASK=0x03       #
#                            -D?CBANK=0xa0                                     #
#                            F:\SVN\06solution\Projects\农网\D105\Sw\Debug\Obj #
#                            \Api.r51                                          #
#                            F:\SVN\06solution\Projects\农网\D105\Sw\Debug\Obj #
#                            \BEBottom.r51                                     #
#                            F:\SVN\06solution\Projects\农网\D105\Sw\Debug\Obj #
#                            \CmpCode.r51                                      #
#                            F:\SVN\06solution\Projects\农网\D105\Sw\Debug\Obj #
#                            \ComApplication.r51                               #
#                            F:\SVN\06solution\Projects\农网\D105\Sw\Debug\Obj #
#                            \ComBottom.r51                                    #
#                            F:\SVN\06solution\Projects\农网\D105\Sw\Debug\Obj #
#                            \ComCoretab.r51                                   #
#                            F:\SVN\06solution\Projects\农网\D105\Sw\Debug\Obj #
#                            \DLT_645_2007.r51                                 #
#                            F:\SVN\06solution\Projects\农网\D105\Sw\Debug\Obj #
#                            \DataProtect.r51                                  #
#                            F:\SVN\06solution\Projects\农网\D105\Sw\Debug\Obj #
#                            \Dataproc.r51                                     #
#                            F:\SVN\06solution\Projects\农网\D105\Sw\Debug\Obj #
#                            \Energy.r51                                       #
#                            F:\SVN\06solution\Projects\农网\D105\Sw\Debug\Obj #
#                            \EnergyBottom.r51                                 #
#                            F:\SVN\06solution\Projects\农网\D105\Sw\Debug\Obj #
#                            \Event.r51                                        #
#                            F:\SVN\06solution\Projects\农网\D105\Sw\Debug\Obj #
#                            \FunCfg.r51                                       #
#                            F:\SVN\06solution\Projects\农网\D105\Sw\Debug\Obj #
#                            \InitPara.r51                                     #
#                            F:\SVN\06solution\Projects\农网\D105\Sw\Debug\Obj #
#                            \Key.r51                                          #
#                            F:\SVN\06solution\Projects\农网\D105\Sw\Debug\Obj #
#                            \LcdBottom.r51                                    #
#                            F:\SVN\06solution\Projects\农网\D105\Sw\Debug\Obj #
#                            \Lcdmiddle.r51                                    #
#                            F:\SVN\06solution\Projects\农网\D105\Sw\Debug\Obj #
#                            \Lcdshow.r51                                      #
#                            F:\SVN\06solution\Projects\农网\D105\Sw\Debug\Obj #
#                            \LoadCurve.r51                                    #
#                            F:\SVN\06solution\Projects\农网\D105\Sw\Debug\Obj #
#                            \McuDrive.r51                                     #
#                            F:\SVN\06solution\Projects\农网\D105\Sw\Debug\Obj #
#                            \Multariff.r51                                    #
#                            F:\SVN\06solution\Projects\农网\D105\Sw\Debug\Obj #
#                            \Powmanger.r51                                    #
#                            F:\SVN\06solution\Projects\农网\D105\Sw\Debug\Obj #
#                            \Prcfrm.r51                                       #
#                            F:\SVN\06solution\Projects\农网\D105\Sw\Debug\Obj #
#                            \PrologFee.r51                                    #
#                            F:\SVN\06solution\Projects\农网\D105\Sw\Debug\Obj #
#                            \Report.r51                                       #
#                            F:\SVN\06solution\Projects\农网\D105\Sw\Debug\Obj #
#                            \RtcCpt.r51                                       #
#                            F:\SVN\06solution\Projects\农网\D105\Sw\Debug\Obj #
#                            \System.r51                                       #
#                            F:\SVN\06solution\Projects\农网\D105\Sw\Debug\Obj #
#                            \Timeproc.r51                                     #
#                            F:\SVN\06solution\Projects\农网\D105\Sw\Debug\Obj #
#                            \Uart1.r51                                        #
#                            F:\SVN\06solution\Projects\农网\D105\Sw\Debug\Obj #
#                            \Uart2.r51                                        #
#                            F:\SVN\06solution\Projects\农网\D105\Sw\Debug\Obj #
#                            \Uart4.r51                                        #
#                            F:\SVN\06solution\Projects\农网\D105\Sw\Debug\Obj #
#                            \Version.r51                                      #
#                            F:\SVN\06solution\Projects\农网\D105\Sw\Debug\Obj #
#                            \cstartup.r51                                     #
#                            F:\SVN\06solution\Projects\农网\D105\Sw\Debug\Obj #
#                            \iar_banked_code_support.r51                      #
#                            F:\SVN\06solution\Projects\农网\D105\Sw\Debug\Obj #
#                            \main.r51                                         #
#                            F:\SVN\06solution\Projects\农网\D105\Sw\Debug\Obj #
#                            \workaround.r51                                   #
#                            -o                                                #
#                            F:\SVN\06solution\Projects\农网\D105\Sw\Debug\Exe #
#                            \D105R.d51                                        #
#                            -l                                                #
#                            F:\SVN\06solution\Projects\农网\D105\Sw\Debug\Lis #
#                            t\D105R.map                                       #
#                            -xms "-IE:\IAR for 8051 8303\8051\LIB\" -f        #
#                            F:\SVN\06solution\Projects\农网\D105\Sw\lnk51ew.x #
#                            cl                                                #
#                            (-D_IDATA_END=0xFF -D_PDATA_START=0x0F01          #
#                            -D_PDATA_END=0x0F7F -D_IXDATA_START=1             #
#                            -D_IXDATA_END=0xF7F -D_XDATA_START=0x000001       #
#                            -D_XDATA_END=0x00F7F -D_CODE_START=0x000000       #
#                            -D_CODE_END=0x7FFF -D_NEAR_CODE_END=0x7FFF        #
#                            -D_FAR_DATA_NR_OF_BANKS=0x0E                      #
#                            -D_FAR_DATA_START=0x010001                        #
#                            -D_FAR_DATA_END=0xFFFFFF                          #
#                            -D_FAR_CODE_START=_CODE_START                     #
#                            -D_FAR_CODE_END=_CODE_END -D?REGISTER_BANK=0      #
#                            -D_REGISTER_BANK_START=0 -D_BREG_START=0x00       #
#                            -D?VB=0x20 -D_FIRST_BANK_ADDR=0                   #
#                            -P(CODE)BANKED_CODE_EXT2_C=[0x0F0000-0x0FFFFF]    #
#                            -P(CODE)BANKED_CODE_EXT2_N=[0x0F0000-0x0FFFFF]    #
#                            -KBANKED_EXT2=10000,15                            #
#                            -Z(CODE)BANKED_EXT2#FFF0-FFFF                     #
#                            -P(CODE)BANKED_CODE_INTERRUPTS_EXT2=[0x00E0100-0x #
#                            00EFFFF]                                          #
#                            -P(CODE)INTVEC_EXT2=[0x0E0000-0x0EFFFF]           #
#                            -Z(BIT)BREG=_BREG_START -Z(BIT)BIT_N=0-7F         #
#                            -Z(DATA)REGISTERS+8=_REGISTER_BANK_START          #
#                            -Z(DATA)BDATA_Z,BDATA_N,BDATA_I=20-2F             #
#                            -Z(DATA)VREG+_NR_OF_VIRTUAL_REGISTERS=08-7F       #
#                            -Z(DATA)PSP,XSP=08-7F -Z(DATA)DOVERLAY=08-7F      #
#                            -Z(DATA)DATA_I,DATA_Z,DATA_N=08-7F                #
#                            -U(IDATA)0-7F=(DATA)0-7F                          #
#                            -Z(IDATA)IDATA_I,IDATA_Z,IDATA_N=08-_IDATA_END    #
#                            -Z(IDATA)ISTACK+_IDATA_STACK_SIZE#08-_IDATA_END   #
#                            -Z(IDATA)IOVERLAY=08-FF -Z(CODE)INTVEC=0          #
#                            -Z(CODE)CSTART=_CODE_START-_CODE_END              #
#                            -D_BANK1_START=0x18000 -D_BANK1_END=0x1FFFF       #
#                            -D_BANK2_START=0x28000 -D_BANK2_END=0x2FFFF       #
#                            -D_BANK0_START=0x8000 -D_BANK0_END=0xFFFF         #
#                            -P(CODE)BANK0=_BANK0_START-_BANK0_END             #
#                            -P(CODE)BANK1=_BANK1_START-_BANK1_END             #
#                            -P(CODE)BANK2=_BANK2_START-_BANK2_END             #
#                            -Z(CODE)BIT_ID,BDATA_ID,DATA_ID,IDATA_ID,IXDATA_I #
#                            D,PDATA_ID,XDATA_ID=_CODE_START-_CODE_END         #
#                            -Z(CODE)HUGE_ID=_FAR_CODE_START-_FAR_CODE_END     #
#                            -Z(CODE)BANK_RELAYS,RCODE,DIFUNCT,CODE_C,CODE_N,N #
#                            EAR_CODE=_CODE_START-_CODE_END                    #
#                            -P(CODE)BANKED_CODE=_CODE_START-_CODE_END,[(_CODE #
#                            BANK_START+_FIRST_BANK_ADDR)-(_CODEBANK_END+_FIRS #
#                            T_BANK_ADDR)]*_NR_OF_BANKS+10000                  #
#                            -P(CODE)FAR_CODE_C,FAR_CODE_N,FAR_CODE=[_FAR_CODE #
#                            _START-_FAR_CODE_END]/10000                       #
#                            -P(CODE)HUGE_CODE_C=_FAR_CODE_START-_FAR_CODE_END #
#                            -Z(CODE)CHECKSUM#_CODE_END                        #
#                            -Z(XDATA)EXT_STACK+_EXTENDED_STACK_SIZE=_EXTENDED #
#                            _STACK_START                                      #
#                            -Z(XDATA)PSTACK+_PDATA_STACK_SIZE=_PDATA_START-_P #
#                            DATA_END                                          #
#                            -Z(XDATA)XSTACK+_XDATA_STACK_SIZE=_XDATA_START-_X #
#                            DATA_END                                          #
#                            -Z(XDATA)PDATA_Z,PDATA_I=_PDATA_START-_PDATA_END  #
#                            -P(XDATA)PDATA_N=_PDATA_START-_PDATA_END          #
#                            -Z(XDATA)IXDATA_Z,IXDATA_I=_IXDATA_START-_IXDATA_ #
#                            END                                               #
#                            -P(XDATA)IXDATA_N=_IXDATA_START-_IXDATA_END       #
#                            -Z(XDATA)XDATA_Z,XDATA_I=_XDATA_START-_XDATA_END  #
#                            -P(XDATA)XDATA_N=_XDATA_START-_XDATA_END          #
#                            -Z(XDATA)XDATA_HEAP+_XDATA_HEAP_SIZE=_XDATA_START #
#                            -_XDATA_END                                       #
#                            -Z(CONST)XDATA_ROM_C=_XDATA_START-_XDATA_END      #
#                            -Z(XDATA)FAR_Z=[_FAR_DATA_START-_FAR_DATA_END]/10 #
#                            000                                               #
#                            -Z(XDATA)FAR_I=[_FAR_DATA_START-_FAR_DATA_END]/10 #
#                            000                                               #
#                            -Z(CODE)FAR_ID=[_FAR_CODE_START-_FAR_CODE_END]/10 #
#                            000                                               #
#                            -Z(XDATA)FAR_HEAP+_FAR_HEAP_SIZE=[_FAR_DATA_START #
#                            -_FAR_DATA_END]/10000                             #
#                            -P(XDATA)FAR_N=[_FAR_DATA_START-_FAR_DATA_END]*_F #
#                            AR_DATA_NR_OF_BANKS+10000                         #
#                            -P(CONST)FAR_ROM_C=[_FAR_DATA_START-_FAR_DATA_END #
#                            ]*_FAR_DATA_NR_OF_BANKS+10000                     #
#                            -Z(XDATA)HUGE_Z,HUGE_I=_FAR_DATA_START-_FAR_DATA_ #
#                            END                                               #
#                            -P(XDATA)HUGE_N=_FAR_DATA_START-_FAR_DATA_END     #
#                            -Z(XDATA)HUGE_HEAP+_HUGE_HEAP_SIZE=_FAR_DATA_STAR #
#                            T-_FAR_DATA_END                                   #
#                            -Z(CONST)HUGE_ROM_C=_FAR_DATA_START-_FAR_DATA_END #
#                            -cx51 -D?ACON=9D -D?DPS1=F6 -D?TA=C7              #
#                            -D?MCON=C6) -D_NR_OF_VIRTUAL_REGISTERS=8          #
#                            -D?PBANK=0xA0 -e?BCALL_03=?BCALL                  #
#                            -e?BRET_03=?BRET -e?BDISPATCH_03=?BDISPATCH       #
#                            -e_large_write=_formatted_write                   #
#                            -e_large_read=_formatted_read -r                  #
#                            -Ointel-extended=F:\SVN\06solution\Projects\农网\ #
#                            D105\Sw\Debug\Exe\v9811.hex                       #
#                            -s __program_start                                #
#                            "E:\IAR for 8051 8303\8051\LIB\CLIB\cl-pli-blxc-1 #
#                            e16x01.r51"                                       #
#                            -D_IDATA_STACK_SIZE=0x60 -D?ESP=0 -D?ESP_MASK=0   #
#                            -D_EXTENDED_STACK_START=0                         #
#                            -D_EXTENDED_STACK_SIZE=0                          #
#                            -D_PDATA_STACK_SIZE=0x80                          #
#                            -D_XDATA_STACK_SIZE=0x200                         #
#                            -D_XDATA_HEAP_SIZE=0xFF -D_FAR_HEAP_SIZE=0xFFF    #
#                            -D_HUGE_HEAP_SIZE=0xFFF                           #
#                            -D_FAR22_HEAP_SIZE=0xFFF                          #
#                                                                              #
#                           Copyright (C) 1987-2013 IAR Systems AB.            #
################################################################################





                ****************************************
                *                                      *
                *           CROSS REFERENCE            *
                *                                      *
                ****************************************

       Program entry at : CODE      00000066  Relocatable, from module : CSTARTUP




                ****************************************
                *                                      *
                *            RUNTIME MODEL             *
                *                                      *
                ****************************************

  __SystemLibrary          = CLib
  __calling_convention     = xdata_reentrant
  __code_model             = banked
  __core                   = plain
  __data_model             = large
  __dptr_size              = 16
  __extended_stack         = disabled
  __location_for_constants = code
  __number_of_dptrs        = 1
  __rt_version             = 1

                ****************************************
                *                                      *
                *    AUTOMATIC SYMBOL REDIRECTIONS     *
                *                                      *
                ****************************************

                  There are no automatic symbol redirections.



                ****************************************
                *                                      *
                *              MODULE MAP              *
                *                                      *
                ****************************************


  DEFINED ABSOLUTE ENTRIES
    *************************************************************************

  DEFINED ABSOLUTE ENTRIES
  PROGRAM MODULE, NAME : ?ABS_ENTRY_MOD

Absolute parts
           ENTRY                   ADDRESS         REF BY
           =====                   =======         ======
           _FAR22_HEAP_SIZE        00000FFF 
           _HUGE_HEAP_SIZE         00000FFF 
           _FAR_HEAP_SIZE          00000FFF 
           _XDATA_HEAP_SIZE        000000FF 
           _XDATA_STACK_SIZE       00000200 
           _PDATA_STACK_SIZE       00000080 
           _EXTENDED_STACK_SIZE    00000000 
           _EXTENDED_STACK_START   00000000 
           ?ESP_MASK               00000000 
           ?ESP                    00000000 
           _IDATA_STACK_SIZE       00000060 
           ?PBANK                  000000A0 
           _NR_OF_VIRTUAL_REGISTERS
                                   00000008 
           ?MCON                   000000C6 
           ?TA                     000000C7 
           ?DPS1                   000000F6 
           ?ACON                   0000009D 
           _BANK0_END              0000FFFF 
           _BANK0_START            00008000 
           _BANK2_END              0002FFFF 
           _BANK2_START            00028000 
           _BANK1_END              0001FFFF 
           _BANK1_START            00018000 
           _FIRST_BANK_ADDR        00000000 
           ?VB                     00000020        ?BANKED_ENTER_XDATA (?BANKED_ENTER_XDATA)
                                                   ?BANKED_LEAVE_XDATA (?BANKED_LEAVE_XDATA)
           _BREG_START             00000000 
           _REGISTER_BANK_START    00000000 
           ?REGISTER_BANK          00000000        Segment part 6 (CSTARTUP)
           _FAR_CODE_END           00007FFF 
           _FAR_CODE_START         00000000 
           _FAR_DATA_END           00FFFFFF 
           _FAR_DATA_START         00010001 
           _FAR_DATA_NR_OF_BANKS   0000000E 
           _NEAR_CODE_END          00007FFF 
           _CODE_END               00007FFF 
           _CODE_START             00000000 
           _XDATA_END              00000F7F 
           _XDATA_START            00000001 
           _IXDATA_END             00000F7F 
           _IXDATA_START           00000001 
           _PDATA_END              00000F7F 
           _PDATA_START            00000F01 
           _IDATA_END              000000FF 
           ?CBANK                  000000A0        ?RESET_CODE_BANK (CSTARTUP)
                                                   Segment part 0 (?BANKED_CODE_SUPPORT)
           ?CBANK_MASK             00000003 
           _CODEBANK_START         00008000 
           _CODEBANK_END           0000FFFF 
           _NR_OF_BANKS            00000004 
    *************************************************************************

  FILE NAME : F:\SVN\06solution\Projects\农网\D105\Sw\Debug\Obj\Api.r51
  PROGRAM MODULE, NAME : Api

  SEGMENTS IN THE MODULE
  ======================
CODE_AC
  Relative segment, address: CODE 00000300 - 00000399 (0x9a bytes), align: 0
  Segment part 1. ROOT.       Intra module refs:   APIByteBCD2HEX
           ENTRY                   ADDRESS         REF BY
           =====                   =======         ======
           gCuc_BCD2HEXMap         00000300 
    -------------------------------------------------------------------------
CODE_AC
  Relative segment, address: CODE 0000039C - 000003FF (0x64 bytes), align: 0
  Segment part 2. ROOT.       Intra module refs:   APIByteHEX2BCD
           ENTRY                   ADDRESS         REF BY
           =====                   =======         ======
           gCuc_HEX2BCDMap         0000039C 
    -------------------------------------------------------------------------
<BANKED_CODE> 3 (was BANKED_CODE)
  Relative segment, address: CODE 0001AA6F - 0001AA90 (0x22 bytes), align: 0
  Segment part 12.            Intra module refs:   DelayXms::?relay
           ENTRY                   ADDRESS         REF BY
           =====                   =======         ======
           DelayXms                0001AA6F 
    -------------------------------------------------------------------------
<BANKED_CODE> 3 (was BANKED_CODE)
  Relative segment, address: CODE 0001AA91 - 0001AAA4 (0x14 bytes), align: 0
  Segment part 14.            Intra module refs:   Uint16_To_Uint8::?relay
           ENTRY                   ADDRESS         REF BY
           =====                   =======         ======
           Uint16_To_Uint8         0001AA91 
               ISTACK = 00000000 ( 00000003 )
    -------------------------------------------------------------------------
<BANKED_CODE> 3 (was BANKED_CODE)
  Relative segment, address: CODE 0001AAA5 - 0001AABE (0x1a bytes), align: 0
  Segment part 16.            Intra module refs:   Uint8_To_Uint16::?relay
           ENTRY                   ADDRESS         REF BY
           =====                   =======         ======
           Uint8_To_Uint16         0001AAA5 
               ISTACK = 00000000 ( 00000002 )
    -------------------------------------------------------------------------
<BANKED_CODE> 3 (was BANKED_CODE)
  Relative segment, address: CODE 0001AABF - 0001AB1F (0x61 bytes), align: 0
  Segment part 26.            Intra module refs:   Uint8_To_Uint32::?relay
           ENTRY                   ADDRESS         REF BY
           =====                   =======         ======
           Uint8_To_Uint32         0001AABF 
               XSTACK = 00000000 ( 00000004 )
               ISTACK = 00000000 ( 00000003 )
    -------------------------------------------------------------------------
<BANKED_CODE> 3 (was BANKED_CODE)
  Relative segment, address: CODE 0001AB20 - 0001ABE6 (0xc7 bytes), align: 0
  Segment part 30.            Intra module refs:   IntHex2BCD::?relay
           ENTRY                   ADDRESS         REF BY
           =====                   =======         ======
           IntHex2BCD              0001AB20 
               calls direct
               XSTACK = 0000001C ( 00000009 )
    -------------------------------------------------------------------------
<BANKED_CODE> 3 (was BANKED_CODE)
  Relative segment, address: CODE 0001ABE7 - 0001AD10 (0x12a bytes), align: 0
  Segment part 32.            Intra module refs:   Hex2BCD::?relay
           ENTRY                   ADDRESS         REF BY
           =====                   =======         ======
           Hex2BCD                 0001ABE7 
               calls direct
               XSTACK = 00000000 ( 0000001C )
    -------------------------------------------------------------------------
<BANKED_CODE> 3 (was BANKED_CODE)
  Relative segment, address: CODE 0001AD11 - 0001ADB0 (0xa0 bytes), align: 0
  Segment part 34.            Intra module refs:   BCD2Hex::?relay
           ENTRY                   ADDRESS         REF BY
           =====                   =======         ======
           BCD2Hex                 0001AD11 
               calls direct
               XSTACK = 00000000 ( 00000016 )
    -------------------------------------------------------------------------
<BANKED_CODE> 3 (was BANKED_CODE)
  Relative segment, address: CODE 0001ADB1 - 0001ADF2 (0x42 bytes), align: 0
  Segment part 36.            Intra module refs:   IntBCD2Hex::?relay
           ENTRY                   ADDRESS         REF BY
           =====                   =======         ======
           IntBCD2Hex              0001ADB1 
               calls direct
               XSTACK = 00000000 ( 0000000B )
    -------------------------------------------------------------------------
<BANKED_CODE> 3 (was BANKED_CODE)
  Relative segment, address: CODE 0001ADF3 - 0001AE0F (0x1d bytes), align: 0
  Segment part 38.            Intra module refs:   APIByteBCD2HEX::?relay
           ENTRY                   ADDRESS         REF BY
           =====                   =======         ======
           APIByteBCD2HEX          0001ADF3 
               XSTACK = 00000016 ( 0000000A )
    -------------------------------------------------------------------------
<BANKED_CODE> 3 (was BANKED_CODE)
  Relative segment, address: CODE 0001AE10 - 0001AE30 (0x21 bytes), align: 0
  Segment part 40.            Intra module refs:   APIByteHEX2BCD::?relay
           ENTRY                   ADDRESS         REF BY
           =====                   =======         ======
           APIByteHEX2BCD          0001AE10 
               XSTACK = 00000009 ( 0000000A )
    -------------------------------------------------------------------------
<BANKED_CODE> 3 (was BANKED_CODE)
  Relative segment, address: CODE 0001AE31 - 0001AE6F (0x3f bytes), align: 0
  Segment part 42.            Intra module refs:   ApiBufCmp::?relay
           ENTRY                   ADDRESS         REF BY
           =====                   =======         ======
           ApiBufCmp               0001AE31 
               XSTACK = 00000000 ( 00000009 )
    -------------------------------------------------------------------------
<BANKED_CODE> 3 (was BANKED_CODE)
  Relative segment, address: CODE 0001AE70 - 0001AEA6 (0x37 bytes), align: 0
  Segment part 44.            Intra module refs:   ApiRevBufCmp::?relay
           ENTRY                   ADDRESS         REF BY
           =====                   =======         ======
           ApiRevBufCmp            0001AE70 
               is not allocated
               not allocated function
    -------------------------------------------------------------------------
<BANKED_CODE> 3 (was BANKED_CODE)
  Relative segment, address: CODE 0001AEA7 - 0001AF03 (0x5d bytes), align: 0
  Segment part 48.            Intra module refs:   ApiReverseData::?relay
           ENTRY                   ADDRESS         REF BY
           =====                   =======         ======
           ApiReverseData          0001AEA7 
               XSTACK = 00000000 ( 0000000B )
               ISTACK = 00000000 ( 00000001 )
    -------------------------------------------------------------------------
CODE_AC
  Relative segment, address: CODE 00000100 - 000002FF (0x200 bytes), align: 0
  Segment part 3. ROOT.       Intra module refs:   do_CRC
           ENTRY                   ADDRESS         REF BY
           =====                   =======         ======
           CrcTab                  00000100 
    -------------------------------------------------------------------------
<BANKED_CODE> 3 (was BANKED_CODE)
  Relative segment, address: CODE 0001AF04 - 0001AF4B (0x48 bytes), align: 0
  Segment part 50.            Intra module refs:   do_CRC::?relay
           ENTRY                   ADDRESS         REF BY
           =====                   =======         ======
           do_CRC                  0001AF04 
               XSTACK = 00000000 ( 0000000A )
    -------------------------------------------------------------------------
<BANKED_CODE> 3 (was BANKED_CODE)
  Relative segment, address: CODE 0001AF4C - 0001AF85 (0x3a bytes), align: 0
  Segment part 52.            Intra module refs:   JudgeIsNum::?relay
           ENTRY                   ADDRESS         REF BY
           =====                   =======         ======
           JudgeIsNum              0001AF4C 
               calls direct
               XSTACK = 00000000 ( 0000000A )
    -------------------------------------------------------------------------
<BANKED_CODE> 3 (was BANKED_CODE)
  Relative segment, address: CODE 0001AF86 - 0001B001 (0x7c bytes), align: 0
  Segment part 56.            Intra module refs:   MoveBuffer::?relay
           ENTRY                   ADDRESS         REF BY
           =====                   =======         ======
           MoveBuffer              0001AF86 
               XSTACK = 00000002 ( 0000000A )
               ISTACK = 00000000 ( 00000001 )
    -------------------------------------------------------------------------
<BANKED_CODE> 3 (was BANKED_CODE)
  Relative segment, address: CODE 0001B002 - 0001B029 (0x28 bytes), align: 0
  Segment part 60.            Intra module refs:   MemInvertCpy::?relay
           ENTRY                   ADDRESS         REF BY
           =====                   =======         ======
           MemInvertCpy            0001B002 
               is not allocated
               not allocated function
    -------------------------------------------------------------------------
<BANKED_CODE> 3 (was BANKED_CODE)
  Relative segment, address: CODE 0001B02A - 0001B05C (0x33 bytes), align: 0
  Segment part 62.            Intra module refs:   FCpyTMem::?relay
           ENTRY                   ADDRESS         REF BY
           =====                   =======         ======
           FCpyTMem                0001B02A 
               ISTACK = 00000000 ( 00000003 )
    -------------------------------------------------------------------------
<BANKED_CODE> 3 (was BANKED_CODE)
  Relative segment, address: CODE 0001B05D - 0001B08F (0x33 bytes), align: 0
  Segment part 64.            Intra module refs:   FCpyTMem1::?relay
           ENTRY                   ADDRESS         REF BY
           =====                   =======         ======
           FCpyTMem1               0001B05D 
               ISTACK = 00000000 ( 00000003 )
    -------------------------------------------------------------------------
<BANKED_CODE> 3 (was BANKED_CODE)
  Relative segment, address: CODE 0001B090 - 0001B0C2 (0x33 bytes), align: 0
  Segment part 66.            Intra module refs:   FCpyTMem2::?relay
           ENTRY                   ADDRESS         REF BY
           =====                   =======         ======
           FCpyTMem2               0001B090 
               ISTACK = 00000000 ( 00000003 )
    -------------------------------------------------------------------------
<BANKED_CODE> 3 (was BANKED_CODE)
  Relative segment, address: CODE 0001B0C3 - 0001B0F4 (0x32 bytes), align: 0
  Segment part 68.            Intra module refs:   MemCpy::?relay
           ENTRY                   ADDRESS         REF BY
           =====                   =======         ======
           MemCpy                  0001B0C3 
               ISTACK = 00000000 ( 00000003 )
    -------------------------------------------------------------------------
<BANKED_CODE> 3 (was BANKED_CODE)
  Relative segment, address: CODE 0001B0F5 - 0001B115 (0x21 bytes), align: 0
  Segment part 70.            Intra module refs:   MemSet::?relay
           ENTRY                   ADDRESS         REF BY
           =====                   =======         ======
           MemSet                  0001B0F5 
               ISTACK = 00000000 ( 00000003 )
    -------------------------------------------------------------------------
<BANKED_CODE> 3 (was BANKED_CODE)
  Relative segment, address: CODE 0001B116 - 0001B22E (0x119 bytes), align: 0
  Segment part 72.            Intra module refs:   CalCBRCount::?relay
           ENTRY                   ADDRESS         REF BY
           =====                   =======         ======
           CalCBRCount             0001B116 
               calls direct, is not allocated
               not allocated function
    -------------------------------------------------------------------------
<BANKED_CODE> 3 (was BANKED_CODE)
  Relative segment, address: CODE 0001B22F - 0001B44C (0x21e bytes), align: 0
  Segment part 74.            Intra module refs:   CalRDJCount::?relay
           ENTRY                   ADDRESS         REF BY
           =====                   =======         ======
           CalRDJCount             0001B22F 
               calls direct, is not allocated
               not allocated function
    -------------------------------------------------------------------------
<BANKED_CODE> 3 (was BANKED_CODE)
  Relative segment, address: CODE 0001B44D - 0001B47F (0x33 bytes), align: 0
  Segment part 76.            Intra module refs:   HourAndMinToMin::?relay
           ENTRY                   ADDRESS         REF BY
           =====                   =======         ======
           HourAndMinToMin         0001B44D 
               calls direct
               XSTACK = 00000000 ( 0000000A )
    -------------------------------------------------------------------------
CODE_C
  Relative segment, address: CODE 00002441 - 00002444 (0x4 bytes), align: 0
  Segment part 9.             Intra module refs:   Hex2BCD
           ENTRY                   ADDRESS         REF BY
           =====                   =======         ======
           __Constant_fa0a1f00     00002441 
    -------------------------------------------------------------------------
CODE_C
  Relative segment, address: CODE 00002445 - 00002448 (0x4 bytes), align: 0
  Segment part 10.            Intra module refs:   Hex2BCD
           ENTRY                   ADDRESS         REF BY
           =====                   =======         ======
           __Constant_5f5e100      00002445 
    -------------------------------------------------------------------------
CODE_C
  Relative segment, address: CODE 00002449 - 0000244C (0x4 bytes), align: 0
  Segment part 11.            Intra module refs:   BCD2Hex
           ENTRY                   ADDRESS         REF BY
           =====                   =======         ======
           __Constant_64           00002449 
    -------------------------------------------------------------------------
BANK_RELAYS
  Relative segment, address: CODE 00000E0E - 00000E13 (0x6 bytes), align: 0
  Segment part 13.
           ENTRY                   ADDRESS         REF BY
           =====                   =======         ======
           DelayXms::?relay        00000E0E        GetBat (McuDrive)
                                                   Init_Port (McuDrive)
                                                   LCD_Off (LcdBottom)
                                                   Mcu_BatCal (McuDrive)
    -------------------------------------------------------------------------
BANK_RELAYS
  Relative segment, address: CODE 00000E14 - 00000E19 (0x6 bytes), align: 0
  Segment part 15.
           ENTRY                   ADDRESS         REF BY
           =====                   =======         ======
           Uint16_To_Uint8::?relay
                                   00000E14        SysE2ParaSetManage (DataProtect)
    -------------------------------------------------------------------------
BANK_RELAYS
  Relative segment, address: CODE 00000E1A - 00000E1F (0x6 bytes), align: 0
  Segment part 17.
           ENTRY                   ADDRESS         REF BY
           =====                   =======         ======
           Uint8_To_Uint16::?relay
                                   00000E1A        ComCheckFormat (DataProtect)
                                                   ComMeterConst (DLT_645_2007)
                                                   ComRWE2Para (DLT_645_2007)
                                                   Data_FactoryClr (Dataproc)
                                                   E2ParaCheck (DataProtect)
                                                   EnyB_AutoChkIrms (EnergyBottom)
                                                   EnyB_AutoChkUrms (EnergyBottom)
                                                   Eny_JbPm_GetE2 (Energy)
                                                   Init_Var (main)
                                                   RecoverEnegyData (Dataproc)
                                                   RecoverRtcPara (RtcCpt)
                                                   SysE2ParaSetManage (DataProtect)
    -------------------------------------------------------------------------
BANK_RELAYS
  Relative segment, address: CODE 00000E20 - 00000E25 (0x6 bytes), align: 0
  Segment part 27.
           ENTRY                   ADDRESS         REF BY
           =====                   =======         ======
           Uint8_To_Uint32::?relay
                                   00000E20        ComRWE2Para (DLT_645_2007)
                                                   EnyB_AutoChkAngle (EnergyBottom)
                                                   EnyB_AutoChkPW (EnergyBottom)
                                                   FactoryWR (DLT_645_2007)
                                                   IrShowLcd (DLT_645_2007)
                                                   RwDjData (DLT_645_2007)
                                                   RwLcdData (DLT_645_2007)
                                                   ShowDataProc (Lcdshow)
                                                   ShowNumManage (Lcdshow)
    -------------------------------------------------------------------------
BANK_RELAYS
  Relative segment, address: CODE 00000E26 - 00000E2B (0x6 bytes), align: 0
  Segment part 31.            Intra module refs:   Hex2BCD
           ENTRY                   ADDRESS         REF BY
           =====                   =======         ======
           IntHex2BCD::?relay      00000E26        ComRWE2Para (DLT_645_2007)
    -------------------------------------------------------------------------
BANK_RELAYS
  Relative segment, address: CODE 00000E2C - 00000E31 (0x6 bytes), align: 0
  Segment part 33.
           ENTRY                   ADDRESS         REF BY
           =====                   =======         ======
           Hex2BCD::?relay         00000E2C        CalCos (EnergyBottom)
                                                   CalRMS (EnergyBottom)
                                                   ComMeterConst (DLT_645_2007)
                                                   ComRWE2Para (DLT_645_2007)
                                                   ComRdEvCnt (DLT_645_2007)
                                                   Com_ClearMeterJL (Event)
                                                   CoverCloseLog (Event)
                                                   CoverOpenLog (Event)
                                                   Ldc_DataProc (LoadCurve)
                                                   ReadAccuEgy (DLT_645_2007)
                                                   ReadCurEgy (DLT_645_2007)
                                                   ReadEnyD0Block (DLT_645_2007)
                                                   ReadHisEgy (DLT_645_2007)
                                                   ReadVar (DLT_645_2007)
                                                   ReadZHLYEgy (DLT_645_2007)
                                                   RecoverDayDjData (Dataproc)
                                                   RecoverEnegyData (Dataproc)
                                                   ShowNumManage (Lcdshow)
                                                   StructFreezeDate (Event)
    -------------------------------------------------------------------------
BANK_RELAYS
  Relative segment, address: CODE 00000E32 - 00000E37 (0x6 bytes), align: 0
  Segment part 35.
           ENTRY                   ADDRESS         REF BY
           =====                   =======         ======
           BCD2Hex::?relay         00000E32        CalCos (EnergyBottom)
                                                   ComRWE2Para (DLT_645_2007)
                                                   EnyB_AutoChkAngle (EnergyBottom)
                                                   EnyB_AutoChkIrms (EnergyBottom)
                                                   EnyB_AutoChkPW (EnergyBottom)
                                                   EnyB_AutoChkUrms (EnergyBottom)
                                                   FactoryWR (DLT_645_2007)
    -------------------------------------------------------------------------
BANK_RELAYS
  Relative segment, address: CODE 00000E38 - 00000E3D (0x6 bytes), align: 0
  Segment part 37.
           ENTRY                   ADDRESS         REF BY
           =====                   =======         ======
           IntBCD2Hex::?relay      00000E38        ComCheckFormat (DataProtect)
                                                   ComRWE2Para (DLT_645_2007)
    -------------------------------------------------------------------------
BANK_RELAYS
  Relative segment, address: CODE 00000E3E - 00000E43 (0x6 bytes), align: 0
  Segment part 39.            Intra module refs:   BCD2Hex
                                                   CalCBRCount
                                                   CalRDJCount
                                                   HourAndMinToMin
                                                   IntBCD2Hex
                                                   JudgeIsNum
           ENTRY                   ADDRESS         REF BY
           =====                   =======         ======
           APIByteBCD2HEX::?relay
                                   00000E3E        BroadcastTime (DLT_645_2007)
                                                   CalDayBack (Dataproc)
                                                   CalcAbsDay (Timeproc)
                                                   CalcAbsSecond (Timeproc)
                                                   CalcWeek (Timeproc)
                                                   CheckSqFormat (DataProtect)
                                                   ComRWE2Para (DLT_645_2007)
                                                   E2ParaCheck (DataProtect)
                                                   Ldc_DataProc (LoadCurve)
                                                   Ldc_TimeAdd (LoadCurve)
                                                   Ldc_TmMinCal (LoadCurve)
                                                   ReadCurveJl (DLT_645_2007)
                                                   RecoverJSRData (Dataproc)
                                                   TimerProc (Timeproc)
                                                   ValidTime (Timeproc)
    -------------------------------------------------------------------------
BANK_RELAYS
  Relative segment, address: CODE 00000E44 - 00000E49 (0x6 bytes), align: 0
  Segment part 41.            Intra module refs:   IntHex2BCD
           ENTRY                   ADDRESS         REF BY
           =====                   =======         ======
           APIByteHEX2BCD::?relay
                                   00000E44        CalDayBack (Dataproc)
                                                   ComRWE2Para (DLT_645_2007)
                                                   Ldc_TimeAdd (LoadCurve)
                                                   RecoverJSRData (Dataproc)
                                                   TimerProc (Timeproc)
    -------------------------------------------------------------------------
BANK_RELAYS
  Relative segment, address: CODE 00000E4A - 00000E4F (0x6 bytes), align: 0
  Segment part 43.
           ENTRY                   ADDRESS         REF BY
           =====                   =======         ======
           ApiBufCmp::?relay       00000E4A        CheckSqFormat (DataProtect)
                                                   Init_Var (main)
                                                   IrShowLcd (DLT_645_2007)
                                                   Judge645Addr (Prcfrm)
                                                   JudgePassword (Prcfrm)
                                                   RecoverDayDjData (Dataproc)
                                                   RecoverJSRData (Dataproc)
    -------------------------------------------------------------------------
BANK_RELAYS
  Relative segment, address: CODE 00000E50 - 00000E55 (0x6 bytes), align: 0
  Segment part 45.
           ENTRY                   ADDRESS         REF BY
           =====                   =======         ======
           ApiRevBufCmp::?relay    00000E50        IsJR (Multariff)
                                                   IsNumSD (Multariff)
                                                   IsNumSQ (Multariff)
    -------------------------------------------------------------------------
BANK_RELAYS
  Relative segment, address: CODE 00000E56 - 00000E5B (0x6 bytes), align: 0
  Segment part 49.
           ENTRY                   ADDRESS         REF BY
           =====                   =======         ======
           ApiReverseData::?relay
                                   00000E56        RWData (DLT_645_2007)
    -------------------------------------------------------------------------
BANK_RELAYS
  Relative segment, address: CODE 00000E5C - 00000E61 (0x6 bytes), align: 0
  Segment part 51.
           ENTRY                   ADDRESS         REF BY
           =====                   =======         ======
           do_CRC::?relay          00000E5C        CfgCheck (FunCfg)
                                                   CheckCRCWord (Dataproc)
                                                   CheckTime (Timeproc)
                                                   ClockBAK_RAM (Timeproc)
                                                   ClockCheck (Timeproc)
                                                   Data_FactoryClr (Dataproc)
                                                   E2ParaCheck (DataProtect)
                                                   EnyB_AutoCheck (EnergyBottom)
                                                   EnyB_AutoChkAngle (EnergyBottom)
                                                   EnyB_JbPm_Init (EnergyBottom)
                                                   Eny_CheckEnergy (Energy)
                                                   Eny_CheckEnergyActiveRAM (Energy)
                                                   Eny_EnergyActiveSave (Energy)
                                                   Eny_EnergyClrCur (Energy)
                                                   Eny_EnergyProc (Energy)
                                                   Eny_JbPm_GetE2 (Energy)
                                                   Eny_PurCheckRAMEny (Energy)
                                                   Eny_RefVar (Energy)
                                                   FactoryWR (DLT_645_2007)
                                                   Init_Var (main)
                                                   Pow_DnProc (Powmanger)
                                                   RecoverCfg (FunCfg)
                                                   RecoverEnegyData (Dataproc)
                                                   RecoverRtcPara (RtcCpt)
                                                   RecoverRunPara (Dataproc)
                                                   Rpt_Crc (Report)
                                                   Rpt_Recover (Report)
                                                   SetCRCWord (Dataproc)
                                                   ShowInitial (Lcdshow)
                                                   SysE2ParaSetManage (DataProtect)
                                                   Up_FunCfg (FunCfg)
    -------------------------------------------------------------------------
BANK_RELAYS
  Relative segment, address: CODE 00000E62 - 00000E67 (0x6 bytes), align: 0
  Segment part 53.
           ENTRY                   ADDRESS         REF BY
           =====                   =======         ======
           JudgeIsNum::?relay      00000E62        CheckSdFormat (DataProtect)
                                                   CheckSqFormat (DataProtect)
                                                   ComCheckFormat (DataProtect)
                                                   Freeze (DLT_645_2007)
                                                   RTCCheck (Timeproc)
                                                   ReadCurveJl (DLT_645_2007)
                                                   ValidTime (Timeproc)
                                                   WrPassWord (DLT_645_2007)
                                                   WriteMeterAddr (DLT_645_2007)
    -------------------------------------------------------------------------
BANK_RELAYS
  Relative segment, address: CODE 00000E68 - 00000E6D (0x6 bytes), align: 0
  Segment part 57.
           ENTRY                   ADDRESS         REF BY
           =====                   =======         ======
           MoveBuffer::?relay      00000E68        SaveProgramLog (Event)
    -------------------------------------------------------------------------
BANK_RELAYS
  Relative segment, address: CODE 00000E6E - 00000E73 (0x6 bytes), align: 0
  Segment part 61.
           ENTRY                   ADDRESS         REF BY
           =====                   =======         ======
           MemInvertCpy::?relay    00000E6E        CalRTC (RtcCpt)
                                                   RtcParaFsToE2 (RtcCpt)
    -------------------------------------------------------------------------
BANK_RELAYS
  Relative segment, address: CODE 00000E74 - 00000E79 (0x6 bytes), align: 0
  Segment part 63.
           ENTRY                   ADDRESS         REF BY
           =====                   =======         ======
           FCpyTMem::?relay        00000E74        CalRTC (RtcCpt)
                                                   Com_ClearEventJL (Event)
                                                   Data_FactoryClr (Dataproc)
                                                   EnyB_JbPm_Init (EnergyBottom)
                                                   FactoryWR (DLT_645_2007)
                                                   ReadFlash (CmpCode)
                                                   ReadSwVersion (DLT_645_2007)
                                                   RtcParaFsToE2 (RtcCpt)
    -------------------------------------------------------------------------
BANK_RELAYS
  Relative segment, address: CODE 00000E7A - 00000E7F (0x6 bytes), align: 0
  Segment part 65.
           ENTRY                   ADDRESS         REF BY
           =====                   =======         ======
           FCpyTMem1::?relay       00000E7A        ReadFlash (CmpCode)
    -------------------------------------------------------------------------
BANK_RELAYS
  Relative segment, address: CODE 00000E80 - 00000E85 (0x6 bytes), align: 0
  Segment part 67.
           ENTRY                   ADDRESS         REF BY
           =====                   =======         ======
           FCpyTMem2::?relay       00000E80        ReadFlash (CmpCode)
    -------------------------------------------------------------------------
BANK_RELAYS
  Relative segment, address: CODE 00000E86 - 00000E8B (0x6 bytes), align: 0
  Segment part 69.
           ENTRY                   ADDRESS         REF BY
           =====                   =======         ======
           MemCpy::?relay          00000E86        BroadcastTime (DLT_645_2007)
                                                   CalPowDwTm (Dataproc)
                                                   ChangePassWord (DLT_645_2007)
                                                   CheckTime (Timeproc)
                                                   ClearEvent (DLT_645_2007)
                                                   ClearMeter (DLT_645_2007)
                                                   ClockBAK_RAM (Timeproc)
                                                   CmpCode (DLT_645_2007)
                                                   ComCheckFormat (DataProtect)
                                                   ComMeterConst (DLT_645_2007)
                                                   ComRWE2Para (DLT_645_2007)
                                                   ComRdEvCnt (DLT_645_2007)
                                                   ComReadRunCode (DLT_645_2007)
                                                   Com_ClearEventJL (Event)
                                                   Com_ClearMeterJL (Event)
                                                   Com_JSJL (Event)
                                                   CoverCloseLog (Event)
                                                   CoverOpenLog (Event)
                                                   Data_FactoryClr (Dataproc)
                                                   Decode645Frame (Prcfrm)
                                                   Encode645Frame (Prcfrm)
                                                   Eny_CheckEnergy (Energy)
                                                   Eny_EnergyActiveSave (Energy)
                                                   Eny_EnergyClrCur (Energy)
                                                   Eny_EnergyProc (Energy)
                                                   Eny_PurCheckRAMEny (Energy)
                                                   FactoryRD (DLT_645_2007)
                                                   FactoryWR (DLT_645_2007)
                                                   IrShowLcd (DLT_645_2007)
                                                   Ldc_BuildFakeFrm (LoadCurve)
                                                   Ldc_BuildFrame (LoadCurve)
                                                   Ldc_DataProc (LoadCurve)
                                                   Ldc_Get1stRecord (LoadCurve)
                                                   Ldc_GetSeqRecord (LoadCurve)
                                                   Ldc_TimeSub (LoadCurve)
                                                   Ldc_ZoneChk (LoadCurve)
                                                   LoadCurveCheck (LoadCurve)
                                                   Pow_DnProc (Powmanger)
                                                   PowerJL (Event)
                                                   ProJL (PrologFee)
                                                   RSDJLlog (PrologFee)
                                                   ReadAccuEgy (DLT_645_2007)
                                                   ReadCurEgy (DLT_645_2007)
                                                   ReadCurveJl (DLT_645_2007)
                                                   ReadEnyD0Block (DLT_645_2007)
                                                   ReadHisEgy (DLT_645_2007)
                                                   ReadHisJSTime (DLT_645_2007)
                                                   ReadJL (DLT_645_2007)
                                                   ReadRSDLogItem (PrologFee)
                                                   ReadSQLogItem (PrologFee)
                                                   ReadVar (DLT_645_2007)
                                                   ReadZHLYEgy (DLT_645_2007)
                                                   RecoverDayDjData (Dataproc)
                                                   RecoverEnegyData (Dataproc)
                                                   RecoverJSRData (Dataproc)
                                                   Report (DLT_645_2007)
                                                   Rpt_Clr (Report)
                                                   Rpt_Crc (Report)
                                                   Rpt_Recover (Report)
                                                   RtcParaFsToE2 (RtcCpt)
                                                   RwDjData (DLT_645_2007)
                                                   RwSqSd (DLT_645_2007)
                                                   RwSysTime (DLT_645_2007)
                                                   SaveProgramLog (Event)
                                                   ShowDataProc (Lcdshow)
                                                   SleepTimeProc (Timeproc)
                                                   SoftClockCheck (Timeproc)
                                                   StructFreezeDate (Event)
                                                   SysE2ParaSetManage (DataProtect)
                                                   WriLastDJTime (Dataproc)
                                                   WriteMeterAddr (DLT_645_2007)
    -------------------------------------------------------------------------
BANK_RELAYS
  Relative segment, address: CODE 00000E8C - 00000E91 (0x6 bytes), align: 0
  Segment part 71.
           ENTRY                   ADDRESS         REF BY
           =====                   =======         ======
           MemSet::?relay          00000E8C        CmpCode (DLT_645_2007)
                                                   ComReadRunCode (DLT_645_2007)
                                                   CoverOpenLog (Event)
                                                   Data_ClearEvent (Event)
                                                   Data_ClearMeter (Dataproc)
                                                   Data_FactoryClr (Dataproc)
                                                   Disp_Clear (LcdBottom)
                                                   Disp_Full (LcdBottom)
                                                   Eny_EnergyClrCur (Energy)
                                                   FactoryWR (DLT_645_2007)
                                                   Init_Var (main)
                                                   IrShowLcd (DLT_645_2007)
                                                   IsNumSD (Multariff)
                                                   IsNumSQ (Multariff)
                                                   Ldc_BuildFakeFrm (LoadCurve)
                                                   LoadCurveCheck (LoadCurve)
                                                   PowerJL (Event)
                                                   ReadCurveJl (DLT_645_2007)
                                                   ReadFlash (CmpCode)
                                                   ReadJL (DLT_645_2007)
                                                   ReadRSDLogItem (PrologFee)
                                                   ReadSQLogItem (PrologFee)
                                                   ReadVar (DLT_645_2007)
                                                   RecoverDayDjData (Dataproc)
                                                   RecoverEnegyData (Dataproc)
                                                   RecoverJSRData (Dataproc)
                                                   RecoverRunPara (Dataproc)
                                                   Rpt_Clr (Report)
                                                   RwDjData (DLT_645_2007)
                                                   SaveProgramLog (Event)
                                                   ShowDataProc (Lcdshow)
    -------------------------------------------------------------------------
BANK_RELAYS
  Relative segment, address: CODE 00000E92 - 00000E97 (0x6 bytes), align: 0
  Segment part 73.
           ENTRY                   ADDRESS         REF BY
           =====                   =======         ======
           CalCBRCount::?relay     00000E92        RecoverJSRData (Dataproc)
    -------------------------------------------------------------------------
BANK_RELAYS
  Relative segment, address: CODE 00000E98 - 00000E9D (0x6 bytes), align: 0
  Segment part 75.
           ENTRY                   ADDRESS         REF BY
           =====                   =======         ======
           CalRDJCount::?relay     00000E98        RecoverDayDjData (Dataproc)
    -------------------------------------------------------------------------
BANK_RELAYS
  Relative segment, address: CODE 00000E9E - 00000EA3 (0x6 bytes), align: 0
  Segment part 77.
           ENTRY                   ADDRESS         REF BY
           =====                   =======         ======
           HourAndMinToMin::?relay
                                   00000E9E        ComCheckFormat (DataProtect)

    *************************************************************************

  FILE NAME : F:\SVN\06solution\Projects\农网\D105\Sw\Debug\Obj\BEBottom.r51
  PROGRAM MODULE, NAME : BEBottom

  SEGMENTS IN THE MODULE
  ======================
SFR_AN
  Relative segment, address: DATA 000000A4 - 000000A4 (0x1 bytes), align: 0
  Segment part 1. ROOT.       Intra module refs:   BE_I_ACK
                                                   BE_I_NAK
                                                   BE_I_ReadB
                                                   BE_I_Start
                                                   BE_I_Stop
                                                   BE_I_WriteB
                                                   BE_ReadP
                                                   BE_WriteP
                                                   EnyB_InitCFInt (EnergyBottom)
                                                   IOOFF (McuDrive)
                                                   Init_Port (McuDrive)
                                                   Init_Uart4 (Uart4)
                                                   KeyInit (Key)
                                                   Pow_DnProc (Powmanger)
                                                   SwichPluseOutType (McuDrive)
                                                   Uart4_Transmit (Uart4)
           ENTRY                   ADDRESS         REF BY
           =====                   =======         ======
           P9OE                    000000A4 
    -------------------------------------------------------------------------
SFR_AN
  Relative segment, address: DATA 000000A5 - 000000A5 (0x1 bytes), align: 0
  Segment part 2. ROOT.       Intra module refs:   BE_I_ACK
                                                   BE_I_NAK
                                                   BE_I_ReadB
                                                   BE_I_Start
                                                   BE_I_Stop
                                                   BE_I_WriteB
                                                   BE_ReadP
                                                   BE_WriteP
                                                   IOOFF (McuDrive)
                                                   Init_Port (McuDrive)
                                                   Init_Uart4 (Uart4)
                                                   KeyInit (Key)
                                                   Pow_DnProc (Powmanger)
                                                   Uart4_Transmit (Uart4)
           ENTRY                   ADDRESS         REF BY
           =====                   =======         ======
           P9IE                    000000A5 
    -------------------------------------------------------------------------
SFR_AN
  Relative segment, address: DATA 000000A6 - 000000A6 (0x1 bytes), align: 0
  Segment part 3. ROOT.       Intra module refs:   BE_I_ACK
                                                   BE_I_NAK
                                                   BE_I_ReadB
                                                   BE_I_Start
                                                   BE_I_Stop
                                                   BE_I_WriteB
                                                   BE_ReadP
                                                   BE_WriteP
                                                   Init_Port (McuDrive)
                                                   Init_Uart4 (Uart4)
                                                   Pow_DnProc (Powmanger)
                                                   Timer2Interrupt (System)
                                                   Uart4_Transmit (Uart4)
                                                   getTimeZone (Multariff)
           ENTRY                   ADDRESS         REF BY
           =====                   =======         ======
           P9OD                    000000A6 
    -------------------------------------------------------------------------
SFR_AN
  Relative segment, address: DATA 000000A7 - 000000A7 (0x1 bytes), align: 0
  Segment part 4. ROOT.       Intra module refs:   BE_I_ReadB
                                                   BE_I_WriteB
                                                   KeyScan (Key)
           ENTRY                   ADDRESS         REF BY
           =====                   =======         ======
           P9ID                    000000A7 
    -------------------------------------------------------------------------
<BANKED_CODE> 1 (was BANKED_CODE)
  Relative segment, address: CODE 00007B57 - 00007B70 (0x1a bytes), align: 0
  Segment part 12.            Intra module refs:   Stop_Delay::?relay
           ENTRY                   ADDRESS         REF BY
           =====                   =======         ======
           Stop_Delay              00007B57 
               XSTACK = 00000011 ( 00000000 )
    -------------------------------------------------------------------------
<BANKED_CODE> 1 (was BANKED_CODE)
  Relative segment, address: CODE 00007B71 - 00007C98 (0x128 bytes), align: 0
  Segment part 14.            Intra module refs:   BE_WriteP::?relay
           ENTRY                   ADDRESS         REF BY
           =====                   =======         ======
           BE_WriteP               00007B71 
               calls direct
               XSTACK = 00000002 ( 00000010 )
    -------------------------------------------------------------------------
<BANKED_CODE> 1 (was BANKED_CODE)
  Relative segment, address: CODE 00007C99 - 00007D9A (0x102 bytes), align: 0
  Segment part 16.            Intra module refs:   BE_ReadP::?relay
           ENTRY                   ADDRESS         REF BY
           =====                   =======         ======
           BE_ReadP                00007C99 
               calls direct
               XSTACK = 0000000E ( 00000011 )
               ISTACK = 00000000 ( 00000001 )
    -------------------------------------------------------------------------
<BANKED_CODE> 1 (was BANKED_CODE)
  Relative segment, address: CODE 00007D9B - 00007DB8 (0x1e bytes), align: 0
  Segment part 18.            Intra module refs:   BE_ReadB::?relay
           ENTRY                   ADDRESS         REF BY
           =====                   =======         ======
           BE_ReadB                00007D9B 
               calls direct
               XSTACK = 00000002 ( 0000000E )
    -------------------------------------------------------------------------
<BANKED_CODE> 1 (was BANKED_CODE)
  Relative segment, address: CODE 00007DB9 - 00007DD6 (0x1e bytes), align: 0
  Segment part 20.            Intra module refs:   BE_ReadW::?relay
           ENTRY                   ADDRESS         REF BY
           =====                   =======         ======
           BE_ReadW                00007DB9 
               calls direct, is not allocated
               not allocated function
    -------------------------------------------------------------------------
XDATA_Z
  Relative segment, address: XDATA 00000201 - 00000201 (0x1 bytes), align: 0
  Segment part 10.            Intra module refs:   BE_I_ReadB
           ENTRY                   ADDRESS         REF BY
           =====                   =======         ======
           uc_BeRdData             00000201 
    -------------------------------------------------------------------------
<BANKED_CODE> 1 (was BANKED_CODE)
  Relative segment, address: CODE 00007DD7 - 00007E23 (0x4d bytes), align: 0
  Segment part 22.            Intra module refs:   BE_I_ReadB::?relay
           ENTRY                   ADDRESS         REF BY
           =====                   =======         ======
           BE_I_ReadB              00007DD7 
               XSTACK = 00000011 ( 00000000 )
               ISTACK = 00000000 ( 00000002 )
    -------------------------------------------------------------------------
XDATA_Z
  Relative segment, address: XDATA 00000202 - 00000202 (0x1 bytes), align: 0
  Segment part 11.            Intra module refs:   BE_I_WriteB
           ENTRY                   ADDRESS         REF BY
           =====                   =======         ======
           uc_BeWrData             00000202 
    -------------------------------------------------------------------------
<BANKED_CODE> 1 (was BANKED_CODE)
  Relative segment, address: CODE 00007E24 - 00007EA4 (0x81 bytes), align: 0
  Segment part 24.            Intra module refs:   BE_I_WriteB::?relay
           ENTRY                   ADDRESS         REF BY
           =====                   =======         ======
           BE_I_WriteB             00007E24 
               XSTACK = 00000011 ( 00000000 )
               ISTACK = 00000000 ( 00000002 )
    -------------------------------------------------------------------------
<BANKED_CODE> 1 (was BANKED_CODE)
  Relative segment, address: CODE 00007EA5 - 00007ED4 (0x30 bytes), align: 0
  Segment part 26.            Intra module refs:   BE_I_Start::?relay
           ENTRY                   ADDRESS         REF BY
           =====                   =======         ======
           BE_I_Start              00007EA5 
               XSTACK = 00000011 ( 00000000 )
    -------------------------------------------------------------------------
<BANKED_CODE> 1 (was BANKED_CODE)
  Relative segment, address: CODE 00007ED5 - 00007F0A (0x36 bytes), align: 0
  Segment part 28.            Intra module refs:   BE_I_Stop::?relay
           ENTRY                   ADDRESS         REF BY
           =====                   =======         ======
           BE_I_Stop               00007ED5 
               XSTACK = 00000011 ( 00000000 )
    -------------------------------------------------------------------------
<BANKED_CODE> 1 (was BANKED_CODE)
  Relative segment, address: CODE 00007F0B - 00007F30 (0x26 bytes), align: 0
  Segment part 30.            Intra module refs:   BE_I_NAK::?relay
           ENTRY                   ADDRESS         REF BY
           =====                   =======         ======
           BE_I_NAK                00007F0B 
               XSTACK = 00000011 ( 00000000 )
    -------------------------------------------------------------------------
<BANKED_CODE> 1 (was BANKED_CODE)
  Relative segment, address: CODE 00007F31 - 00007F56 (0x26 bytes), align: 0
  Segment part 32.            Intra module refs:   BE_I_ACK::?relay
           ENTRY                   ADDRESS         REF BY
           =====                   =======         ======
           BE_I_ACK                00007F31 
               XSTACK = 00000011 ( 00000000 )
    -------------------------------------------------------------------------
BANK_RELAYS
  Relative segment, address: CODE 00000EA4 - 00000EA9 (0x6 bytes), align: 0
  Segment part 13.            Intra module refs:   BE_ReadP
                                                   BE_WriteP
           ENTRY                   ADDRESS         REF BY
           =====                   =======         ======
           Stop_Delay::?relay      00000EA4 
    -------------------------------------------------------------------------
BANK_RELAYS
  Relative segment, address: CODE 00000EAA - 00000EAF (0x6 bytes), align: 0
  Segment part 15.
           ENTRY                   ADDRESS         REF BY
           =====                   =======         ======
           BE_WriteP::?relay       00000EAA        CalPowDwTm (Dataproc)
                                                   ClockBAK_E2 (Timeproc)
                                                   DataProcEvCountAdd (Dataproc)
                                                   DataProcWriteRound2 (Dataproc)
                                                   Data_ClearEvent (Event)
                                                   Data_ClearMeter (Dataproc)
                                                   Data_FactoryClr (Dataproc)
                                                   E2ParaCheck (DataProtect)
                                                   Eny_EnergyActiveSave (Energy)
                                                   Eny_EnergyClrCur (Energy)
                                                   FactoryWR (DLT_645_2007)
                                                   JudgePassword (Prcfrm)
                                                   KeyPgm_DyOut (Key)
                                                   LoadCurveCheck (LoadCurve)
                                                   MonthLYDL (Energy)
                                                   Pow_DnProc (Powmanger)
                                                   PwBs_DyOut (Prcfrm)
                                                   RSDJLlog (PrologFee)
                                                   RecoverEnegyData (Dataproc)
                                                   Rpt_Crc (Report)
                                                   RwGGJR (DLT_645_2007)
                                                   RwLcdData (DLT_645_2007)
                                                   RwRamE2 (DLT_645_2007)
                                                   SysE2ParaSetManage (DataProtect)
                                                   Up_FunCfg (FunCfg)
    -------------------------------------------------------------------------
BANK_RELAYS
  Relative segment, address: CODE 00000EB0 - 00000EB5 (0x6 bytes), align: 0
  Segment part 17.            Intra module refs:   BE_ReadB
                                                   BE_ReadW
           ENTRY                   ADDRESS         REF BY
           =====                   =======         ======
           BE_ReadP::?relay        00000EB0        BroadcastTime (DLT_645_2007)
                                                   CalPowDwTm (Dataproc)
                                                   CalRTC (RtcCpt)
                                                   ComRWE2Para (DLT_645_2007)
                                                   ComRdEvCnt (DLT_645_2007)
                                                   DataProcEvCountAdd (Dataproc)
                                                   DataProcRead2Slice (Dataproc)
                                                   DataProcWriteRound2 (Dataproc)
                                                   Data_FactoryClr (Dataproc)
                                                   E2ParaCheck (DataProtect)
                                                   EnergyCBRManage (Energy)
                                                   EnyB_AutoChkAngle (EnergyBottom)
                                                   EnyB_AutoChkIrms (EnergyBottom)
                                                   EnyB_AutoChkPW (EnergyBottom)
                                                   EnyB_AutoChkUrms (EnergyBottom)
                                                   Eny_EnergyActiveSave (Energy)
                                                   Eny_JbPm_GetE2 (Energy)
                                                   Eny_PurCheckRAMEny (Energy)
                                                   FactoryRD (DLT_645_2007)
                                                   FactoryWR (DLT_645_2007)
                                                   Init_Var (main)
                                                   IsJR (Multariff)
                                                   IsNumSD (Multariff)
                                                   IsNumSQ (Multariff)
                                                   IsValidSQ (Multariff)
                                                   Judge645Addr (Prcfrm)
                                                   JudgePassword (Prcfrm)
                                                   Ldc_Get1stRecord (LoadCurve)
                                                   Ldc_GetSeqRecord (LoadCurve)
                                                   Ldc_ZoneChk (LoadCurve)
                                                   LoadCurveCheck (LoadCurve)
                                                   ProJL (PrologFee)
                                                   RSDJLlog (PrologFee)
                                                   ReadHisJSTime (DLT_645_2007)
                                                   ReadJL (DLT_645_2007)
                                                   ReadRSDLogItem (PrologFee)
                                                   ReadSQLogItem (PrologFee)
                                                   ReadZHLYEgy (DLT_645_2007)
                                                   RecoverDayDjData (Dataproc)
                                                   RecoverEnegyData (Dataproc)
                                                   RecoverJSRData (Dataproc)
                                                   RecoverRtcPara (RtcCpt)
                                                   Rpt_Recover (Report)
                                                   RwDjData (DLT_645_2007)
                                                   RwGGJR (DLT_645_2007)
                                                   RwLcdData (DLT_645_2007)
                                                   RwRamE2 (DLT_645_2007)
                                                   RwSqSd (DLT_645_2007)
                                                   Search1stEqualItem (LoadCurve)
                                                   SearchEqualItem (LoadCurve)
                                                   SeekDataID (PrologFee)
                                                   ShowDataProc (Lcdshow)
                                                   ShowNumManage (Lcdshow)
                                                   SleepTimeProc (Timeproc)
                                                   SoftClockCheck (Timeproc)
                                                   SysE2ParaSetManage (DataProtect)
                                                   SysE2ReadData (DataProtect)
                                                   WriteHisEP (Energy)
                                                   getFee (Multariff)
    -------------------------------------------------------------------------
BANK_RELAYS
  Relative segment, address: CODE 00000EB6 - 00000EBB (0x6 bytes), align: 0
  Segment part 19.
           ENTRY                   ADDRESS         REF BY
           =====                   =======         ======
           BE_ReadB::?relay        00000EB6        DataProcWriteRound2 (Dataproc)
                                                   Eny_RefCalcType (Energy)
                                                   IsJR (Multariff)
                                                   IsValidSQ (Multariff)
                                                   IsZXR (Multariff)
                                                   MonthLYDL (Energy)
                                                   ReadZHLYEgy (DLT_645_2007)
                                                   Up_FunCfg (FunCfg)
                                                   getFee (Multariff)
                                                   getTimeZone (Multariff)
    -------------------------------------------------------------------------
BANK_RELAYS
  Relative segment, address: CODE 00000EBC - 00000EC1 (0x6 bytes), align: 0
  Segment part 21.
           ENTRY                   ADDRESS         REF BY
           =====                   =======         ======
           BE_ReadW::?relay        00000EBC        Eny_RefVar (Energy)
    -------------------------------------------------------------------------
BANK_RELAYS
  Relative segment, address: CODE 00000EC2 - 00000EC7 (0x6 bytes), align: 0
  Segment part 23.            Intra module refs:   BE_ReadP
           ENTRY                   ADDRESS         REF BY
           =====                   =======         ======
           BE_I_ReadB::?relay      00000EC2 
    -------------------------------------------------------------------------
BANK_RELAYS
  Relative segment, address: CODE 00000EC8 - 00000ECD (0x6 bytes), align: 0
  Segment part 25.            Intra module refs:   BE_ReadP
                                                   BE_WriteP
           ENTRY                   ADDRESS         REF BY
           =====                   =======         ======
           BE_I_WriteB::?relay     00000EC8 
    -------------------------------------------------------------------------
BANK_RELAYS
  Relative segment, address: CODE 00000ECE - 00000ED3 (0x6 bytes), align: 0
  Segment part 27.            Intra module refs:   BE_ReadP
                                                   BE_WriteP
           ENTRY                   ADDRESS         REF BY
           =====                   =======         ======
           BE_I_Start::?relay      00000ECE 
    -------------------------------------------------------------------------
BANK_RELAYS
  Relative segment, address: CODE 00000ED4 - 00000ED9 (0x6 bytes), align: 0
  Segment part 29.            Intra module refs:   BE_ReadP
                                                   BE_WriteP
           ENTRY                   ADDRESS         REF BY
           =====                   =======         ======
           BE_I_Stop::?relay       00000ED4 
    -------------------------------------------------------------------------
BANK_RELAYS
  Relative segment, address: CODE 00000EDA - 00000EDF (0x6 bytes), align: 0
  Segment part 31.            Intra module refs:   BE_ReadP
           ENTRY                   ADDRESS         REF BY
           =====                   =======         ======
           BE_I_NAK::?relay        00000EDA 
    -------------------------------------------------------------------------
BANK_RELAYS
  Relative segment, address: CODE 00000EE0 - 00000EE5 (0x6 bytes), align: 0
  Segment part 33.            Intra module refs:   BE_ReadP
           ENTRY                   ADDRESS         REF BY
           =====                   =======         ======
           BE_I_ACK::?relay        00000EE0 

    *************************************************************************

  FILE NAME : F:\SVN\06solution\Projects\农网\D105\Sw\Debug\Obj\CmpCode.r51
  PROGRAM MODULE, NAME : CmpCode

  SEGMENTS IN THE MODULE
  ======================
<BANKED_CODE> 3 (was BANKED_CODE)
  Relative segment, address: CODE 0001D237 - 0001D46D (0x237 bytes), align: 0
  Segment part 13.            Intra module refs:   ReadFlash::?relay
           ENTRY                   ADDRESS         REF BY
           =====                   =======         ======
           ReadFlash               0001D237 
               calls direct
               XSTACK = 00000011 ( 00000012 )
    -------------------------------------------------------------------------
<BANKED_CODE> 3 (was BANKED_CODE)
  Relative segment, address: CODE 0001D46E - 0001D507 (0x9a bytes), align: 0
  Segment part 15.            Intra module refs:   GetFactor::?relay
           ENTRY                   ADDRESS         REF BY
           =====                   =======         ======
           GetFactor               0001D46E 
               XSTACK = 00000000 ( 0000000C )
               ISTACK = 00000000 ( 00000001 )
    -------------------------------------------------------------------------
<BANKED_CODE> 3 (was BANKED_CODE)
  Relative segment, address: CODE 0001D508 - 0001D591 (0x8a bytes), align: 0
  Segment part 17.            Intra module refs:   CodeEncrypt::?relay
           ENTRY                   ADDRESS         REF BY
           =====                   =======         ======
           CodeEncrypt             0001D508 
               XSTACK = 00000002 ( 0000000F )
               ISTACK = 00000000 ( 00000001 )
    -------------------------------------------------------------------------
CODE_C
  Relative segment, address: CODE 0000244D - 00002450 (0x4 bytes), align: 0
  Segment part 6.             Intra module refs:   CmpCode (DLT_645_2007)
                                                   ReadFlash
           ENTRY                   ADDRESS         REF BY
           =====                   =======         ======
           __Constant_20000        0000244D 
    -------------------------------------------------------------------------
CODE_C
  Relative segment, address: CODE 00002451 - 00002454 (0x4 bytes), align: 0
  Segment part 7.             Intra module refs:   MidFindID (DLT_645_2007)
                                                   ReadFlash
           ENTRY                   ADDRESS         REF BY
           =====                   =======         ======
           __Constant_ffff         00002451 
    -------------------------------------------------------------------------
CODE_C
  Relative segment, address: CODE 00002455 - 00002458 (0x4 bytes), align: 0
  Segment part 8.             Intra module refs:   ReadFlash
                                                   ReadVar (DLT_645_2007)
           ENTRY                   ADDRESS         REF BY
           =====                   =======         ======
           __Constant_8000         00002455 
    -------------------------------------------------------------------------
CODE_C
  Relative segment, address: CODE 00002459 - 0000245C (0x4 bytes), align: 0
  Segment part 9.             Intra module refs:   ReadFlash
           ENTRY                   ADDRESS         REF BY
           =====                   =======         ======
           __Constant_18000        00002459 
    -------------------------------------------------------------------------
CODE_C
  Relative segment, address: CODE 0000245D - 00002460 (0x4 bytes), align: 0
  Segment part 10.            Intra module refs:   ReadFlash
           ENTRY                   ADDRESS         REF BY
           =====                   =======         ======
           __Constant_10000        0000245D 
    -------------------------------------------------------------------------
BANK_RELAYS
  Relative segment, address: CODE 00000EE6 - 00000EEB (0x6 bytes), align: 0
  Segment part 14.
           ENTRY                   ADDRESS         REF BY
           =====                   =======         ======
           ReadFlash::?relay       00000EE6        CmpCode (DLT_645_2007)
    -------------------------------------------------------------------------
BANK_RELAYS
  Relative segment, address: CODE 00000EEC - 00000EF1 (0x6 bytes), align: 0
  Segment part 16.
           ENTRY                   ADDRESS         REF BY
           =====                   =======         ======
           GetFactor::?relay       00000EEC        CmpCode (DLT_645_2007)
    -------------------------------------------------------------------------
BANK_RELAYS
  Relative segment, address: CODE 00000EF2 - 00000EF7 (0x6 bytes), align: 0
  Segment part 18.
           ENTRY                   ADDRESS         REF BY
           =====                   =======         ======
           CodeEncrypt::?relay     00000EF2        CmpCode (DLT_645_2007)

    *************************************************************************

  FILE NAME : F:\SVN\06solution\Projects\农网\D105\Sw\Debug\Obj\ComApplication.r51
  PROGRAM MODULE, NAME : ComApplication

  SEGMENTS IN THE MODULE
  ======================
<BANKED_CODE> 1 (was BANKED_CODE)
  Relative segment, address: CODE 00007F57 - 00007F8A (0x34 bytes), align: 0
  Segment part 6.             Intra module refs:   ComApp_Proc::?relay
           ENTRY                   ADDRESS         REF BY
           =====                   =======         ======
           ComApp_Proc             00007F57 
               calls direct, is not allocated
               not allocated function
    -------------------------------------------------------------------------
<BANKED_CODE> 1 (was BANKED_CODE)
  Relative segment, address: CODE 00007F8B - 00007FC7 (0x3d bytes), align: 0
  Segment part 8.             Intra module refs:   Uart_Proc::?relay
           ENTRY                   ADDRESS         REF BY
           =====                   =======         ======
           Uart_Proc               00007F8B 
               calls direct, is not allocated
               not allocated function
    -------------------------------------------------------------------------
BANK_RELAYS
  Relative segment, address: CODE 00000EF8 - 00000EFD (0x6 bytes), align: 0
  Segment part 7.
           ENTRY                   ADDRESS         REF BY
           =====                   =======         ======
           ComApp_Proc::?relay     00000EF8        SysEventProc (main)
    -------------------------------------------------------------------------
BANK_RELAYS
  Relative segment, address: CODE 00000EFE - 00000F03 (0x6 bytes), align: 0
  Segment part 9.             Intra module refs:   ComApp_Proc
           ENTRY                   ADDRESS         REF BY
           =====                   =======         ======
           Uart_Proc::?relay       00000EFE 

    *************************************************************************

  FILE NAME : F:\SVN\06solution\Projects\农网\D105\Sw\Debug\Obj\ComBottom.r51
  PROGRAM MODULE, NAME : ComBottom

  SEGMENTS IN THE MODULE
  ======================
SFR_AN
  Relative segment, address: DATA 00000091 - 00000091 (0x1 bytes), align: 0
  Segment part 1. ROOT.       Intra module refs:   ComBom_StartSend
                                                   IntOFF (McuDrive)
                                                   PLLAndExINT3 (System)
                                                   UATRAndCFInterrupt (System)
                                                   UATRAndRTCInterrupt (System)
           ENTRY                   ADDRESS         REF BY
           =====                   =======         ======
           EXIF                    00000091 
    -------------------------------------------------------------------------
XDATA_AN
  Relative segment, address: XDATA 00002840 - 00002840 (0x1 bytes), align: 0
  Segment part 2. ROOT.       Intra module refs:   ComBom_StartSend
                                                   UATRAndCFInterrupt (System)
           ENTRY                   ADDRESS         REF BY
           =====                   =======         ======
           ExInt2IFG               00002840 
    -------------------------------------------------------------------------
XDATA_AN
  Relative segment, address: XDATA 00002843 - 00002843 (0x1 bytes), align: 0
  Segment part 3. ROOT.       Intra module refs:   Check_Sfr (McuDrive)
                                                   ComBom_StartSend
                                                   EnyB_InitCFInt (EnergyBottom)
                                                   Init_Uart2 (Uart2)
                                                   Init_Uart4 (Uart4)
                                                   UATRAndCFInterrupt (System)
           ENTRY                   ADDRESS         REF BY
           =====                   =======         ======
           ExInt2IE                00002843 
    -------------------------------------------------------------------------
XDATA_AN
  Relative segment, address: XDATA 000028B0 - 000028B0 (0x1 bytes), align: 0
  Segment part 4. ROOT.       Intra module refs:   ComBom_StartSend
                                                   IOOFF (McuDrive)
                                                   Init_Port (McuDrive)
                                                   Init_Uart2 (Uart2)
                                                   Init_Uart4 (Uart4)
           ENTRY                   ADDRESS         REF BY
           =====                   =======         ======
           P2OE                    000028B0 
    -------------------------------------------------------------------------
XDATA_AN
  Relative segment, address: XDATA 000028CE - 000028CE (0x1 bytes), align: 0
  Segment part 5. ROOT.       Intra module refs:   Check_Sfr (McuDrive)
                                                   ComBom_StartSend
                                                   IOOFF (McuDrive)
                                                   Init_Port (McuDrive)
                                                   Init_Uart2 (Uart2)
           ENTRY                   ADDRESS         REF BY
           =====                   =======         ======
           P25FS                   000028CE 
    -------------------------------------------------------------------------
CODE_C
  Relative segment, address: CODE 00002461 - 0000246A (0xa bytes), align: 0
  Segment part 11.
           ENTRY                   ADDRESS         REF BY
           =====                   =======         ======
           BaudRateTable           00002461        Init_Uart4 (Uart4)
    -------------------------------------------------------------------------
XDATA_Z
  Relative segment, address: XDATA 00000203 - 0000064F (0x44d bytes), align: 0
  Segment part 12.            Intra module refs:   ComBom_10msDy
                                                   ComBom_Init
                                                   ComBom_StartSend
           ENTRY                   ADDRESS         REF BY
           =====                   =======         ======
           gs_ComGroup             00000203        ComApp_Proc (ComApplication)
                                                   Uart1_Receive (Uart1)
                                                   Uart1_Transmit (Uart1)
                                                   Uart2_Receive (Uart2)
                                                   Uart2_Transmit (Uart2)
                                                   Uart4_Receive (Uart4)
                                                   Uart4_Transmit (Uart4)
                                                   Uart_Proc (ComApplication)
    -------------------------------------------------------------------------
XDATA_Z
  Relative segment, address: XDATA 00000650 - 00000650 (0x1 bytes), align: 0
  Segment part 13.
           ENTRY                   ADDRESS         REF BY
           =====                   =======         ======
           guc_485Bode             00000650        ChangeBodeProc (McuDrive)
                                                   Uart4_Dy10ms (Uart4)
    -------------------------------------------------------------------------
XDATA_Z
  Relative segment, address: XDATA 00000651 - 00000651 (0x1 bytes), align: 0
  Segment part 14.
           ENTRY                   ADDRESS         REF BY
           =====                   =======         ======
           guc_BodeDely            00000651        ChangeBode (DLT_645_2007)
                                                   ComRWE2Para (DLT_645_2007)
                                                   Init_Var (main)
                                                   Uart1_Dy10ms (Uart1)
                                                   Uart4_Dy10ms (Uart4)
    -------------------------------------------------------------------------
XDATA_Z
  Relative segment, address: XDATA 00000652 - 00000652 (0x1 bytes), align: 0
  Segment part 15.
           ENTRY                   ADDRESS         REF BY
           =====                   =======         ======
           guc_ComSendDy           00000652        BD_ProcFrame (Prcfrm)
                                                   Init_Var (main)
                                                   Timer2Interrupt (System)
                                                   Uart1_Receive (Uart1)
                                                   Uart2_Receive (Uart2)
                                                   Uart4_Receive (Uart4)
    -------------------------------------------------------------------------
<BANKED_CODE> 3 (was BANKED_CODE)
  Relative segment, address: CODE 0001E849 - 0001E8A7 (0x5f bytes), align: 0
  Segment part 16.            Intra module refs:   ComBom_Init::?relay
           ENTRY                   ADDRESS         REF BY
           =====                   =======         ======
           ComBom_Init             0001E849 
               XSTACK = 00000009 ( 00000000 )
               ISTACK = 00000000 ( 00000002 )
    -------------------------------------------------------------------------
<BANKED_CODE> 3 (was BANKED_CODE)
  Relative segment, address: CODE 0001E8A8 - 0001E8C1 (0x1a bytes), align: 0
  Segment part 18.            Intra module refs:   ComBom_InitAll::?relay
           ENTRY                   ADDRESS         REF BY
           =====                   =======         ======
           ComBom_InitAll          0001E8A8 
               calls direct, is not allocated
               not allocated function
    -------------------------------------------------------------------------
<BANKED_CODE> 3 (was BANKED_CODE)
  Relative segment, address: CODE 0001E8C2 - 0001E932 (0x71 bytes), align: 0
  Segment part 20.            Intra module refs:   ComBom_StartSend::?relay
           ENTRY                   ADDRESS         REF BY
           =====                   =======         ======
           ComBom_StartSend        0001E8C2 
               calls direct, is not allocated
               not allocated function
    -------------------------------------------------------------------------
<BANKED_CODE> 3 (was BANKED_CODE)
  Relative segment, address: CODE 0001E933 - 0001E97C (0x4a bytes), align: 0
  Segment part 22.            Intra module refs:   ComBom_10msDy::?relay
           ENTRY                   ADDRESS         REF BY
           =====                   =======         ======
           ComBom_10msDy           0001E933 
               ISTACK = 00000000 ( 00000002 )
    -------------------------------------------------------------------------
BANK_RELAYS
  Relative segment, address: CODE 00000F04 - 00000F09 (0x6 bytes), align: 0
  Segment part 17.            Intra module refs:   ComBom_InitAll
                                                   ComBom_StartSend
           ENTRY                   ADDRESS         REF BY
           =====                   =======         ======
           ComBom_Init::?relay     00000F04        ChangeBodeProc (McuDrive)
                                                   Uart1_Dy10ms (Uart1)
                                                   Uart1_Transmit (Uart1)
                                                   Uart2_Dy10ms (Uart2)
                                                   Uart2_Transmit (Uart2)
                                                   Uart4_Dy10ms (Uart4)
                                                   Uart4_Transmit (Uart4)
                                                   Uart_Proc (ComApplication)
    -------------------------------------------------------------------------
BANK_RELAYS
  Relative segment, address: CODE 00000F0A - 00000F0F (0x6 bytes), align: 0
  Segment part 19.
           ENTRY                   ADDRESS         REF BY
           =====                   =======         ======
           ComBom_InitAll::?relay
                                   00000F0A        CPUInit (McuDrive)
                                                   Uart_Proc (ComApplication)
    -------------------------------------------------------------------------
BANK_RELAYS
  Relative segment, address: CODE 00000F10 - 00000F15 (0x6 bytes), align: 0
  Segment part 21.
           ENTRY                   ADDRESS         REF BY
           =====                   =======         ======
           ComBom_StartSend::?relay
                                   00000F10        BD_ProcFrame (Prcfrm)
    -------------------------------------------------------------------------
BANK_RELAYS
  Relative segment, address: CODE 00000F16 - 00000F1B (0x6 bytes), align: 0
  Segment part 23.
           ENTRY                   ADDRESS         REF BY
           =====                   =======         ======
           ComBom_10msDy::?relay   00000F16        Timer2Interrupt (System)

    *************************************************************************

  FILE NAME : F:\SVN\06solution\Projects\农网\D105\Sw\Debug\Obj\ComCoretab.r51
  PROGRAM MODULE, NAME : ComCoretab

  SEGMENTS IN THE MODULE
  ======================
CODE_C
  Relative segment, address: CODE 0000246B - 0000249E (0x34 bytes), align: 0
  Segment part 6.
           ENTRY                   ADDRESS         REF BY
           =====                   =======         ======
           FunList                 0000246B        RWData (DLT_645_2007)
    -------------------------------------------------------------------------
CODE_C
  Relative segment, address: CODE 0000249F - 00002561 (0xc3 bytes), align: 0
  Segment part 7.             Intra module refs:   gs_CoreID
           ENTRY                   ADDRESS         REF BY
           =====                   =======         ======
           gs_CoreTab0             0000249F 
    -------------------------------------------------------------------------
CODE_C
  Relative segment, address: CODE 00002562 - 0000260A (0xa9 bytes), align: 0
  Segment part 8.             Intra module refs:   gs_CoreID
           ENTRY                   ADDRESS         REF BY
           =====                   =======         ======
           gs_CoreTab2             00002562 
    -------------------------------------------------------------------------
CODE_C
  Relative segment, address: CODE 0000260B - 00002728 (0x11e bytes), align: 0
  Segment part 9.             Intra module refs:   gs_CoreID
           ENTRY                   ADDRESS         REF BY
           =====                   =======         ======
           gs_CoreTab3             0000260B 
    -------------------------------------------------------------------------
CODE_C
  Relative segment, address: CODE 00002729 - 00002AEA (0x3c2 bytes), align: 0
  Segment part 10.            Intra module refs:   gs_CoreID
           ENTRY                   ADDRESS         REF BY
           =====                   =======         ======
           gs_CoreTab4             00002729        RWData (DLT_645_2007)
    -------------------------------------------------------------------------
CODE_C
  Relative segment, address: CODE 00002AEB - 00002B79 (0x8f bytes), align: 0
  Segment part 11.            Intra module refs:   gs_CoreID
           ENTRY                   ADDRESS         REF BY
           =====                   =======         ======
           gs_CoreTab5             00002AEB 
    -------------------------------------------------------------------------
CODE_C
  Relative segment, address: CODE 00002B7A - 00002BC7 (0x4e bytes), align: 0
  Segment part 12.            Intra module refs:   gs_CoreID
           ENTRY                   ADDRESS         REF BY
           =====                   =======         ======
           gs_CoreTab6             00002B7A 
    -------------------------------------------------------------------------
CODE_C
  Relative segment, address: CODE 00002BC8 - 00002BEE (0x27 bytes), align: 0
  Segment part 13.            Intra module refs:   gs_CoreID
           ENTRY                   ADDRESS         REF BY
           =====                   =======         ======
           gs_CoreTab4F            00002BC8 
    -------------------------------------------------------------------------
CODE_C
  Relative segment, address: CODE 00002BEF - 00002C0A (0x1c bytes), align: 0
  Segment part 14.
           ENTRY                   ADDRESS         REF BY
           =====                   =======         ======
           gs_CoreID               00002BEF        RWData (DLT_645_2007)
    -------------------------------------------------------------------------
CODE_C
  Relative segment, address: CODE 00002C0B - 00002C0B (0x1 bytes), align: 0
  Segment part 15.
           ENTRY                   ADDRESS         REF BY
           =====                   =======         ======
           NumofCoreID             00002C0B        RWData (DLT_645_2007)

    *************************************************************************

  FILE NAME : F:\SVN\06solution\Projects\农网\D105\Sw\Debug\Obj\DLT_645_2007.r51
  PROGRAM MODULE, NAME : DLT_645_2007

  SEGMENTS IN THE MODULE
  ======================
XDATA_AN
  Relative segment, address: XDATA 000028D9 - 000028D9 (0x1 bytes), align: 0
  Segment part 1. ROOT.       Intra module refs:   BgCtrFun (McuDrive)
                                                   EventOutProc (McuDrive)
                                                   IOOFF (McuDrive)
                                                   Init_Port (McuDrive)
                                                   IrShowLcd
                                                   KeyScan (Key)
                                                   PowUpLedCtl (McuDrive)
                                                   Uart2_Receive (Uart2)
           ENTRY                   ADDRESS         REF BY
           =====                   =======         ======
           P8OE                    000028D9 
    -------------------------------------------------------------------------
XDATA_AN
  Relative segment, address: XDATA 000028DB - 000028DB (0x1 bytes), align: 0
  Segment part 2. ROOT.       Intra module refs:   BgCtrFun (McuDrive)
                                                   EventOutProc (McuDrive)
                                                   IOOFF (McuDrive)
                                                   Init_Port (McuDrive)
                                                   IrShowLcd
                                                   KeyScan (Key)
                                                   PowUpLedCtl (McuDrive)
                                                   Uart2_Receive (Uart2)
           ENTRY                   ADDRESS         REF BY
           =====                   =======         ======
           P8OD                    000028DB 
    -------------------------------------------------------------------------
XDATA_Z
  Relative segment, address: XDATA 00000653 - 00000656 (0x4 bytes), align: 0
  Segment part 8.             Intra module refs:   ClearEvent
                                                   ClearMeter
           ENTRY                   ADDRESS         REF BY
           =====                   =======         ======
           guw_UseCode             00000653        Com_ClearEventJL (Event)
                                                   Com_ClearMeterJL (Event)
    -------------------------------------------------------------------------
<BANKED_CODE> 2 (was BANKED_CODE)
  Relative segment, address: CODE 00008000 - 0000804A (0x4b bytes), align: 0
  Segment part 74.            Intra module refs:   ReadMeterAddr::?relay
           ENTRY                   ADDRESS         REF BY
           =====                   =======         ======
           ReadMeterAddr           00008000 
               calls direct
               XSTACK = 00000000 ( 00000009 )
    -------------------------------------------------------------------------
<BANKED_CODE> 2 (was BANKED_CODE)
  Relative segment, address: CODE 0000804B - 00008109 (0xbf bytes), align: 0
  Segment part 76.            Intra module refs:   WriteMeterAddr::?relay
           ENTRY                   ADDRESS         REF BY
           =====                   =======         ======
           WriteMeterAddr          0000804B 
               calls direct
               XSTACK = 00000000 ( 0000000C )
    -------------------------------------------------------------------------
<BANKED_CODE> 2 (was BANKED_CODE)
  Relative segment, address: CODE 0000810A - 0000847F (0x376 bytes), align: 0
  Segment part 78.            Intra module refs:   RWData::?relay
           ENTRY                   ADDRESS         REF BY
           =====                   =======         ======
           RWData                  0000810A 
               calls direct
               XSTACK = 00000000 ( 00000017 )
               ISTACK = 00000000 ( 00000002 )
    -------------------------------------------------------------------------
CODE_C
  Relative segment, address: CODE 00002C0C - 00002CB3 (0xa8 bytes), align: 0
  Segment part 9.             Intra module refs:   FactoryRD
                                                   FactoryWR
           ENTRY                   ADDRESS         REF BY
           =====                   =======         ======
           gs_E2RwCtrTalbe         00002C0C 
    -------------------------------------------------------------------------
<BANKED_CODE> 2 (was BANKED_CODE)
  Relative segment, address: CODE 00008480 - 000085D9 (0x15a bytes), align: 0
  Segment part 80.            Intra module refs:   FactoryRD::?relay
           ENTRY                   ADDRESS         REF BY
           =====                   =======         ======
           FactoryRD               00008480 
               calls direct
               XSTACK = 00000000 ( 00000012 )
               ISTACK = 00000000 ( 00000001 )
    -------------------------------------------------------------------------
<BANKED_CODE> 2 (was BANKED_CODE)
  Relative segment, address: CODE 000085DA - 00008B63 (0x58a bytes), align: 0
  Segment part 82.            Intra module refs:   FactoryWR::?relay
           ENTRY                   ADDRESS         REF BY
           =====                   =======         ======
           FactoryWR               000085DA 
               calls direct
               XSTACK = 00000000 ( 0000001A )
    -------------------------------------------------------------------------
<BANKED_CODE> 2 (was BANKED_CODE)
  Relative segment, address: CODE 00008B64 - 00008CDF (0x17c bytes), align: 0
  Segment part 84.            Intra module refs:   MidFindID::?relay
           ENTRY                   ADDRESS         REF BY
           =====                   =======         ======
           MidFindID               00008B64 
               XSTACK = 00000017 ( 0000000C )
               ISTACK = 00000000 ( 00000002 )
    -------------------------------------------------------------------------
<BANKED_CODE> 2 (was BANKED_CODE)
  Relative segment, address: CODE 00008CE0 - 00008E46 (0x167 bytes), align: 0
  Segment part 86.            Intra module refs:   ChangePassWord::?relay
           ENTRY                   ADDRESS         REF BY
           =====                   =======         ======
           ChangePassWord          00008CE0 
               calls direct
               XSTACK = 00000000 ( 00000010 )
               ISTACK = 00000000 ( 00000001 )
    -------------------------------------------------------------------------
<BANKED_CODE> 2 (was BANKED_CODE)
  Relative segment, address: CODE 00008E47 - 00008F01 (0xbb bytes), align: 0
  Segment part 88.            Intra module refs:   ChangeBode::?relay
           ENTRY                   ADDRESS         REF BY
           =====                   =======         ======
           ChangeBode              00008E47 
               calls direct
               XSTACK = 00000000 ( 0000000B )
               ISTACK = 00000000 ( 00000001 )
    -------------------------------------------------------------------------
<BANKED_CODE> 2 (was BANKED_CODE)
  Relative segment, address: CODE 00008F02 - 00008FAA (0xa9 bytes), align: 0
  Segment part 90.            Intra module refs:   ClearMeter::?relay
           ENTRY                   ADDRESS         REF BY
           =====                   =======         ======
           ClearMeter              00008F02 
               calls direct
               XSTACK = 00000000 ( 0000000A )
               ISTACK = 00000000 ( 00000001 )
    -------------------------------------------------------------------------
<BANKED_CODE> 2 (was BANKED_CODE)
  Relative segment, address: CODE 00008FAB - 000090FE (0x154 bytes), align: 0
  Segment part 92.            Intra module refs:   ClearEvent::?relay
           ENTRY                   ADDRESS         REF BY
           =====                   =======         ======
           ClearEvent              00008FAB 
               calls direct
               XSTACK = 00000000 ( 00000010 )
               ISTACK = 00000000 ( 00000001 )
    -------------------------------------------------------------------------
<BANKED_CODE> 2 (was BANKED_CODE)
  Relative segment, address: CODE 000090FF - 00009276 (0x178 bytes), align: 0
  Segment part 94.            Intra module refs:   BroadcastTime::?relay
           ENTRY                   ADDRESS         REF BY
           =====                   =======         ======
           BroadcastTime           000090FF 
               calls direct
               XSTACK = 00000000 ( 00000021 )
               ISTACK = 00000000 ( 00000002 )
    -------------------------------------------------------------------------
<BANKED_CODE> 2 (was BANKED_CODE)
  Relative segment, address: CODE 00009277 - 00009394 (0x11e bytes), align: 0
  Segment part 96.            Intra module refs:   Freeze::?relay
           ENTRY                   ADDRESS         REF BY
           =====                   =======         ======
           Freeze                  00009277 
               calls direct
               XSTACK = 00000000 ( 0000000C )
    -------------------------------------------------------------------------
CODE_C
  Relative segment, address: CODE 00002CB4 - 00002CB7 (0x4 bytes), align: 0
  Segment part 10.            Intra module refs:   RwSqSd
           ENTRY                   ADDRESS         REF BY
           =====                   =======         ======
           SqSdTab                 00002CB4 
    -------------------------------------------------------------------------
<BANKED_CODE> 2 (was BANKED_CODE)
  Relative segment, address: CODE 00009395 - 000095E1 (0x24d bytes), align: 0
  Segment part 98.            Intra module refs:   RwSqSd::?relay
           ENTRY                   ADDRESS         REF BY
           =====                   =======         ======
           RwSqSd                  00009395 
               calls direct
               XSTACK = 00000000 ( 00000015 )
               ISTACK = 00000000 ( 00000002 )
    -------------------------------------------------------------------------
<BANKED_CODE> 2 (was BANKED_CODE)
  Relative segment, address: CODE 000095E2 - 000096D3 (0xf2 bytes), align: 0
  Segment part 100.           Intra module refs:   ComReadRunCode::?relay
           ENTRY                   ADDRESS         REF BY
           =====                   =======         ======
           ComReadRunCode          000095E2 
               calls direct
               XSTACK = 00000000 ( 00000010 )
               ISTACK = 00000000 ( 00000001 )
    -------------------------------------------------------------------------
<BANKED_CODE> 2 (was BANKED_CODE)
  Relative segment, address: CODE 000096D4 - 00009767 (0x94 bytes), align: 0
  Segment part 102.           Intra module refs:   SecPulsCtrl::?relay
           ENTRY                   ADDRESS         REF BY
           =====                   =======         ======
           SecPulsCtrl             000096D4 
               calls direct
               XSTACK = 00000000 ( 0000000A )
    -------------------------------------------------------------------------
<BANKED_CODE> 2 (was BANKED_CODE)
  Relative segment, address: CODE 00009768 - 000099FE (0x297 bytes), align: 0
  Segment part 104.           Intra module refs:   ReadAccuEgy::?relay
           ENTRY                   ADDRESS         REF BY
           =====                   =======         ======
           ReadAccuEgy             00009768 
               calls direct
               XSTACK = 00000000 ( 00000030 )
               ISTACK = 00000000 ( 00000001 )
    -------------------------------------------------------------------------
<BANKED_CODE> 2 (was BANKED_CODE)
  Relative segment, address: CODE 000099FF - 00009C1C (0x21e bytes), align: 0
  Segment part 106.           Intra module refs:   ReadZHLYEgy::?relay
           ENTRY                   ADDRESS         REF BY
           =====                   =======         ======
           ReadZHLYEgy             000099FF 
               calls direct
               XSTACK = 00000000 ( 00000021 )
               ISTACK = 00000000 ( 00000001 )
    -------------------------------------------------------------------------
<BANKED_CODE> 2 (was BANKED_CODE)
  Relative segment, address: CODE 00009C1D - 00009FA4 (0x388 bytes), align: 0
  Segment part 108.           Intra module refs:   ReadCurEgy::?relay
           ENTRY                   ADDRESS         REF BY
           =====                   =======         ======
           ReadCurEgy              00009C1D 
               calls direct
               XSTACK = 00000000 ( 00000018 )
               ISTACK = 00000000 ( 00000002 )
    -------------------------------------------------------------------------
<BANKED_CODE> 2 (was BANKED_CODE)
  Relative segment, address: CODE 00009FA5 - 0000A2DA (0x336 bytes), align: 0
  Segment part 110.           Intra module refs:   ReadHisEgy::?relay
           ENTRY                   ADDRESS         REF BY
           =====                   =======         ======
           ReadHisEgy              00009FA5 
               calls direct
               XSTACK = 00000000 ( 0000001A )
    -------------------------------------------------------------------------
<BANKED_CODE> 2 (was BANKED_CODE)
  Relative segment, address: CODE 0000A2DB - 0000A67E (0x3a4 bytes), align: 0
  Segment part 112.           Intra module refs:   ReadEnyD0Block::?relay
           ENTRY                   ADDRESS         REF BY
           =====                   =======         ======
           ReadEnyD0Block          0000A2DB 
               calls direct
               XSTACK = 00000000 ( 00000020 )
               ISTACK = 00000000 ( 00000001 )
    -------------------------------------------------------------------------
CODE_C
  Relative segment, address: CODE 00002CB8 - 00002D17 (0x60 bytes), align: 0
  Segment part 11.            Intra module refs:   ComRWE2Para
           ENTRY                   ADDRESS         REF BY
           =====                   =======         ======
           gs_ParaFormatTab        00002CB8 
    -------------------------------------------------------------------------
<BANKED_CODE> 2 (was BANKED_CODE)
  Relative segment, address: CODE 0000A67F - 0000ACA8 (0x62a bytes), align: 0
  Segment part 114.           Intra module refs:   ComRWE2Para::?relay
           ENTRY                   ADDRESS         REF BY
           =====                   =======         ======
           ComRWE2Para             0000A67F 
               calls direct
               XSTACK = 00000000 ( 00000024 )
               ISTACK = 00000000 ( 00000002 )
    -------------------------------------------------------------------------
<BANKED_CODE> 2 (was BANKED_CODE)
  Relative segment, address: CODE 0000ACA9 - 0000ADEF (0x147 bytes), align: 0
  Segment part 116.           Intra module refs:   WrPassWord::?relay
           ENTRY                   ADDRESS         REF BY
           =====                   =======         ======
           WrPassWord              0000ACA9 
               calls direct
               XSTACK = 00000000 ( 0000000C )
               ISTACK = 00000000 ( 00000002 )
    -------------------------------------------------------------------------
<BANKED_CODE> 2 (was BANKED_CODE)
  Relative segment, address: CODE 0000ADF0 - 0000AEDC (0xed bytes), align: 0
  Segment part 118.           Intra module refs:   ComMeterConst::?relay
           ENTRY                   ADDRESS         REF BY
           =====                   =======         ======
           ComMeterConst           0000ADF0 
               calls direct
               XSTACK = 00000000 ( 00000010 )
               ISTACK = 00000000 ( 00000001 )
    -------------------------------------------------------------------------
<BANKED_CODE> 2 (was BANKED_CODE)
  Relative segment, address: CODE 0000AEDD - 0000AFC1 (0xe5 bytes), align: 0
  Segment part 120.           Intra module refs:   ComRdEvCnt::?relay
           ENTRY                   ADDRESS         REF BY
           =====                   =======         ======
           ComRdEvCnt              0000AEDD 
               calls direct
               XSTACK = 00000000 ( 00000014 )
               ISTACK = 00000000 ( 00000001 )
    -------------------------------------------------------------------------
<BANKED_CODE> 2 (was BANKED_CODE)
  Relative segment, address: CODE 0000AFC2 - 0000B0DB (0x11a bytes), align: 0
  Segment part 122.           Intra module refs:   RwGGJR::?relay
           ENTRY                   ADDRESS         REF BY
           =====                   =======         ======
           RwGGJR                  0000AFC2 
               calls direct
               XSTACK = 00000000 ( 00000012 )
               ISTACK = 00000000 ( 00000002 )
    -------------------------------------------------------------------------
<BANKED_CODE> 2 (was BANKED_CODE)
  Relative segment, address: CODE 0000B0DC - 0000B0E0 (0x5 bytes), align: 0
  Segment part 124.           Intra module refs:   FunToBeDef::?relay
           ENTRY                   ADDRESS         REF BY
           =====                   =======         ======
           FunToBeDef              0000B0DC 
    -------------------------------------------------------------------------
<BANKED_CODE> 2 (was BANKED_CODE)
  Relative segment, address: CODE 0000B0E1 - 0000B359 (0x279 bytes), align: 0
  Segment part 126.           Intra module refs:   ReadJL::?relay
           ENTRY                   ADDRESS         REF BY
           =====                   =======         ======
           ReadJL                  0000B0E1 
               calls direct
               XSTACK = 00000000 ( 00000018 )
               ISTACK = 00000000 ( 00000001 )
    -------------------------------------------------------------------------
CODE_C
  Relative segment, address: CODE 00002D18 - 00002D2F (0x18 bytes), align: 0
  Segment part 12.            Intra module refs:   RwDjData
           ENTRY                   ADDRESS         REF BY
           =====                   =======         ======
           DjDATATab               00002D18 
    -------------------------------------------------------------------------
<BANKED_CODE> 2 (was BANKED_CODE)
  Relative segment, address: CODE 0000B35A - 0000B8DB (0x582 bytes), align: 0
  Segment part 128.           Intra module refs:   RwDjData::?relay
           ENTRY                   ADDRESS         REF BY
           =====                   =======         ======
           RwDjData                0000B35A 
               calls direct
               XSTACK = 00000000 ( 0000001B )
               ISTACK = 00000000 ( 00000001 )
    -------------------------------------------------------------------------
<BANKED_CODE> 2 (was BANKED_CODE)
  Relative segment, address: CODE 0000B8DC - 0000BA39 (0x15e bytes), align: 0
  Segment part 130.           Intra module refs:   RwLcdData::?relay
           ENTRY                   ADDRESS         REF BY
           =====                   =======         ======
           RwLcdData               0000B8DC 
               calls direct
               XSTACK = 00000000 ( 00000016 )
    -------------------------------------------------------------------------
<BANKED_CODE> 2 (was BANKED_CODE)
  Relative segment, address: CODE 0000BA3A - 0000BC55 (0x21c bytes), align: 0
  Segment part 132.           Intra module refs:   RwSysTime::?relay
           ENTRY                   ADDRESS         REF BY
           =====                   =======         ======
           RwSysTime               0000BA3A 
               calls direct
               XSTACK = 00000000 ( 00000019 )
               ISTACK = 00000000 ( 00000001 )
    -------------------------------------------------------------------------
<BANKED_CODE> 2 (was BANKED_CODE)
  Relative segment, address: CODE 0000BC56 - 0000BD3B (0xe6 bytes), align: 0
  Segment part 134.           Intra module refs:   RwRamE2::?relay
           ENTRY                   ADDRESS         REF BY
           =====                   =======         ======
           RwRamE2                 0000BC56 
               calls direct
               XSTACK = 00000000 ( 00000010 )
               ISTACK = 00000000 ( 00000001 )
    -------------------------------------------------------------------------
CODE_C
  Relative segment, address: CODE 00002D30 - 00002D7D (0x4e bytes), align: 0
  Segment part 13.            Intra module refs:   ReadVar
           ENTRY                   ADDRESS         REF BY
           =====                   =======         ======
           Gs_RdVarTab             00002D30 
    -------------------------------------------------------------------------
<BANKED_CODE> 2 (was BANKED_CODE)
  Relative segment, address: CODE 0000BD3C - 0000C09A (0x35f bytes), align: 0
  Segment part 136.           Intra module refs:   ReadVar::?relay
           ENTRY                   ADDRESS         REF BY
           =====                   =======         ======
           ReadVar                 0000BD3C 
               calls direct
               XSTACK = 00000000 ( 0000001E )
               ISTACK = 00000000 ( 00000001 )
    -------------------------------------------------------------------------
<BANKED_CODE> 2 (was BANKED_CODE)
  Relative segment, address: CODE 0000C09B - 0000C244 (0x1aa bytes), align: 0
  Segment part 138.           Intra module refs:   IrShowLcd::?relay
           ENTRY                   ADDRESS         REF BY
           =====                   =======         ======
           IrShowLcd               0000C09B 
               calls direct
               XSTACK = 00000000 ( 00000019 )
               ISTACK = 00000000 ( 00000002 )
    -------------------------------------------------------------------------
<BANKED_CODE> 2 (was BANKED_CODE)
  Relative segment, address: CODE 0000C245 - 0000C2C6 (0x82 bytes), align: 0
  Segment part 140.           Intra module refs:   ReadSwVersion::?relay
           ENTRY                   ADDRESS         REF BY
           =====                   =======         ======
           ReadSwVersion           0000C245 
               calls direct
               XSTACK = 00000000 ( 0000000A )
    -------------------------------------------------------------------------
<BANKED_CODE> 2 (was BANKED_CODE)
  Relative segment, address: CODE 0000C2C7 - 0000C416 (0x150 bytes), align: 0
  Segment part 142.           Intra module refs:   ReadHisJSTime::?relay
           ENTRY                   ADDRESS         REF BY
           =====                   =======         ======
           ReadHisJSTime           0000C2C7 
               calls direct
               XSTACK = 00000000 ( 0000000F )
               ISTACK = 00000000 ( 00000001 )
    -------------------------------------------------------------------------
<BANKED_CODE> 2 (was BANKED_CODE)
  Relative segment, address: CODE 0000C417 - 0000C6E3 (0x2cd bytes), align: 0
  Segment part 144.           Intra module refs:   CmpCode::?relay
           ENTRY                   ADDRESS         REF BY
           =====                   =======         ======
           CmpCode                 0000C417 
               calls direct
               XSTACK = 00000000 ( 0000001A )
               ISTACK = 00000000 ( 00000002 )
    -------------------------------------------------------------------------
<BANKED_CODE> 2 (was BANKED_CODE)
  Relative segment, address: CODE 0000C6E4 - 0000C973 (0x290 bytes), align: 0
  Segment part 146.           Intra module refs:   Report::?relay
           ENTRY                   ADDRESS         REF BY
           =====                   =======         ======
           Report                  0000C6E4 
               calls direct
               XSTACK = 00000013 ( 0000001C )
               ISTACK = 00000000 ( 00000001 )
    -------------------------------------------------------------------------
<BANKED_CODE> 2 (was BANKED_CODE)
  Relative segment, address: CODE 0000C974 - 0000C9C9 (0x56 bytes), align: 0
  Segment part 148.           Intra module refs:   Ldc_ReadType::?relay
           ENTRY                   ADDRESS         REF BY
           =====                   =======         ======
           Ldc_ReadType            0000C974 
               XSTACK = 00000011 ( 00000000 )
               ISTACK = 00000000 ( 00000002 )
    -------------------------------------------------------------------------
<BANKED_CODE> 2 (was BANKED_CODE)
  Relative segment, address: CODE 0000C9CA - 0000CE4D (0x484 bytes), align: 0
  Segment part 150.           Intra module refs:   ReadCurveJl::?relay
           ENTRY                   ADDRESS         REF BY
           =====                   =======         ======
           ReadCurveJl             0000C9CA 
               calls direct
               XSTACK = 00000000 ( 00000015 )
               ISTACK = 00000000 ( 00000001 )
    -------------------------------------------------------------------------
CODE_C
  Relative segment, address: CODE 00002D7E - 00002D81 (0x4 bytes), align: 0
  Segment part 14.            Intra module refs:   CmpCode
                                                   ComRWE2Para
                                                   RWData
                                                   ReadJL
           ENTRY                   ADDRESS         REF BY
           =====                   =======         ======
           __Constant_ffffff00     00002D7E 
    -------------------------------------------------------------------------
CODE_C
  Relative segment, address: CODE 00002D82 - 00002D85 (0x4 bytes), align: 0
  Segment part 15.            Intra module refs:   RWData
           ENTRY                   ADDRESS         REF BY
           =====                   =======         ======
           __Constant_4010000      00002D82 
    -------------------------------------------------------------------------
CODE_C
  Relative segment, address: CODE 00002D86 - 00002D89 (0x4 bytes), align: 0
  Segment part 16.            Intra module refs:   RWData
           ENTRY                   ADDRESS         REF BY
           =====                   =======         ======
           __Constant_4020000      00002D86 
    -------------------------------------------------------------------------
CODE_C
  Relative segment, address: CODE 00002D8A - 00002D8D (0x4 bytes), align: 0
  Segment part 17.            Intra module refs:   RWData
           ENTRY                   ADDRESS         REF BY
           =====                   =======         ======
           __Constant_400040f      00002D8A 
    -------------------------------------------------------------------------
CODE_C
  Relative segment, address: CODE 00002D8E - 00002D91 (0x4 bytes), align: 0
  Segment part 18.            Intra module refs:   RWData
           ENTRY                   ADDRESS         REF BY
           =====                   =======         ======
           __Constant_3300500      00002D8E 
    -------------------------------------------------------------------------
CODE_C
  Relative segment, address: CODE 00002D92 - 00002D95 (0x4 bytes), align: 0
  Segment part 19.            Intra module refs:   RWData
           ENTRY                   ADDRESS         REF BY
           =====                   =======         ======
           __Constant_3300600      00002D92 
    -------------------------------------------------------------------------
CODE_C
  Relative segment, address: CODE 00002D96 - 00002D99 (0x4 bytes), align: 0
  Segment part 20.            Intra module refs:   RWData
           ENTRY                   ADDRESS         REF BY
           =====                   =======         ======
           __Constant_ffff0000     00002D96 
    -------------------------------------------------------------------------
CODE_C
  Relative segment, address: CODE 00002D9A - 00002D9D (0x4 bytes), align: 0
  Segment part 21.            Intra module refs:   RWData
           ENTRY                   ADDRESS         REF BY
           =====                   =======         ======
           __Constant_6100000      00002D9A 
    -------------------------------------------------------------------------
CODE_C
  Relative segment, address: CODE 00002D9E - 00002DA1 (0x4 bytes), align: 0
  Segment part 22.            Intra module refs:   FactoryRD
           ENTRY                   ADDRESS         REF BY
           =====                   =======         ======
           __Constant_20000011     00002D9E 
    -------------------------------------------------------------------------
CODE_C
  Relative segment, address: CODE 00002DA2 - 00002DA5 (0x4 bytes), align: 0
  Segment part 23.            Intra module refs:   FactoryRD
           ENTRY                   ADDRESS         REF BY
           =====                   =======         ======
           __Constant_20000070     00002DA2 
    -------------------------------------------------------------------------
CODE_C
  Relative segment, address: CODE 00002DA6 - 00002DA9 (0x4 bytes), align: 0
  Segment part 24.            Intra module refs:   FactoryWR
           ENTRY                   ADDRESS         REF BY
           =====                   =======         ======
           __Constant_fe005500     00002DA6 
    -------------------------------------------------------------------------
CODE_C
  Relative segment, address: CODE 00002DAA - 00002DAD (0x4 bytes), align: 0
  Segment part 25.            Intra module refs:   FactoryWR
           ENTRY                   ADDRESS         REF BY
           =====                   =======         ======
           __Constant_1e9          00002DAA 
    -------------------------------------------------------------------------
CODE_C
  Relative segment, address: CODE 00002DAE - 00002DB1 (0x4 bytes), align: 0
  Segment part 26.            Intra module refs:   CalPowDwTm (Dataproc)
                                                   FactoryWR
                                                   KeyPgm_DyOut (Key)
           ENTRY                   ADDRESS         REF BY
           =====                   =======         ======
           __Constant_ef3          00002DAE 
    -------------------------------------------------------------------------
CODE_C
  Relative segment, address: CODE 00002DB2 - 00002DB5 (0x4 bytes), align: 0
  Segment part 27.            Intra module refs:   FactoryWR
           ENTRY                   ADDRESS         REF BY
           =====                   =======         ======
           __Constant_fe00aa00     00002DB2 
    -------------------------------------------------------------------------
CODE_C
  Relative segment, address: CODE 00002DB6 - 00002DB9 (0x4 bytes), align: 0
  Segment part 28.            Intra module refs:   FactoryWR
           ENTRY                   ADDRESS         REF BY
           =====                   =======         ======
           __Constant_4f520000     00002DB6 
    -------------------------------------------------------------------------
CODE_C
  Relative segment, address: CODE 00002DBA - 00002DBD (0x4 bytes), align: 0
  Segment part 29.            Intra module refs:   EnyB_AutoChkAngle (EnergyBottom)
                                                   EnyB_AutoChkPW (EnergyBottom)
                                                   FactoryWR
           ENTRY                   ADDRESS         REF BY
           =====                   =======         ======
           __Constant_190          00002DBA 
    -------------------------------------------------------------------------
CODE_C
  Relative segment, address: CODE 00002DBE - 00002DC1 (0x4 bytes), align: 0
  Segment part 30.            Intra module refs:   FactoryWR
           ENTRY                   ADDRESS         REF BY
           =====                   =======         ======
           __Constant_4f520001     00002DBE 
    -------------------------------------------------------------------------
CODE_C
  Relative segment, address: CODE 00002DC2 - 00002DC5 (0x4 bytes), align: 0
  Segment part 31.            Intra module refs:   FactoryWR
           ENTRY                   ADDRESS         REF BY
           =====                   =======         ======
           __Constant_2055ff00     00002DC2 
    -------------------------------------------------------------------------
CODE_C
  Relative segment, address: CODE 00002DC6 - 00002DC9 (0x4 bytes), align: 0
  Segment part 32.            Intra module refs:   FactoryWR
           ENTRY                   ADDRESS         REF BY
           =====                   =======         ======
           __Constant_2055ff55     00002DC6 
    -------------------------------------------------------------------------
CODE_C
  Relative segment, address: CODE 00002DCA - 00002DCD (0x4 bytes), align: 0
  Segment part 33.            Intra module refs:   FactoryWR
           ENTRY                   ADDRESS         REF BY
           =====                   =======         ======
           __Constant_20000001     00002DCA 
    -------------------------------------------------------------------------
CODE_C
  Relative segment, address: CODE 00002DCE - 00002DD1 (0x4 bytes), align: 0
  Segment part 34.            Intra module refs:   FactoryWR
           ENTRY                   ADDRESS         REF BY
           =====                   =======         ======
           __Constant_20000003     00002DCE 
    -------------------------------------------------------------------------
CODE_C
  Relative segment, address: CODE 00002DD2 - 00002DD5 (0x4 bytes), align: 0
  Segment part 35.            Intra module refs:   FactoryWR
           ENTRY                   ADDRESS         REF BY
           =====                   =======         ======
           __Constant_20000004     00002DD2 
    -------------------------------------------------------------------------
CODE_C
  Relative segment, address: CODE 00002DD6 - 00002DD9 (0x4 bytes), align: 0
  Segment part 36.            Intra module refs:   FactoryWR
           ENTRY                   ADDRESS         REF BY
           =====                   =======         ======
           __Constant_20000006     00002DD6 
    -------------------------------------------------------------------------
CODE_C
  Relative segment, address: CODE 00002DDA - 00002DDD (0x4 bytes), align: 0
  Segment part 37.            Intra module refs:   FactoryWR
           ENTRY                   ADDRESS         REF BY
           =====                   =======         ======
           __Constant_20000007     00002DDA 
    -------------------------------------------------------------------------
CODE_C
  Relative segment, address: CODE 00002DDE - 00002DE1 (0x4 bytes), align: 0
  Segment part 38.            Intra module refs:   FactoryWR
           ENTRY                   ADDRESS         REF BY
           =====                   =======         ======
           __Constant_20000008     00002DDE 
    -------------------------------------------------------------------------
CODE_C
  Relative segment, address: CODE 00002DE2 - 00002DE5 (0x4 bytes), align: 0
  Segment part 39.            Intra module refs:   FactoryWR
           ENTRY                   ADDRESS         REF BY
           =====                   =======         ======
           __Constant_20000030     00002DE2 
    -------------------------------------------------------------------------
CODE_C
  Relative segment, address: CODE 00002DE6 - 00002DE9 (0x4 bytes), align: 0
  Segment part 40.            Intra module refs:   FactoryWR
           ENTRY                   ADDRESS         REF BY
           =====                   =======         ======
           __Constant_20000040     00002DE6 
    -------------------------------------------------------------------------
CODE_C
  Relative segment, address: CODE 00002DEA - 00002DED (0x4 bytes), align: 0
  Segment part 41.            Intra module refs:   MidFindID
           ENTRY                   ADDRESS         REF BY
           =====                   =======         ======
           __Constant_ff00ffff     00002DEA 
    -------------------------------------------------------------------------
CODE_C
  Relative segment, address: CODE 00002DEE - 00002DF1 (0x4 bytes), align: 0
  Segment part 43.            Intra module refs:   ChangePassWord
           ENTRY                   ADDRESS         REF BY
           =====                   =======         ======
           __Constant_4000c03      00002DEE 
    -------------------------------------------------------------------------
CODE_C
  Relative segment, address: CODE 00002DF2 - 00002DF5 (0x4 bytes), align: 0
  Segment part 44.            Intra module refs:   ChangePassWord
           ENTRY                   ADDRESS         REF BY
           =====                   =======         ======
           __Constant_4000c05      00002DF2 
    -------------------------------------------------------------------------
CODE_C
  Relative segment, address: CODE 00002DF6 - 00002DF9 (0x4 bytes), align: 0
  Segment part 45.            Intra module refs:   BroadcastTime
                                                   ComRWE2Para
                                                   EnergyCBRManage (Energy)
                                                   ProJL (PrologFee)
                                                   RecoverJSRData (Dataproc)
           ENTRY                   ADDRESS         REF BY
           =====                   =======         ======
           __Constant_db           00002DF6 
    -------------------------------------------------------------------------
CODE_C
  Relative segment, address: CODE 00002DFA - 00002DFD (0x4 bytes), align: 0
  Segment part 46.            Intra module refs:   BroadcastTime
                                                   CheckTime (Timeproc)
           ENTRY                   ADDRESS         REF BY
           =====                   =======         ======
           __Constant_12d          00002DFA 
    -------------------------------------------------------------------------
CODE_C
  Relative segment, address: CODE 00002DFE - 00002E01 (0x4 bytes), align: 0
  Segment part 47.            Intra module refs:   ReadAccuEgy
                                                   ReadCurEgy
                                                   ReadEnyD0Block
                                                   ReadHisEgy
                                                   ReadZHLYEgy
           ENTRY                   ADDRESS         REF BY
           =====                   =======         ======
           __Constant_80000001     00002DFE 
    -------------------------------------------------------------------------
CODE_C
  Relative segment, address: CODE 00002E02 - 00002E05 (0x4 bytes), align: 0
  Segment part 48.            Intra module refs:   Com_ClearMeterJL (Event)
                                                   CoverCloseLog (Event)
                                                   CoverOpenLog (Event)
                                                   EnyB_AutoChkAngle (EnergyBottom)
                                                   EnyB_AutoChkPW (EnergyBottom)
                                                   EnyB_AutoChkUrms (EnergyBottom)
                                                   Ldc_DataProc (LoadCurve)
                                                   ReadAccuEgy
                                                   ReadCurEgy
                                                   ReadEnyD0Block
                                                   ReadHisEgy
                                                   ReadZHLYEgy
                                                   RecoverDayDjData (Dataproc)
                                                   RecoverEnegyData (Dataproc)
                                                   StructFreezeDate (Event)
           ENTRY                   ADDRESS         REF BY
           =====                   =======         ======
           __Constant_a            00002E02 
    -------------------------------------------------------------------------
CODE_C
  Relative segment, address: CODE 00002E06 - 00002E09 (0x4 bytes), align: 0
  Segment part 49.            Intra module refs:   Data_ClearMeter (Dataproc)
                                                   MonthLYDL (Energy)
                                                   ReadZHLYEgy
           ENTRY                   ADDRESS         REF BY
           =====                   =======         ======
           __Constant_f00          00002E06 
    -------------------------------------------------------------------------
CODE_C
  Relative segment, address: CODE 00002E0A - 00002E0D (0x4 bytes), align: 0
  Segment part 50.            Intra module refs:   ReadCurEgy
                                                   ReadEnyD0Block
                                                   ReadHisEgy
                                                   ShowNumManage (Lcdshow)
           ENTRY                   ADDRESS         REF BY
           =====                   =======         ======
           __Constant_7fffffff     00002E0A 
    -------------------------------------------------------------------------
CODE_C
  Relative segment, address: CODE 00002E0E - 00002E11 (0x4 bytes), align: 0
  Segment part 51.            Intra module refs:   ReadCurEgy
                                                   ReadEnyD0Block
                                                   ReadHisEgy
                                                   ShowNumManage (Lcdshow)
           ENTRY                   ADDRESS         REF BY
           =====                   =======         ======
           __Constant_80000000     00002E0E 
    -------------------------------------------------------------------------
CODE_C
  Relative segment, address: CODE 00002E12 - 00002E15 (0x4 bytes), align: 0
  Segment part 52.            Intra module refs:   CalRMS (EnergyBottom)
                                                   DataProcEvCountAdd (Dataproc)
                                                   EnyB_Check_PowRev (EnergyBottom)
                                                   GetBat (McuDrive)
                                                   LoadCurveCheck (LoadCurve)
                                                   Mcu_BatCal (McuDrive)
                                                   PMDspInit (EnergyBottom)
                                                   ReadEnyD0Block
                                                   ReadHisEgy
                                                   sqrt (?sqrt)
           ENTRY                   ADDRESS         REF BY
           =====                   =======         ======
           __Constant_1            00002E12 
    -------------------------------------------------------------------------
CODE_C
  Relative segment, address: CODE 00002E16 - 00002E19 (0x4 bytes), align: 0
  Segment part 53.            Intra module refs:   ComRWE2Para
           ENTRY                   ADDRESS         REF BY
           =====                   =======         ======
           __Constant_4000705      00002E16 
    -------------------------------------------------------------------------
CODE_C
  Relative segment, address: CODE 00002E1A - 00002E1D (0x4 bytes), align: 0
  Segment part 54.            Intra module refs:   ComRWE2Para
           ENTRY                   ADDRESS         REF BY
           =====                   =======         ======
           __Constant_4000b00      00002E1A 
    -------------------------------------------------------------------------
CODE_C
  Relative segment, address: CODE 00002E1E - 00002E21 (0x4 bytes), align: 0
  Segment part 55.            Intra module refs:   ComRWE2Para
           ENTRY                   ADDRESS         REF BY
           =====                   =======         ======
           __Constant_4000601      00002E1E 
    -------------------------------------------------------------------------
CODE_C
  Relative segment, address: CODE 00002E22 - 00002E25 (0x4 bytes), align: 0
  Segment part 56.            Intra module refs:   ComRWE2Para
           ENTRY                   ADDRESS         REF BY
           =====                   =======         ======
           __Constant_4000a01      00002E22 
    -------------------------------------------------------------------------
CODE_C
  Relative segment, address: CODE 00002E26 - 00002E29 (0x4 bytes), align: 0
  Segment part 57.            Intra module refs:   ReadJL
           ENTRY                   ADDRESS         REF BY
           =====                   =======         ======
           __Constant_3300100      00002E26 
    -------------------------------------------------------------------------
CODE_C
  Relative segment, address: CODE 00002E2A - 00002E2D (0x4 bytes), align: 0
  Segment part 58.            Intra module refs:   ReadJL
           ENTRY                   ADDRESS         REF BY
           =====                   =======         ======
           __Constant_3300d00      00002E2A 
    -------------------------------------------------------------------------
CODE_C
  Relative segment, address: CODE 00002E2E - 00002E31 (0x4 bytes), align: 0
  Segment part 59.            Intra module refs:   RwSysTime
           ENTRY                   ADDRESS         REF BY
           =====                   =======         ======
           __Constant_4000101      00002E2E 
    -------------------------------------------------------------------------
CODE_C
  Relative segment, address: CODE 00002E32 - 00002E35 (0x4 bytes), align: 0
  Segment part 60.            Intra module refs:   RwSysTime
           ENTRY                   ADDRESS         REF BY
           =====                   =======         ======
           __Constant_4000102      00002E32 
    -------------------------------------------------------------------------
CODE_C
  Relative segment, address: CODE 00002E36 - 00002E39 (0x4 bytes), align: 0
  Segment part 61.            Intra module refs:   RwSysTime
           ENTRY                   ADDRESS         REF BY
           =====                   =======         ======
           __Constant_400010c      00002E36 
    -------------------------------------------------------------------------
CODE_C
  Relative segment, address: CODE 00002E3A - 00002E3D (0x4 bytes), align: 0
  Segment part 63.            Intra module refs:   BgCtrFun (McuDrive)
                                                   IrShowLcd
                                                   KeyScan (Key)
                                                   PowUpLedCtl (McuDrive)
                                                   Uart2_Receive (Uart2)
           ENTRY                   ADDRESS         REF BY
           =====                   =======         ======
           __Constant_605          00002E3A 
    -------------------------------------------------------------------------
CODE_C
  Relative segment, address: CODE 00002E3E - 00002E41 (0x4 bytes), align: 0
  Segment part 64.            Intra module refs:   IrShowLcd
           ENTRY                   ADDRESS         REF BY
           =====                   =======         ======
           __Constant_4000401      00002E3E 
    -------------------------------------------------------------------------
CODE_C
  Relative segment, address: CODE 00002E42 - 00002E45 (0x4 bytes), align: 0
  Segment part 65.            Intra module refs:   IrShowLcd
           ENTRY                   ADDRESS         REF BY
           =====                   =======         ======
           __Constant_4000402      00002E42 
    -------------------------------------------------------------------------
CODE_C
  Relative segment, address: CODE 00002E46 - 00002E49 (0x4 bytes), align: 0
  Segment part 66.            Intra module refs:   IrShowLcd
           ENTRY                   ADDRESS         REF BY
           =====                   =======         ======
           __Constant_400040e      00002E46 
    -------------------------------------------------------------------------
CODE_C
  Relative segment, address: CODE 00002E4A - 00002E4D (0x4 bytes), align: 0
  Segment part 67.            Intra module refs:   BgCtrFun (McuDrive)
                                                   IrShowLcd
                                                   KeyScan (Key)
                                                   PowUpLedCtl (McuDrive)
                                                   Uart2_Receive (Uart2)
           ENTRY                   ADDRESS         REF BY
           =====                   =======         ======
           __Constant_596          00002E4A 
    -------------------------------------------------------------------------
CODE_C
  Relative segment, address: CODE 00002E4E - 00002E51 (0x4 bytes), align: 0
  Segment part 68.            Intra module refs:   ReadHisJSTime
           ENTRY                   ADDRESS         REF BY
           =====                   =======         ======
           __Constant_4580         00002E4E 
    -------------------------------------------------------------------------
CODE_C
  Relative segment, address: CODE 00002E52 - 00002E55 (0x4 bytes), align: 0
  Segment part 69.            Intra module refs:   ReadHisJSTime
           ENTRY                   ADDRESS         REF BY
           =====                   =======         ======
           __Constant_4581         00002E52 
    -------------------------------------------------------------------------
CODE_C
  Relative segment, address: CODE 00002E56 - 00002E59 (0x4 bytes), align: 0
  Segment part 70.            Intra module refs:   CmpCode
           ENTRY                   ADDRESS         REF BY
           =====                   =======         ======
           __Constant_7800200      00002E56 
    -------------------------------------------------------------------------
CODE_C
  Relative segment, address: CODE 00002E5A - 00002E5D (0x4 bytes), align: 0
  Segment part 72.            Intra module refs:   CmpCode
                                                   ShowStateManage (Lcdshow)
           ENTRY                   ADDRESS         REF BY
           =====                   =======         ======
           __Constant_80           00002E5A 
    -------------------------------------------------------------------------
CODE_C
  Relative segment, address: CODE 00002E5E - 00002E61 (0x4 bytes), align: 0
  Segment part 73.            Intra module refs:   Decode645Frame (Prcfrm)
                                                   Report
           ENTRY                   ADDRESS         REF BY
           =====                   =======         ======
           __Constant_4001503      00002E5E 
    -------------------------------------------------------------------------
BANK_RELAYS
  Relative segment, address: CODE 00000F1C - 00000F21 (0x6 bytes), align: 0
  Segment part 75.
           ENTRY                   ADDRESS         REF BY
           =====                   =======         ======
           ReadMeterAddr::?relay   00000F1C        gs_CmdProc (Prcfrm)
    -------------------------------------------------------------------------
BANK_RELAYS
  Relative segment, address: CODE 00000F22 - 00000F27 (0x6 bytes), align: 0
  Segment part 77.
           ENTRY                   ADDRESS         REF BY
           =====                   =======         ======
           WriteMeterAddr::?relay
                                   00000F22        gs_CmdProc (Prcfrm)
    -------------------------------------------------------------------------
BANK_RELAYS
  Relative segment, address: CODE 00000F28 - 00000F2D (0x6 bytes), align: 0
  Segment part 79.
           ENTRY                   ADDRESS         REF BY
           =====                   =======         ======
           RWData::?relay          00000F28        ShowDataProc (Lcdshow)
                                                   gs_CmdProc (Prcfrm)
    -------------------------------------------------------------------------
BANK_RELAYS
  Relative segment, address: CODE 00000F2E - 00000F33 (0x6 bytes), align: 0
  Segment part 81.
           ENTRY                   ADDRESS         REF BY
           =====                   =======         ======
           FactoryRD::?relay       00000F2E        gs_CmdProc (Prcfrm)
    -------------------------------------------------------------------------
BANK_RELAYS
  Relative segment, address: CODE 00000F34 - 00000F39 (0x6 bytes), align: 0
  Segment part 83.
           ENTRY                   ADDRESS         REF BY
           =====                   =======         ======
           FactoryWR::?relay       00000F34        gs_CmdProc (Prcfrm)
    -------------------------------------------------------------------------
BANK_RELAYS
  Relative segment, address: CODE 00000F3A - 00000F3F (0x6 bytes), align: 0
  Segment part 85.            Intra module refs:   RWData
           ENTRY                   ADDRESS         REF BY
           =====                   =======         ======
           MidFindID::?relay       00000F3A 
    -------------------------------------------------------------------------
BANK_RELAYS
  Relative segment, address: CODE 00000F40 - 00000F45 (0x6 bytes), align: 0
  Segment part 87.
           ENTRY                   ADDRESS         REF BY
           =====                   =======         ======
           ChangePassWord::?relay
                                   00000F40        gs_CmdProc (Prcfrm)
    -------------------------------------------------------------------------
BANK_RELAYS
  Relative segment, address: CODE 00000F46 - 00000F4B (0x6 bytes), align: 0
  Segment part 89.
           ENTRY                   ADDRESS         REF BY
           =====                   =======         ======
           ChangeBode::?relay      00000F46        gs_CmdProc (Prcfrm)
    -------------------------------------------------------------------------
BANK_RELAYS
  Relative segment, address: CODE 00000F4C - 00000F51 (0x6 bytes), align: 0
  Segment part 91.
           ENTRY                   ADDRESS         REF BY
           =====                   =======         ======
           ClearMeter::?relay      00000F4C        gs_CmdProc (Prcfrm)
    -------------------------------------------------------------------------
BANK_RELAYS
  Relative segment, address: CODE 00000F52 - 00000F57 (0x6 bytes), align: 0
  Segment part 93.
           ENTRY                   ADDRESS         REF BY
           =====                   =======         ======
           ClearEvent::?relay      00000F52        gs_CmdProc (Prcfrm)
    -------------------------------------------------------------------------
BANK_RELAYS
  Relative segment, address: CODE 00000F58 - 00000F5D (0x6 bytes), align: 0
  Segment part 95.
           ENTRY                   ADDRESS         REF BY
           =====                   =======         ======
           BroadcastTime::?relay   00000F58        gs_CmdProc (Prcfrm)
    -------------------------------------------------------------------------
BANK_RELAYS
  Relative segment, address: CODE 00000F5E - 00000F63 (0x6 bytes), align: 0
  Segment part 97.
           ENTRY                   ADDRESS         REF BY
           =====                   =======         ======
           Freeze::?relay          00000F5E        gs_CmdProc (Prcfrm)
    -------------------------------------------------------------------------
BANK_RELAYS
  Relative segment, address: CODE 00000F64 - 00000F69 (0x6 bytes), align: 0
  Segment part 99.
           ENTRY                   ADDRESS         REF BY
           =====                   =======         ======
           RwSqSd::?relay          00000F64        FunList (ComCoretab)
    -------------------------------------------------------------------------
BANK_RELAYS
  Relative segment, address: CODE 00000F6A - 00000F6F (0x6 bytes), align: 0
  Segment part 101.
           ENTRY                   ADDRESS         REF BY
           =====                   =======         ======
           ComReadRunCode::?relay
                                   00000F6A        FunList (ComCoretab)
    -------------------------------------------------------------------------
BANK_RELAYS
  Relative segment, address: CODE 00000F70 - 00000F75 (0x6 bytes), align: 0
  Segment part 103.
           ENTRY                   ADDRESS         REF BY
           =====                   =======         ======
           SecPulsCtrl::?relay     00000F70        gs_CmdProc (Prcfrm)
    -------------------------------------------------------------------------
BANK_RELAYS
  Relative segment, address: CODE 00000F76 - 00000F7B (0x6 bytes), align: 0
  Segment part 105.
           ENTRY                   ADDRESS         REF BY
           =====                   =======         ======
           ReadAccuEgy::?relay     00000F76        FunList (ComCoretab)
    -------------------------------------------------------------------------
BANK_RELAYS
  Relative segment, address: CODE 00000F7C - 00000F81 (0x6 bytes), align: 0
  Segment part 107.
           ENTRY                   ADDRESS         REF BY
           =====                   =======         ======
           ReadZHLYEgy::?relay     00000F7C        FunList (ComCoretab)
    -------------------------------------------------------------------------
BANK_RELAYS
  Relative segment, address: CODE 00000F82 - 00000F87 (0x6 bytes), align: 0
  Segment part 109.
           ENTRY                   ADDRESS         REF BY
           =====                   =======         ======
           ReadCurEgy::?relay      00000F82        FunList (ComCoretab)
    -------------------------------------------------------------------------
BANK_RELAYS
  Relative segment, address: CODE 00000F88 - 00000F8D (0x6 bytes), align: 0
  Segment part 111.
           ENTRY                   ADDRESS         REF BY
           =====                   =======         ======
           ReadHisEgy::?relay      00000F88        FunList (ComCoretab)
    -------------------------------------------------------------------------
BANK_RELAYS
  Relative segment, address: CODE 00000F8E - 00000F93 (0x6 bytes), align: 0
  Segment part 113.
           ENTRY                   ADDRESS         REF BY
           =====                   =======         ======
           ReadEnyD0Block::?relay
                                   00000F8E        FunList (ComCoretab)
    -------------------------------------------------------------------------
BANK_RELAYS
  Relative segment, address: CODE 00000F94 - 00000F99 (0x6 bytes), align: 0
  Segment part 115.
           ENTRY                   ADDRESS         REF BY
           =====                   =======         ======
           ComRWE2Para::?relay     00000F94        FunList (ComCoretab)
    -------------------------------------------------------------------------
BANK_RELAYS
  Relative segment, address: CODE 00000F9A - 00000F9F (0x6 bytes), align: 0
  Segment part 117.
           ENTRY                   ADDRESS         REF BY
           =====                   =======         ======
           WrPassWord::?relay      00000F9A        FunList (ComCoretab)
    -------------------------------------------------------------------------
BANK_RELAYS
  Relative segment, address: CODE 00000FA0 - 00000FA5 (0x6 bytes), align: 0
  Segment part 119.
           ENTRY                   ADDRESS         REF BY
           =====                   =======         ======
           ComMeterConst::?relay   00000FA0        FunList (ComCoretab)
    -------------------------------------------------------------------------
BANK_RELAYS
  Relative segment, address: CODE 00000FA6 - 00000FAB (0x6 bytes), align: 0
  Segment part 121.
           ENTRY                   ADDRESS         REF BY
           =====                   =======         ======
           ComRdEvCnt::?relay      00000FA6        FunList (ComCoretab)
    -------------------------------------------------------------------------
BANK_RELAYS
  Relative segment, address: CODE 00000FAC - 00000FB1 (0x6 bytes), align: 0
  Segment part 123.
           ENTRY                   ADDRESS         REF BY
           =====                   =======         ======
           RwGGJR::?relay          00000FAC        FunList (ComCoretab)
    -------------------------------------------------------------------------
BANK_RELAYS
  Relative segment, address: CODE 00000FB2 - 00000FB7 (0x6 bytes), align: 0
  Segment part 125.
           ENTRY                   ADDRESS         REF BY
           =====                   =======         ======
           FunToBeDef::?relay      00000FB2        FunList (ComCoretab)
    -------------------------------------------------------------------------
BANK_RELAYS
  Relative segment, address: CODE 00000FB8 - 00000FBD (0x6 bytes), align: 0
  Segment part 127.
           ENTRY                   ADDRESS         REF BY
           =====                   =======         ======
           ReadJL::?relay          00000FB8        FunList (ComCoretab)
    -------------------------------------------------------------------------
BANK_RELAYS
  Relative segment, address: CODE 00000FBE - 00000FC3 (0x6 bytes), align: 0
  Segment part 129.
           ENTRY                   ADDRESS         REF BY
           =====                   =======         ======
           RwDjData::?relay        00000FBE        FunList (ComCoretab)
    -------------------------------------------------------------------------
BANK_RELAYS
  Relative segment, address: CODE 00000FC4 - 00000FC9 (0x6 bytes), align: 0
  Segment part 131.
           ENTRY                   ADDRESS         REF BY
           =====                   =======         ======
           RwLcdData::?relay       00000FC4        FunList (ComCoretab)
    -------------------------------------------------------------------------
BANK_RELAYS
  Relative segment, address: CODE 00000FCA - 00000FCF (0x6 bytes), align: 0
  Segment part 133.
           ENTRY                   ADDRESS         REF BY
           =====                   =======         ======
           RwSysTime::?relay       00000FCA        FunList (ComCoretab)
    -------------------------------------------------------------------------
BANK_RELAYS
  Relative segment, address: CODE 00000FD0 - 00000FD5 (0x6 bytes), align: 0
  Segment part 135.
           ENTRY                   ADDRESS         REF BY
           =====                   =======         ======
           RwRamE2::?relay         00000FD0        FunList (ComCoretab)
    -------------------------------------------------------------------------
BANK_RELAYS
  Relative segment, address: CODE 00000FD6 - 00000FDB (0x6 bytes), align: 0
  Segment part 137.
           ENTRY                   ADDRESS         REF BY
           =====                   =======         ======
           ReadVar::?relay         00000FD6        FunList (ComCoretab)
    -------------------------------------------------------------------------
BANK_RELAYS
  Relative segment, address: CODE 00000FDC - 00000FE1 (0x6 bytes), align: 0
  Segment part 139.
           ENTRY                   ADDRESS         REF BY
           =====                   =======         ======
           IrShowLcd::?relay       00000FDC        FunList (ComCoretab)
    -------------------------------------------------------------------------
BANK_RELAYS
  Relative segment, address: CODE 00000FE2 - 00000FE7 (0x6 bytes), align: 0
  Segment part 141.
           ENTRY                   ADDRESS         REF BY
           =====                   =======         ======
           ReadSwVersion::?relay   00000FE2        FunList (ComCoretab)
    -------------------------------------------------------------------------
BANK_RELAYS
  Relative segment, address: CODE 00000FE8 - 00000FED (0x6 bytes), align: 0
  Segment part 143.
           ENTRY                   ADDRESS         REF BY
           =====                   =======         ======
           ReadHisJSTime::?relay   00000FE8        FunList (ComCoretab)
    -------------------------------------------------------------------------
BANK_RELAYS
  Relative segment, address: CODE 00000FEE - 00000FF3 (0x6 bytes), align: 0
  Segment part 145.
           ENTRY                   ADDRESS         REF BY
           =====                   =======         ======
           CmpCode::?relay         00000FEE        gs_CmdProc (Prcfrm)
    -------------------------------------------------------------------------
BANK_RELAYS
  Relative segment, address: CODE 00000FF4 - 00000FF9 (0x6 bytes), align: 0
  Segment part 147.           Intra module refs:   RWData
           ENTRY                   ADDRESS         REF BY
           =====                   =======         ======
           Report::?relay          00000FF4        FunList (ComCoretab)
    -------------------------------------------------------------------------
BANK_RELAYS
  Relative segment, address: CODE 00000FFA - 00000FFF (0x6 bytes), align: 0
  Segment part 149.           Intra module refs:   ReadCurveJl
           ENTRY                   ADDRESS         REF BY
           =====                   =======         ======
           Ldc_ReadType::?relay    00000FFA 
    -------------------------------------------------------------------------
BANK_RELAYS
  Relative segment, address: CODE 00001000 - 00001005 (0x6 bytes), align: 0
  Segment part 151.
           ENTRY                   ADDRESS         REF BY
           =====                   =======         ======
           ReadCurveJl::?relay     00001000        FunList (ComCoretab)

    *************************************************************************

  FILE NAME : F:\SVN\06solution\Projects\农网\D105\Sw\Debug\Obj\DataProtect.r51
  PROGRAM MODULE, NAME : DataProtect

  SEGMENTS IN THE MODULE
  ======================
XDATA_Z
  Relative segment, address: XDATA 00000657 - 0000065A (0x4 bytes), align: 0
  Segment part 6.             Intra module refs:   DataSecurityInit
                                                   E2ParaCheck
                                                   SysE2ReadData
           ENTRY                   ADDRESS         REF BY
           =====                   =======         ======
           gul_E2ParaStt           00000657 
    -------------------------------------------------------------------------
XDATA_Z
  Relative segment, address: XDATA 0000065B - 0000065B (0x1 bytes), align: 0
  Segment part 7.
           ENTRY                   ADDRESS         REF BY
           =====                   =======         ======
           guc_RtcConflict         0000065B        EnyB_Open_Cf (EnergyBottom)
                                                   Init_Var (main)
    -------------------------------------------------------------------------
CODE_C
  Relative segment, address: CODE 00002E62 - 00002E7C (0x1b bytes), align: 0
  Segment part 8.             Intra module refs:   E2ParaCheck
                                                   SysE2ParaSetManage
           ENTRY                   ADDRESS         REF BY
           =====                   =======         ======
           gCs_E2ParaChkTab        00002E62 
    -------------------------------------------------------------------------
<BANKED_CODE> 2 (was BANKED_CODE)
  Relative segment, address: CODE 0000EF54 - 0000EF78 (0x25 bytes), align: 0
  Segment part 10.            Intra module refs:   GetE2Type::?relay
           ENTRY                   ADDRESS         REF BY
           =====                   =======         ======
           GetE2Type               0000EF54 
               XSTACK = 00000099 ( 00000000 )
               ISTACK = 00000000 ( 00000002 )
    -------------------------------------------------------------------------
<BANKED_CODE> 2 (was BANKED_CODE)
  Relative segment, address: CODE 0000EF79 - 0000EF97 (0x1f bytes), align: 0
  Segment part 12.            Intra module refs:   DataSecurityInit::?relay
           ENTRY                   ADDRESS         REF BY
           =====                   =======         ======
           DataSecurityInit        0000EF79 
               is not allocated
               not allocated function
    -------------------------------------------------------------------------
<BANKED_CODE> 2 (was BANKED_CODE)
  Relative segment, address: CODE 0000EF98 - 0000F1F3 (0x25c bytes), align: 0
  Segment part 14.            Intra module refs:   E2ParaCheck::?relay
           ENTRY                   ADDRESS         REF BY
           =====                   =======         ======
           E2ParaCheck             0000EF98 
               calls direct, is not allocated
               not allocated function
    -------------------------------------------------------------------------
<BANKED_CODE> 2 (was BANKED_CODE)
  Relative segment, address: CODE 0000F1F4 - 0000F44B (0x258 bytes), align: 0
  Segment part 16.            Intra module refs:   SysE2ParaSetManage::?relay
           ENTRY                   ADDRESS         REF BY
           =====                   =======         ======
           SysE2ParaSetManage      0000F1F4 
               calls direct
               XSTACK = 00000000 ( 0000009B )
               ISTACK = 00000000 ( 00000002 )
    -------------------------------------------------------------------------
<BANKED_CODE> 2 (was BANKED_CODE)
  Relative segment, address: CODE 0000F44C - 0000F4DE (0x93 bytes), align: 0
  Segment part 18.            Intra module refs:   SysE2ReadData::?relay
           ENTRY                   ADDRESS         REF BY
           =====                   =======         ======
           SysE2ReadData           0000F44C 
               calls direct
               XSTACK = 00000000 ( 00000013 )
    -------------------------------------------------------------------------
<BANKED_CODE> 2 (was BANKED_CODE)
  Relative segment, address: CODE 0000F4DF - 0000F523 (0x45 bytes), align: 0
  Segment part 20.            Intra module refs:   DataCheck::?relay
           ENTRY                   ADDRESS         REF BY
           =====                   =======         ======
           DataCheck               0000F4DF 
               is not allocated
               not allocated function
    -------------------------------------------------------------------------
CODE_C
  Relative segment, address: CODE 00002E7D - 00002E88 (0xc bytes), align: 0
  Segment part 9.             Intra module refs:   CheckSqFormat
           ENTRY                   ADDRESS         REF BY
           =====                   =======         ======
           SQDateTable             00002E7D 
    -------------------------------------------------------------------------
<BANKED_CODE> 2 (was BANKED_CODE)
  Relative segment, address: CODE 0000F524 - 0000F63A (0x117 bytes), align: 0
  Segment part 24.            Intra module refs:   CheckSqFormat::?relay
           ENTRY                   ADDRESS         REF BY
           =====                   =======         ======
           CheckSqFormat           0000F524 
               calls direct
               XSTACK = 00000018 ( 00000010 )
    -------------------------------------------------------------------------
<BANKED_CODE> 2 (was BANKED_CODE)
  Relative segment, address: CODE 0000F63B - 0000F69D (0x63 bytes), align: 0
  Segment part 26.            Intra module refs:   CheckSdFormat::?relay
           ENTRY                   ADDRESS         REF BY
           =====                   =======         ======
           CheckSdFormat           0000F63B 
               calls direct
               XSTACK = 00000018 ( 00000009 )
    -------------------------------------------------------------------------
<BANKED_CODE> 2 (was BANKED_CODE)
  Relative segment, address: CODE 0000F69E - 0000FBA4 (0x507 bytes), align: 0
  Segment part 28.            Intra module refs:   ComCheckFormat::?relay
           ENTRY                   ADDRESS         REF BY
           =====                   =======         ======
           ComCheckFormat          0000F69E 
               calls direct
               XSTACK = 00000000 ( 00000018 )
    -------------------------------------------------------------------------
BANK_RELAYS
  Relative segment, address: CODE 00001006 - 0000100B (0x6 bytes), align: 0
  Segment part 11.            Intra module refs:   SysE2ParaSetManage
                                                   SysE2ReadData
           ENTRY                   ADDRESS         REF BY
           =====                   =======         ======
           GetE2Type::?relay       00001006 
    -------------------------------------------------------------------------
BANK_RELAYS
  Relative segment, address: CODE 0000100C - 00001011 (0x6 bytes), align: 0
  Segment part 13.
           ENTRY                   ADDRESS         REF BY
           =====                   =======         ======
           DataSecurityInit::?relay
                                   0000100C        main (main)
    -------------------------------------------------------------------------
BANK_RELAYS
  Relative segment, address: CODE 00001012 - 00001017 (0x6 bytes), align: 0
  Segment part 15.
           ENTRY                   ADDRESS         REF BY
           =====                   =======         ======
           E2ParaCheck::?relay     00001012        Data_MinProc (Dataproc)
    -------------------------------------------------------------------------
BANK_RELAYS
  Relative segment, address: CODE 00001018 - 0000101D (0x6 bytes), align: 0
  Segment part 17.
           ENTRY                   ADDRESS         REF BY
           =====                   =======         ======
           SysE2ParaSetManage::?relay
                                   00001018        CalPowDwTm (Dataproc)
                                                   ChangeBode (DLT_645_2007)
                                                   ChangePassWord (DLT_645_2007)
                                                   ComRWE2Para (DLT_645_2007)
                                                   Data_FactoryClr (Dataproc)
                                                   EnyB_AutoCheck (EnergyBottom)
                                                   EnyB_AutoChkAngle (EnergyBottom)
                                                   FactoryWR (DLT_645_2007)
                                                   Freeze (DLT_645_2007)
                                                   IsNumSD (Multariff)
                                                   IsNumSQ (Multariff)
                                                   KeyPgm_DyOut (Key)
                                                   RtcParaFsToE2 (RtcCpt)
                                                   RwSqSd (DLT_645_2007)
                                                   WrPassWord (DLT_645_2007)
                                                   WriteMeterAddr (DLT_645_2007)
    -------------------------------------------------------------------------
BANK_RELAYS
  Relative segment, address: CODE 0000101E - 00001023 (0x6 bytes), align: 0
  Segment part 19.
           ENTRY                   ADDRESS         REF BY
           =====                   =======         ======
           SysE2ReadData::?relay   0000101E        ChangeBodeProc (McuDrive)
                                                   ComMeterConst (DLT_645_2007)
                                                   ComRWE2Para (DLT_645_2007)
                                                   ReadCurveJl (DLT_645_2007)
                                                   ReadMeterAddr (DLT_645_2007)
                                                   RecoverCfg (FunCfg)
                                                   RecoverRunPara (Dataproc)
                                                   Report (DLT_645_2007)
                                                   Rpt_Recover (Report)
                                                   ShowInitial (Lcdshow)
    -------------------------------------------------------------------------
BANK_RELAYS
  Relative segment, address: CODE 00001024 - 00001029 (0x6 bytes), align: 0
  Segment part 21.
           ENTRY                   ADDRESS         REF BY
           =====                   =======         ======
           DataCheck::?relay       00001024        RTCCheck (Timeproc)
    -------------------------------------------------------------------------
BANK_RELAYS
  Relative segment, address: CODE 0000102A - 0000102F (0x6 bytes), align: 0
  Segment part 25.            Intra module refs:   ComCheckFormat
           ENTRY                   ADDRESS         REF BY
           =====                   =======         ======
           CheckSqFormat::?relay   0000102A 
    -------------------------------------------------------------------------
BANK_RELAYS
  Relative segment, address: CODE 00001030 - 00001035 (0x6 bytes), align: 0
  Segment part 27.            Intra module refs:   ComCheckFormat
           ENTRY                   ADDRESS         REF BY
           =====                   =======         ======
           CheckSdFormat::?relay   00001030 
    -------------------------------------------------------------------------
BANK_RELAYS
  Relative segment, address: CODE 00001036 - 0000103B (0x6 bytes), align: 0
  Segment part 29.
           ENTRY                   ADDRESS         REF BY
           =====                   =======         ======
           ComCheckFormat::?relay
                                   00001036        ComRWE2Para (DLT_645_2007)
                                                   RwGGJR (DLT_645_2007)
                                                   RwSqSd (DLT_645_2007)

    *************************************************************************

  FILE NAME : F:\SVN\06solution\Projects\农网\D105\Sw\Debug\Obj\Dataproc.r51
  PROGRAM MODULE, NAME : Dataproc

  SEGMENTS IN THE MODULE
  ======================
SFR_AN
  Relative segment, address: DATA 000000CE - 000000CE (0x1 bytes), align: 0
  Segment part 1. ROOT.       Intra module refs:   CalPowDwTm
                                                   Data_ClearEvent (Event)
                                                   Data_ClearMeter
                                                   Init_Var (main)
                                                   Ldc_TimeAdd (LoadCurve)
                                                   RecoverDayDjData
                                                   RecoverJSRData
                                                   RecoverPara
                                                   main (main)
           ENTRY                   ADDRESS         REF BY
           =====                   =======         ======
           wdt0                    000000CE 
    -------------------------------------------------------------------------
SFR_AN
  Relative segment, address: DATA 000000CF - 000000CF (0x1 bytes), align: 0
  Segment part 2. ROOT.       Intra module refs:   CalPowDwTm
                                                   Data_ClearEvent (Event)
                                                   Data_ClearMeter
                                                   Init_Var (main)
                                                   Ldc_TimeAdd (LoadCurve)
                                                   RecoverDayDjData
                                                   RecoverJSRData
                                                   RecoverPara
                                                   main (main)
           ENTRY                   ADDRESS         REF BY
           =====                   =======         ======
           wdt1                    000000CF 
    -------------------------------------------------------------------------
XDATA_Z
  Relative segment, address: XDATA 0000065C - 0000065C (0x1 bytes), align: 0
  Segment part 8.
           ENTRY                   ADDRESS         REF BY
           =====                   =======         ======
           gs_SysRunSt             0000065C        CheckTime (Timeproc)
                                                   EnyB_Check_PowRev (EnergyBottom)
                                                   Init_Var (main)
                                                   SecPulsCtrl (DLT_645_2007)
                                                   Timer2Interrupt (System)
                                                   getTimeZone (Multariff)
    -------------------------------------------------------------------------
XDATA_Z
  Relative segment, address: XDATA 0000065D - 0000065D (0x1 bytes), align: 0
  Segment part 9.             Intra module refs:   Data_FactoryClr
           ENTRY                   ADDRESS         REF BY
           =====                   =======         ======
           gs_FREventOut           0000065D 
    -------------------------------------------------------------------------
XDATA_Z
  Relative segment, address: XDATA 0000065E - 0000065F (0x2 bytes), align: 0
  Segment part 10.            Intra module refs:   Data_FactoryClr
           ENTRY                   ADDRESS         REF BY
           =====                   =======         ======
           gut_SysWarn             0000065E        BE_ReadP (BEBottom)
                                                   BE_WriteP (BEBottom)
                                                   BgCtrFun (McuDrive)
                                                   CheckTime (Timeproc)
                                                   GetBat (McuDrive)
                                                   Init_Var (main)
                                                   Rpt_Recover (Report)
                                                   ShowStateManage (Lcdshow)
    -------------------------------------------------------------------------
XDATA_Z
  Relative segment, address: XDATA 00000660 - 0000069F (0x40 bytes), align: 0
  Segment part 11.            Intra module refs:   CalPowDwTm
                                                   Data_ClearMeter
                                                   Data_FactoryClr
                                                   RecoverDayDjData
                                                   RecoverEnegyData
                                                   RecoverJSRData
           ENTRY                   ADDRESS         REF BY
           =====                   =======         ======
           XDATA_RAMZONE           00000660        CmpCode (DLT_645_2007)
                                                   Com_ClearEventJL (Event)
                                                   Com_ClearMeterJL (Event)
                                                   Com_JSJL (Event)
                                                   CoverCloseLog (Event)
                                                   CoverOpenLog (Event)
                                                   Data_ClearEvent (Event)
                                                   E2ParaCheck (DataProtect)
                                                   Init_Var (main)
                                                   Ldc_DataProc (LoadCurve)
                                                   Ldc_Get1stRecord (LoadCurve)
                                                   Ldc_GetSeqRecord (LoadCurve)
                                                   Ldc_ZoneChk (LoadCurve)
                                                   LoadCurveCheck (LoadCurve)
                                                   Pow_DnProc (Powmanger)
                                                   PowerJL (Event)
                                                   ProJL (PrologFee)
                                                   RSDFrez (Event)
                                                   RSDJLlog (PrologFee)
                                                   ReadHisEgy (DLT_645_2007)
                                                   ReadHisJSTime (DLT_645_2007)
                                                   ReadJL (DLT_645_2007)
                                                   Rpt_Crc (Report)
                                                   Rpt_Recover (Report)
                                                   RtcParaFsToE2 (RtcCpt)
                                                   RwDjData (DLT_645_2007)
                                                   SQFrez (Event)
                                                   SaveProgramLog (Event)
                                                   Search1stEqualItem (LoadCurve)
                                                   SearchEqualItem (LoadCurve)
                                                   SeekDataID (PrologFee)
                                                   ShowDataProc (Lcdshow)
                                                   StructFreezeDate (Event)
    -------------------------------------------------------------------------
XDATA_Z
  Relative segment, address: XDATA 000006A0 - 0000079F (0x100 bytes), align: 0
  Segment part 12.            Intra module refs:   RecoverDayDjData
           ENTRY                   ADDRESS         REF BY
           =====                   =======         ======
           XDATA_RAMZONE1          000006A0        CmpCode (DLT_645_2007)
                                                   E2ParaCheck (DataProtect)
                                                   LoadCurveCheck (LoadCurve)
    -------------------------------------------------------------------------
XDATA_Z
  Relative segment, address: XDATA 000007A0 - 000007AD (0xe bytes), align: 0
  Segment part 13.            Intra module refs:   CalPowDwTm
                                                   Data_FactoryClr
                                                   RecoverEnegyData
           ENTRY                   ADDRESS         REF BY
           =====                   =======         ======
           gs_MeterState           000007A0        BE_ReadP (BEBottom)
                                                   BE_WriteP (BEBottom)
                                                   CalRMS (EnergyBottom)
                                                   ComReadRunCode (DLT_645_2007)
                                                   CoverKeyScan (Key)
                                                   EnyB_Check_PowRev (EnergyBottom)
                                                   EnyB_IntCF (EnergyBottom)
                                                   GetBat (McuDrive)
                                                   Init_Var (main)
                                                   IsNumSD (Multariff)
                                                   IsNumSQ (Multariff)
                                                   IsValidSQ (Multariff)
                                                   KeyPgm_DyOut (Key)
                                                   PowerJL (Event)
                                                   ShowStateManage (Lcdshow)
                                                   SleepTimeProc (Timeproc)
                                                   getFee (Multariff)
    -------------------------------------------------------------------------
XDATA_Z
  Relative segment, address: XDATA 000007AE - 000007AE (0x1 bytes), align: 0
  Segment part 14.
           ENTRY                   ADDRESS         REF BY
           =====                   =======         ======
           gs_MeterMode            000007AE        Encode645Frame (Prcfrm)
                                                   ReadCurveJl (DLT_645_2007)
                                                   ReadRSDLogItem (PrologFee)
                                                   ReadSQLogItem (PrologFee)
                                                   RecoverCfg (FunCfg)
                                                   Report (DLT_645_2007)
    -------------------------------------------------------------------------
CODE_C
  Relative segment, address: CODE 00002E89 - 00002F1B (0x93 bytes), align: 0
  Segment part 15.            Intra module refs:   DataProcRead2Slice
                                                   DataProcWriteRound2
           ENTRY                   ADDRESS         REF BY
           =====                   =======         ======
           gCs_Round2Tab           00002E89 
    -------------------------------------------------------------------------
CODE_C
  Relative segment, address: CODE 00002F1C - 00002F6F (0x54 bytes), align: 0
  Segment part 16.            Intra module refs:   DataProcEvCountAdd
           ENTRY                   ADDRESS         REF BY
           =====                   =======         ======
           gCs_EvCntAddTab         00002F1C 
    -------------------------------------------------------------------------
CODE_C
  Relative segment, address: CODE 00002F70 - 00002F93 (0x24 bytes), align: 0
  Segment part 17.            Intra module refs:   Data_ClearMeter
           ENTRY                   ADDRESS         REF BY
           =====                   =======         ======
           gCs_MeterClearAddrTab   00002F70        Data_ClearEvent (Event)
    -------------------------------------------------------------------------
CODE_C
  Relative segment, address: CODE 00002F94 - 00002FA8 (0x15 bytes), align: 0
  Segment part 18.            Intra module refs:   Data_ClearMeter
           ENTRY                   ADDRESS         REF BY
           =====                   =======         ======
           gCs_DJClearAddrTab      00002F94 
    -------------------------------------------------------------------------
XDATA_Z
  Relative segment, address: XDATA 000007AF - 000007B8 (0xa bytes), align: 0
  Segment part 19.
           ENTRY                   ADDRESS         REF BY
           =====                   =======         ======
           guc_InitWd              000007AF        FactoryWR (DLT_645_2007)
    -------------------------------------------------------------------------
XDATA_Z
  Relative segment, address: XDATA 000007B9 - 000007C2 (0xa bytes), align: 0
  Segment part 20.            Intra module refs:   Data_ClearMeter
           ENTRY                   ADDRESS         REF BY
           =====                   =======         ======
           guc_ClearWd             000007B9        ClearMeter (DLT_645_2007)
    -------------------------------------------------------------------------
XDATA_Z
  Relative segment, address: XDATA 000007C3 - 000007C6 (0x4 bytes), align: 0
  Segment part 21.            Intra module refs:   CalPowDwTm
                                                   Data_FactoryClr
           ENTRY                   ADDRESS         REF BY
           =====                   =======         ======
           gul_PowerTm             000007C3        Pow_DnProc (Powmanger)
                                                   ReadVar (DLT_645_2007)
    -------------------------------------------------------------------------
<BANKED_CODE> 1 (was BANKED_CODE)
  Relative segment, address: CODE 00005618 - 00005674 (0x5d bytes), align: 0
  Segment part 41.            Intra module refs:   RecoverRunPara::?relay
           ENTRY                   ADDRESS         REF BY
           =====                   =======         ======
           RecoverRunPara          00005618 
               calls direct, is not allocated
               not allocated function
    -------------------------------------------------------------------------
<BANKED_CODE> 1 (was BANKED_CODE)
  Relative segment, address: CODE 00005675 - 000056AA (0x36 bytes), align: 0
  Segment part 43.            Intra module refs:   RecoverPara::?relay
           ENTRY                   ADDRESS         REF BY
           =====                   =======         ======
           RecoverPara             00005675 
               calls direct, is not allocated
               not allocated function
    -------------------------------------------------------------------------
<BANKED_CODE> 1 (was BANKED_CODE)
  Relative segment, address: CODE 000056AB - 0000572D (0x83 bytes), align: 0
  Segment part 45.            Intra module refs:   CheckCRCWord::?relay
           ENTRY                   ADDRESS         REF BY
           =====                   =======         ======
           CheckCRCWord            000056AB 
               calls direct, is not allocated
               not allocated function
    -------------------------------------------------------------------------
<BANKED_CODE> 1 (was BANKED_CODE)
  Relative segment, address: CODE 0000572E - 0000574D (0x20 bytes), align: 0
  Segment part 47.            Intra module refs:   ClRCRCWord::?relay
           ENTRY                   ADDRESS         REF BY
           =====                   =======         ======
           ClRCRCWord              0000572E 
               is not allocated
               not allocated function
    -------------------------------------------------------------------------
<BANKED_CODE> 1 (was BANKED_CODE)
  Relative segment, address: CODE 0000574E - 000057B6 (0x69 bytes), align: 0
  Segment part 49.            Intra module refs:   SetCRCWord::?relay
           ENTRY                   ADDRESS         REF BY
           =====                   =======         ======
           SetCRCWord              0000574E 
               calls direct
               XSTACK = 00000000 ( 0000000C )
               ISTACK = 00000000 ( 00000001 )
    -------------------------------------------------------------------------
<BANKED_CODE> 1 (was BANKED_CODE)
  Relative segment, address: CODE 000057B7 - 0000597C (0x1c6 bytes), align: 0
  Segment part 51.            Intra module refs:   Data_FactoryClr::?relay
           ENTRY                   ADDRESS         REF BY
           =====                   =======         ======
           Data_FactoryClr         000057B7 
               calls direct, is not allocated
               not allocated function
    -------------------------------------------------------------------------
<BANKED_CODE> 1 (was BANKED_CODE)
  Relative segment, address: CODE 0000597D - 00005C6A (0x2ee bytes), align: 0
  Segment part 53.            Intra module refs:   Data_ClearMeter::?relay
           ENTRY                   ADDRESS         REF BY
           =====                   =======         ======
           Data_ClearMeter         0000597D 
               calls direct, is not allocated
               not allocated function
    -------------------------------------------------------------------------
<BANKED_CODE> 1 (was BANKED_CODE)
  Relative segment, address: CODE 00005C6B - 00005C78 (0xe bytes), align: 0
  Segment part 55.            Intra module refs:   Data_HourProc::?relay
           ENTRY                   ADDRESS         REF BY
           =====                   =======         ======
           Data_HourProc           00005C6B 
               calls direct, is not allocated
               not allocated function
    -------------------------------------------------------------------------
<BANKED_CODE> 1 (was BANKED_CODE)
  Relative segment, address: CODE 00005C79 - 00005C9C (0x24 bytes), align: 0
  Segment part 57.            Intra module refs:   Data_MinProc::?relay
           ENTRY                   ADDRESS         REF BY
           =====                   =======         ======
           Data_MinProc            00005C79 
               calls direct, is not allocated
               not allocated function
    -------------------------------------------------------------------------
<BANKED_CODE> 1 (was BANKED_CODE)
  Relative segment, address: CODE 00005C9D - 00005D8E (0xf2 bytes), align: 0
  Segment part 61.            Intra module refs:   DataProcEvCountAdd::?relay
           ENTRY                   ADDRESS         REF BY
           =====                   =======         ======
           DataProcEvCountAdd      00005C9D 
               calls direct
               XSTACK = 00000026 ( 00000019 )
               ISTACK = 00000000 ( 00000001 )
    -------------------------------------------------------------------------
<BANKED_CODE> 1 (was BANKED_CODE)
  Relative segment, address: CODE 00005D8F - 00005F1C (0x18e bytes), align: 0
  Segment part 63.            Intra module refs:   DataProcWriteRound2::?relay
           ENTRY                   ADDRESS         REF BY
           =====                   =======         ======
           DataProcWriteRound2     00005D8F 
               calls direct
               XSTACK = 00000026 ( 00000017 )
               ISTACK = 00000000 ( 00000002 )
    -------------------------------------------------------------------------
<BANKED_CODE> 1 (was BANKED_CODE)
  Relative segment, address: CODE 00005F1D - 00006056 (0x13a bytes), align: 0
  Segment part 65.            Intra module refs:   DataProcRead2Slice::?relay
           ENTRY                   ADDRESS         REF BY
           =====                   =======         ======
           DataProcRead2Slice      00005F1D 
               calls direct
               XSTACK = 00000028 ( 00000016 )
               ISTACK = 00000000 ( 00000002 )
    -------------------------------------------------------------------------
<BANKED_CODE> 1 (was BANKED_CODE)
  Relative segment, address: CODE 00006057 - 00006068 (0x12 bytes), align: 0
  Segment part 67.            Intra module refs:   Data_DayProc::?relay
           ENTRY                   ADDRESS         REF BY
           =====                   =======         ======
           Data_DayProc            00006057 
               is not allocated
               not allocated function
    -------------------------------------------------------------------------
<BANKED_CODE> 1 (was BANKED_CODE)
  Relative segment, address: CODE 00006069 - 0000634E (0x2e6 bytes), align: 0
  Segment part 69.            Intra module refs:   CalPowDwTm::?relay
           ENTRY                   ADDRESS         REF BY
           =====                   =======         ======
           CalPowDwTm              00006069 
               calls direct, is not allocated
               not allocated function
    -------------------------------------------------------------------------
<BANKED_CODE> 1 (was BANKED_CODE)
  Relative segment, address: CODE 0000634F - 0000665F (0x311 bytes), align: 0
  Segment part 71.            Intra module refs:   RecoverJSRData::?relay
           ENTRY                   ADDRESS         REF BY
           =====                   =======         ======
           RecoverJSRData          0000634F 
               calls direct, is not allocated
               not allocated function
    -------------------------------------------------------------------------
<BANKED_CODE> 1 (was BANKED_CODE)
  Relative segment, address: CODE 00006660 - 0000695A (0x2fb bytes), align: 0
  Segment part 73.            Intra module refs:   RecoverDayDjData::?relay
           ENTRY                   ADDRESS         REF BY
           =====                   =======         ======
           RecoverDayDjData        00006660 
               calls direct, is not allocated
               not allocated function
    -------------------------------------------------------------------------
<BANKED_CODE> 1 (was BANKED_CODE)
  Relative segment, address: CODE 0000695B - 00006B45 (0x1eb bytes), align: 0
  Segment part 75.            Intra module refs:   RecoverEnegyData::?relay
           ENTRY                   ADDRESS         REF BY
           =====                   =======         ======
           RecoverEnegyData        0000695B 
               calls direct, is not allocated
               not allocated function
    -------------------------------------------------------------------------
<BANKED_CODE> 1 (was BANKED_CODE)
  Relative segment, address: CODE 00006B46 - 00006B7B (0x36 bytes), align: 0
  Segment part 77.            Intra module refs:   JudgeCurTime::?relay
           ENTRY                   ADDRESS         REF BY
           =====                   =======         ======
           JudgeCurTime            00006B46 
               is not allocated
               not allocated function
    -------------------------------------------------------------------------
<BANKED_CODE> 1 (was BANKED_CODE)
  Relative segment, address: CODE 00006B7C - 00006BB0 (0x35 bytes), align: 0
  Segment part 79.            Intra module refs:   WriLastDJTime::?relay
           ENTRY                   ADDRESS         REF BY
           =====                   =======         ======
           WriLastDJTime           00006B7C 
               calls direct, is not allocated
               not allocated function
    -------------------------------------------------------------------------
<BANKED_CODE> 1 (was BANKED_CODE)
  Relative segment, address: CODE 00006BB1 - 00006C74 (0xc4 bytes), align: 0
  Segment part 81.            Intra module refs:   CalDayBack::?relay
           ENTRY                   ADDRESS         REF BY
           =====                   =======         ======
           CalDayBack              00006BB1 
               calls direct, is not allocated
               not allocated function
    -------------------------------------------------------------------------
<BANKED_CODE> 1 (was BANKED_CODE)
  Relative segment, address: CODE 00006C75 - 00006CC6 (0x52 bytes), align: 0
  Segment part 83.            Intra module refs:   JudgeJSR::?relay
           ENTRY                   ADDRESS         REF BY
           =====                   =======         ======
           JudgeJSR                00006C75 
               is not allocated
               not allocated function
    -------------------------------------------------------------------------
CODE_C
  Relative segment, address: CODE 00002FA9 - 00002FAC (0x4 bytes), align: 0
  Segment part 22.            Intra module refs:   CalPowDwTm
                                                   Data_FactoryClr
           ENTRY                   ADDRESS         REF BY
           =====                   =======         ======
           __Constant_ef9          00002FA9 
    -------------------------------------------------------------------------
CODE_C
  Relative segment, address: CODE 00002FAD - 00002FB0 (0x4 bytes), align: 0
  Segment part 23.            Intra module refs:   CalPowDwTm
                                                   Data_FactoryClr
                                                   JudgePassword (Prcfrm)
                                                   PwBs_DyOut (Prcfrm)
           ENTRY                   ADDRESS         REF BY
           =====                   =======         ======
           __Constant_ef5          00002FAD 
    -------------------------------------------------------------------------
CODE_C
  Relative segment, address: CODE 00002FB1 - 00002FB4 (0x4 bytes), align: 0
  Segment part 24.            Intra module refs:   Data_FactoryClr
                                                   Init_Var (main)
           ENTRY                   ADDRESS         REF BY
           =====                   =======         ======
           __Constant_11a          00002FB1 
    -------------------------------------------------------------------------
CODE_C
  Relative segment, address: CODE 00002FB5 - 00002FB8 (0x4 bytes), align: 0
  Segment part 26.            Intra module refs:   Data_ClearMeter
           ENTRY                   ADDRESS         REF BY
           =====                   =======         ======
           __Constant_4b00         00002FB5 
    -------------------------------------------------------------------------
CODE_C
  Relative segment, address: CODE 00002FB9 - 00002FBC (0x4 bytes), align: 0
  Segment part 27.            Intra module refs:   Data_ClearMeter
           ENTRY                   ADDRESS         REF BY
           =====                   =======         ======
           __Constant_5680         00002FB9 
    -------------------------------------------------------------------------
CODE_C
  Relative segment, address: CODE 00002FBD - 00002FC0 (0x4 bytes), align: 0
  Segment part 28.            Intra module refs:   Data_ClearMeter
           ENTRY                   ADDRESS         REF BY
           =====                   =======         ======
           __Constant_5fc0         00002FBD 
    -------------------------------------------------------------------------
CODE_C
  Relative segment, address: CODE 00002FC1 - 00002FC4 (0x4 bytes), align: 0
  Segment part 29.            Intra module refs:   Data_ClearMeter
           ENTRY                   ADDRESS         REF BY
           =====                   =======         ======
           __Constant_67c0         00002FC1 
    -------------------------------------------------------------------------
CODE_C
  Relative segment, address: CODE 00002FC5 - 00002FC8 (0x4 bytes), align: 0
  Segment part 31.            Intra module refs:   CalPowDwTm
           ENTRY                   ADDRESS         REF BY
           =====                   =======         ======
           __Constant_ed7          00002FC5 
    -------------------------------------------------------------------------
CODE_C
  Relative segment, address: CODE 00002FC9 - 00002FCC (0x4 bytes), align: 0
  Segment part 33.            Intra module refs:   CalPowDwTm
                                                   KeyPgm_DyOut (Key)
           ENTRY                   ADDRESS         REF BY
           =====                   =======         ======
           __Constant_ef1          00002FC9 
    -------------------------------------------------------------------------
CODE_C
  Relative segment, address: CODE 00002FCD - 00002FD0 (0x4 bytes), align: 0
  Segment part 34.            Intra module refs:   CalPowDwTm
                                                   Ldc_TimeAdd (LoadCurve)
           ENTRY                   ADDRESS         REF BY
           =====                   =======         ======
           __Constant_3c           00002FCD 
    -------------------------------------------------------------------------
CODE_C
  Relative segment, address: CODE 00002FD1 - 00002FD4 (0x4 bytes), align: 0
  Segment part 35.            Intra module refs:   CalPowDwTm
           ENTRY                   ADDRESS         REF BY
           =====                   =======         ======
           __Constant_1e8          00002FD1 
    -------------------------------------------------------------------------
CODE_C
  Relative segment, address: CODE 00002FD5 - 00002FD8 (0x4 bytes), align: 0
  Segment part 37.            Intra module refs:   RecoverDayDjData
           ENTRY                   ADDRESS         REF BY
           =====                   =======         ======
           __Constant_fb           00002FD5 
    -------------------------------------------------------------------------
CODE_C
  Relative segment, address: CODE 00002FD9 - 00002FDC (0x4 bytes), align: 0
  Segment part 39.            Intra module refs:   Pow_DnProc (Powmanger)
                                                   RecoverEnegyData
           ENTRY                   ADDRESS         REF BY
           =====                   =======         ======
           __Constant_ec0          00002FD9 
    -------------------------------------------------------------------------
CODE_C
  Relative segment, address: CODE 00002FDD - 00002FE0 (0x4 bytes), align: 0
  Segment part 40.            Intra module refs:   RecoverEnegyData
           ENTRY                   ADDRESS         REF BY
           =====                   =======         ======
           __Constant_efe          00002FDD 
    -------------------------------------------------------------------------
BANK_RELAYS
  Relative segment, address: CODE 0000103C - 00001041 (0x6 bytes), align: 0
  Segment part 42.            Intra module refs:   RecoverPara
           ENTRY                   ADDRESS         REF BY
           =====                   =======         ======
           RecoverRunPara::?relay
                                   0000103C 
    -------------------------------------------------------------------------
BANK_RELAYS
  Relative segment, address: CODE 00001042 - 00001047 (0x6 bytes), align: 0
  Segment part 44.
           ENTRY                   ADDRESS         REF BY
           =====                   =======         ======
           RecoverPara::?relay     00001042        main (main)
    -------------------------------------------------------------------------
BANK_RELAYS
  Relative segment, address: CODE 00001048 - 0000104D (0x6 bytes), align: 0
  Segment part 46.            Intra module refs:   Data_ClearMeter
           ENTRY                   ADDRESS         REF BY
           =====                   =======         ======
           CheckCRCWord::?relay    00001048 
    -------------------------------------------------------------------------
BANK_RELAYS
  Relative segment, address: CODE 0000104E - 00001053 (0x6 bytes), align: 0
  Segment part 48.            Intra module refs:   Data_ClearMeter
           ENTRY                   ADDRESS         REF BY
           =====                   =======         ======
           ClRCRCWord::?relay      0000104E 
    -------------------------------------------------------------------------
BANK_RELAYS
  Relative segment, address: CODE 00001054 - 00001059 (0x6 bytes), align: 0
  Segment part 50.
           ENTRY                   ADDRESS         REF BY
           =====                   =======         ======
           SetCRCWord::?relay      00001054        ClearMeter (DLT_645_2007)
                                                   FactoryWR (DLT_645_2007)
    -------------------------------------------------------------------------
BANK_RELAYS
  Relative segment, address: CODE 0000105A - 0000105F (0x6 bytes), align: 0
  Segment part 52.            Intra module refs:   Data_ClearMeter
           ENTRY                   ADDRESS         REF BY
           =====                   =======         ======
           Data_FactoryClr::?relay
                                   0000105A 
    -------------------------------------------------------------------------
BANK_RELAYS
  Relative segment, address: CODE 00001060 - 00001065 (0x6 bytes), align: 0
  Segment part 54.
           ENTRY                   ADDRESS         REF BY
           =====                   =======         ======
           Data_ClearMeter::?relay
                                   00001060        SysEventProc (main)
    -------------------------------------------------------------------------
BANK_RELAYS
  Relative segment, address: CODE 00001066 - 0000106B (0x6 bytes), align: 0
  Segment part 56.
           ENTRY                   ADDRESS         REF BY
           =====                   =======         ======
           Data_HourProc::?relay   00001066        TimeEventProc (main)
    -------------------------------------------------------------------------
BANK_RELAYS
  Relative segment, address: CODE 0000106C - 00001071 (0x6 bytes), align: 0
  Segment part 58.
           ENTRY                   ADDRESS         REF BY
           =====                   =======         ======
           Data_MinProc::?relay    0000106C        TimeEventProc (main)
    -------------------------------------------------------------------------
BANK_RELAYS
  Relative segment, address: CODE 00001072 - 00001077 (0x6 bytes), align: 0
  Segment part 62.            Intra module refs:   RecoverDayDjData
                                                   RecoverEnegyData
           ENTRY                   ADDRESS         REF BY
           =====                   =======         ======
           DataProcEvCountAdd::?relay
                                   00001072        Com_ClearEventJL (Event)
                                                   Com_ClearMeterJL (Event)
                                                   Com_JSJL (Event)
                                                   CoverOpenLog (Event)
                                                   Ldc_DataProc (LoadCurve)
                                                   PowerJL (Event)
                                                   ProJL (PrologFee)
                                                   RSDFrez (Event)
                                                   RSDJLlog (PrologFee)
                                                   SQFrez (Event)
                                                   SaveProgramLog (Event)
    -------------------------------------------------------------------------
BANK_RELAYS
  Relative segment, address: CODE 00001078 - 0000107D (0x6 bytes), align: 0
  Segment part 64.            Intra module refs:   RecoverDayDjData
                                                   RecoverEnegyData
                                                   RecoverJSRData
           ENTRY                   ADDRESS         REF BY
           =====                   =======         ======
           DataProcWriteRound2::?relay
                                   00001078        Com_ClearEventJL (Event)
                                                   Com_ClearMeterJL (Event)
                                                   Com_JSJL (Event)
                                                   CoverCloseLog (Event)
                                                   CoverOpenLog (Event)
                                                   Ldc_DataProc (LoadCurve)
                                                   PowerJL (Event)
                                                   ProJL (PrologFee)
                                                   RSDFrez (Event)
                                                   SQFrez (Event)
                                                   SaveJSTime (Energy)
                                                   SaveProgramLog (Event)
                                                   WriteHisEP (Energy)
    -------------------------------------------------------------------------
BANK_RELAYS
  Relative segment, address: CODE 0000107E - 00001083 (0x6 bytes), align: 0
  Segment part 66.            Intra module refs:   RecoverDayDjData
                                                   RecoverJSRData
           ENTRY                   ADDRESS         REF BY
           =====                   =======         ======
           DataProcRead2Slice::?relay
                                   0000107E        CoverCloseLog (Event)
                                                   Init_Var (main)
                                                   LoadCurveCheck (LoadCurve)
                                                   PowerJL (Event)
                                                   ReadAccuEgy (DLT_645_2007)
                                                   ReadEnyD0Block (DLT_645_2007)
                                                   ReadHisEgy (DLT_645_2007)
                                                   ReadHisJSTime (DLT_645_2007)
                                                   ReadJL (DLT_645_2007)
                                                   RwDjData (DLT_645_2007)
                                                   SaveProgramLog (Event)
    -------------------------------------------------------------------------
BANK_RELAYS
  Relative segment, address: CODE 00001084 - 00001089 (0x6 bytes), align: 0
  Segment part 68.            Intra module refs:   CalPowDwTm
                                                   Data_FactoryClr
           ENTRY                   ADDRESS         REF BY
           =====                   =======         ======
           Data_DayProc::?relay    00001084        TimeEventProc (main)
    -------------------------------------------------------------------------
BANK_RELAYS
  Relative segment, address: CODE 0000108A - 0000108F (0x6 bytes), align: 0
  Segment part 70.
           ENTRY                   ADDRESS         REF BY
           =====                   =======         ======
           CalPowDwTm::?relay      0000108A        main (main)
    -------------------------------------------------------------------------
BANK_RELAYS
  Relative segment, address: CODE 00001090 - 00001095 (0x6 bytes), align: 0
  Segment part 72.            Intra module refs:   RecoverPara
           ENTRY                   ADDRESS         REF BY
           =====                   =======         ======
           RecoverJSRData::?relay
                                   00001090 
    -------------------------------------------------------------------------
BANK_RELAYS
  Relative segment, address: CODE 00001096 - 0000109B (0x6 bytes), align: 0
  Segment part 74.            Intra module refs:   RecoverPara
           ENTRY                   ADDRESS         REF BY
           =====                   =======         ======
           RecoverDayDjData::?relay
                                   00001096 
    -------------------------------------------------------------------------
BANK_RELAYS
  Relative segment, address: CODE 0000109C - 000010A1 (0x6 bytes), align: 0
  Segment part 76.            Intra module refs:   RecoverPara
           ENTRY                   ADDRESS         REF BY
           =====                   =======         ======
           RecoverEnegyData::?relay
                                   0000109C 
    -------------------------------------------------------------------------
BANK_RELAYS
  Relative segment, address: CODE 000010A2 - 000010A7 (0x6 bytes), align: 0
  Segment part 78.            Intra module refs:   RecoverDayDjData
           ENTRY                   ADDRESS         REF BY
           =====                   =======         ======
           JudgeCurTime::?relay    000010A2 
    -------------------------------------------------------------------------
BANK_RELAYS
  Relative segment, address: CODE 000010A8 - 000010AD (0x6 bytes), align: 0
  Segment part 80.            Intra module refs:   RecoverDayDjData
           ENTRY                   ADDRESS         REF BY
           =====                   =======         ======
           WriLastDJTime::?relay   000010A8 
    -------------------------------------------------------------------------
BANK_RELAYS
  Relative segment, address: CODE 000010AE - 000010B3 (0x6 bytes), align: 0
  Segment part 82.            Intra module refs:   RecoverDayDjData
           ENTRY                   ADDRESS         REF BY
           =====                   =======         ======
           CalDayBack::?relay      000010AE 
    -------------------------------------------------------------------------
BANK_RELAYS
  Relative segment, address: CODE 000010B4 - 000010B9 (0x6 bytes), align: 0
  Segment part 84.            Intra module refs:   RecoverJSRData
           ENTRY                   ADDRESS         REF BY
           =====                   =======         ======
           JudgeJSR::?relay        000010B4 

    *************************************************************************

  FILE NAME : F:\SVN\06solution\Projects\农网\D105\Sw\Debug\Obj\Energy.r51
  PROGRAM MODULE, NAME : Energy

  SEGMENTS IN THE MODULE
  ======================
XDATA_Z
  Relative segment, address: XDATA 000007C7 - 000007D0 (0xa bytes), align: 0
  Segment part 6.             Intra module refs:   Eny_EnergyProc
           ENTRY                   ADDRESS         REF BY
           =====                   =======         ======
           gs_Energy               000007C7        Data_ClearMeter (Dataproc)
                                                   EnyB_IntCF (EnergyBottom)
                                                   Pow_DnProc (Powmanger)
                                                   RecoverEnegyData (Dataproc)
    -------------------------------------------------------------------------
XDATA_Z
  Relative segment, address: XDATA 000007D1 - 000007D1 (0x1 bytes), align: 0
  Segment part 7.             Intra module refs:   Eny_JbPm_MeterConst
           ENTRY                   ADDRESS         REF BY
           =====                   =======         ======
           guc_GateCF              000007D1        EnyB_IntCF (EnergyBottom)
    -------------------------------------------------------------------------
XDATA_Z
  Relative segment, address: XDATA 000007D2 - 000007D2 (0x1 bytes), align: 0
  Segment part 8.             Intra module refs:   Eny_JbPm_MeterConst
           ENTRY                   ADDRESS         REF BY
           =====                   =======         ======
           guc_UnitCF              000007D2        EnyB_IntCF (EnergyBottom)
    -------------------------------------------------------------------------
XDATA_Z
  Relative segment, address: XDATA 000007D3 - 000007E8 (0x16 bytes), align: 0
  Segment part 9.             Intra module refs:   Eny_CheckEnergy
                                                   Eny_EnergyClrCur
                                                   Eny_EnergyProc
                                                   Eny_GetEp1
           ENTRY                   ADDRESS         REF BY
           =====                   =======         ======
           gs_EnergyData           000007D3        Pow_DnProc (Powmanger)
                                                   RecoverEnegyData (Dataproc)
    -------------------------------------------------------------------------
XDATA_Z
  Relative segment, address: XDATA 000007E9 - 000007FE (0x16 bytes), align: 0
  Segment part 10.            Intra module refs:   Eny_CheckEnergy
                                                   Eny_EnergyClrCur
                                                   Eny_EnergyProc
           ENTRY                   ADDRESS         REF BY
           =====                   =======         ======
           gs_EnergyData_bak       000007E9 
    -------------------------------------------------------------------------
XDATA_Z
  Relative segment, address: XDATA 000007FF - 0000083C (0x3e bytes), align: 0
  Segment part 11.            Intra module refs:   Eny_CheckEnergyActiveRAM
                                                   Eny_EnergyActiveSave
                                                   Eny_EnergyClrCur
                                                   Eny_PurCheckRAMEny
                                                   MonthLYDL
                                                   WriteHisEP
           ENTRY                   ADDRESS         REF BY
           =====                   =======         ======
           gs_EnergyA              000007FF        Com_ClearMeterJL (Event)
                                                   CoverCloseLog (Event)
                                                   CoverOpenLog (Event)
                                                   Ldc_DataProc (LoadCurve)
                                                   ReadAccuEgy (DLT_645_2007)
                                                   ReadCurEgy (DLT_645_2007)
                                                   ReadEnyD0Block (DLT_645_2007)
                                                   ReadZHLYEgy (DLT_645_2007)
                                                   RecoverDayDjData (Dataproc)
                                                   RecoverEnegyData (Dataproc)
                                                   StructFreezeDate (Event)
                                                   Up_FunCfg (FunCfg)
    -------------------------------------------------------------------------
XDATA_Z
  Relative segment, address: XDATA 0000083D - 0000083D (0x1 bytes), align: 0
  Segment part 12.            Intra module refs:   Eny_GetEp1
                                                   Eny_RefCalcType
           ENTRY                   ADDRESS         REF BY
           =====                   =======         ======
           guc_EPCalcType          0000083D        Up_FunCfg (FunCfg)
    -------------------------------------------------------------------------
CODE_C
  Relative segment, address: CODE 00002FE1 - 00003024 (0x44 bytes), align: 0
  Segment part 13.            Intra module refs:   Eny_JbPm_MeterConst
           ENTRY                   ADDRESS         REF BY
           =====                   =======         ======
           gs_MeterConstT          00002FE1 
    -------------------------------------------------------------------------
<BANKED_CODE> 3 (was BANKED_CODE)
  Relative segment, address: CODE 00018000 - 000180D7 (0xd8 bytes), align: 0
  Segment part 22.            Intra module refs:   Eny_JbPm_GetE2::?relay
           ENTRY                   ADDRESS         REF BY
           =====                   =======         ======
           Eny_JbPm_GetE2          00018000 
               calls direct, is not allocated
               not allocated function
    -------------------------------------------------------------------------
<BANKED_CODE> 3 (was BANKED_CODE)
  Relative segment, address: CODE 000180D8 - 00018109 (0x32 bytes), align: 0
  Segment part 24.            Intra module refs:   Eny_JbPm_UpdateRam::?relay
           ENTRY                   ADDRESS         REF BY
           =====                   =======         ======
           Eny_JbPm_UpdateRam      000180D8 
               is not allocated
               not allocated function
    -------------------------------------------------------------------------
<BANKED_CODE> 3 (was BANKED_CODE)
  Relative segment, address: CODE 0001810A - 00018181 (0x78 bytes), align: 0
  Segment part 26.            Intra module refs:   Eny_RefVar::?relay
           ENTRY                   ADDRESS         REF BY
           =====                   =======         ======
           Eny_RefVar              0001810A 
               calls direct, is not allocated
               not allocated function
    -------------------------------------------------------------------------
<BANKED_CODE> 3 (was BANKED_CODE)
  Relative segment, address: CODE 00018182 - 000181AE (0x2d bytes), align: 0
  Segment part 28.            Intra module refs:   Eny_RefCalcType::?relay
           ENTRY                   ADDRESS         REF BY
           =====                   =======         ======
           Eny_RefCalcType         00018182 
               calls direct, is not allocated
               not allocated function
    -------------------------------------------------------------------------
<BANKED_CODE> 3 (was BANKED_CODE)
  Relative segment, address: CODE 000181AF - 0001821B (0x6d bytes), align: 0
  Segment part 30.            Intra module refs:   Eny_JbPm_MeterConst::?relay
           ENTRY                   ADDRESS         REF BY
           =====                   =======         ======
           Eny_JbPm_MeterConst     000181AF 
               is not allocated
               not allocated function
    -------------------------------------------------------------------------
<BANKED_CODE> 3 (was BANKED_CODE)
  Relative segment, address: CODE 0001821C - 000182BF (0xa4 bytes), align: 0
  Segment part 32.            Intra module refs:   Eny_EnergyClrCur::?relay
           ENTRY                   ADDRESS         REF BY
           =====                   =======         ======
           Eny_EnergyClrCur        0001821C 
               calls direct
               XSTACK = 0000004E ( 0000000E )
    -------------------------------------------------------------------------
<BANKED_CODE> 3 (was BANKED_CODE)
  Relative segment, address: CODE 000182C0 - 00018377 (0xb8 bytes), align: 0
  Segment part 34.            Intra module refs:   Eny_PurCheckRAMEny::?relay
           ENTRY                   ADDRESS         REF BY
           =====                   =======         ======
           Eny_PurCheckRAMEny      000182C0 
               calls direct, is not allocated
               not allocated function
    -------------------------------------------------------------------------
<BANKED_CODE> 3 (was BANKED_CODE)
  Relative segment, address: CODE 00018378 - 000183DD (0x66 bytes), align: 0
  Segment part 36.            Intra module refs:   Eny_CheckEnergy::?relay
           ENTRY                   ADDRESS         REF BY
           =====                   =======         ======
           Eny_CheckEnergy         00018378 
               calls direct
               XSTACK = 0000000E ( 0000000A )
    -------------------------------------------------------------------------
<BANKED_CODE> 3 (was BANKED_CODE)
  Relative segment, address: CODE 000183DE - 0001840A (0x2d bytes), align: 0
  Segment part 38.            Intra module refs:   Eny_CheckEnergyActiveRAM::?relay
           ENTRY                   ADDRESS         REF BY
           =====                   =======         ======
           Eny_CheckEnergyActiveRAM
                                   000183DE 
               calls direct, is not allocated
               not allocated function
    -------------------------------------------------------------------------
<BANKED_CODE> 3 (was BANKED_CODE)
  Relative segment, address: CODE 0001840B - 000184E9 (0xdf bytes), align: 0
  Segment part 40.            Intra module refs:   Eny_GetEp1::?relay
           ENTRY                   ADDRESS         REF BY
           =====                   =======         ======
           Eny_GetEp1              0001840B 
               calls direct
               XSTACK = 0000004E ( 0000000C )
    -------------------------------------------------------------------------
<BANKED_CODE> 3 (was BANKED_CODE)
  Relative segment, address: CODE 000184EA - 00018782 (0x299 bytes), align: 0
  Segment part 42.            Intra module refs:   Eny_EnergyActiveSave::?relay
           ENTRY                   ADDRESS         REF BY
           =====                   =======         ======
           Eny_EnergyActiveSave    000184EA 
               calls direct, is not allocated
               not allocated function
    -------------------------------------------------------------------------
<BANKED_CODE> 3 (was BANKED_CODE)
  Relative segment, address: CODE 00018783 - 00018826 (0xa4 bytes), align: 0
  Segment part 44.            Intra module refs:   Eny_EnergyProc::?relay
           ENTRY                   ADDRESS         REF BY
           =====                   =======         ======
           Eny_EnergyProc          00018783 
               calls direct, is not allocated
               not allocated function
    -------------------------------------------------------------------------
<BANKED_CODE> 3 (was BANKED_CODE)
  Relative segment, address: CODE 00018827 - 00018891 (0x6b bytes), align: 0
  Segment part 46.            Intra module refs:   WriteHisEP::?relay
           ENTRY                   ADDRESS         REF BY
           =====                   =======         ======
           WriteHisEP              00018827 
               calls direct, is not allocated
               not allocated function
    -------------------------------------------------------------------------
<BANKED_CODE> 3 (was BANKED_CODE)
  Relative segment, address: CODE 00018892 - 000189D9 (0x148 bytes), align: 0
  Segment part 48.            Intra module refs:   MonthLYDL::?relay
           ENTRY                   ADDRESS         REF BY
           =====                   =======         ======
           MonthLYDL               00018892 
               calls direct, is not allocated
               not allocated function
    -------------------------------------------------------------------------
<BANKED_CODE> 3 (was BANKED_CODE)
  Relative segment, address: CODE 000189DA - 00018B10 (0x137 bytes), align: 0
  Segment part 50.            Intra module refs:   EnergyCBRManage::?relay
           ENTRY                   ADDRESS         REF BY
           =====                   =======         ======
           EnergyCBRManage         000189DA 
               calls direct, is not allocated
               not allocated function
    -------------------------------------------------------------------------
<BANKED_CODE> 3 (was BANKED_CODE)
  Relative segment, address: CODE 00018B11 - 00018B41 (0x31 bytes), align: 0
  Segment part 52.            Intra module refs:   SaveJSTime::?relay
           ENTRY                   ADDRESS         REF BY
           =====                   =======         ======
           SaveJSTime              00018B11 
               calls direct, is not allocated
               not allocated function
    -------------------------------------------------------------------------
CODE_C
  Relative segment, address: CODE 00003025 - 00003028 (0x4 bytes), align: 0
  Segment part 14.            Intra module refs:   Eny_JbPm_GetE2
           ENTRY                   ADDRESS         REF BY
           =====                   =======         ======
           __Constant_140          00003025 
    -------------------------------------------------------------------------
CODE_C
  Relative segment, address: CODE 00003029 - 0000302C (0x4 bytes), align: 0
  Segment part 15.            Intra module refs:   Eny_JbPm_GetE2
           ENTRY                   ADDRESS         REF BY
           =====                   =======         ======
           __Constant_3c0          00003029 
    -------------------------------------------------------------------------
CODE_C
  Relative segment, address: CODE 0000302D - 00003030 (0x4 bytes), align: 0
  Segment part 16.            Intra module refs:   Eny_RefVar
           ENTRY                   ADDRESS         REF BY
           =====                   =======         ======
           __Constant_17d          0000302D 
    -------------------------------------------------------------------------
CODE_C
  Relative segment, address: CODE 00003031 - 00003034 (0x4 bytes), align: 0
  Segment part 17.            Intra module refs:   Eny_RefCalcType
                                                   ProJL (PrologFee)
                                                   Up_FunCfg (FunCfg)
           ENTRY                   ADDRESS         REF BY
           =====                   =======         ======
           __Constant_79           00003031 
    -------------------------------------------------------------------------
CODE_C
  Relative segment, address: CODE 00003035 - 00003038 (0x4 bytes), align: 0
  Segment part 18.            Intra module refs:   Eny_EnergyActiveSave
                                                   Eny_EnergyClrCur
                                                   Eny_PurCheckRAMEny
                                                   Up_FunCfg (FunCfg)
                                                   WriteHisEP
           ENTRY                   ADDRESS         REF BY
           =====                   =======         ======
           __Constant_240          00003035 
    -------------------------------------------------------------------------
CODE_C
  Relative segment, address: CODE 00003039 - 0000303C (0x4 bytes), align: 0
  Segment part 19.            Intra module refs:   Eny_EnergyActiveSave
                                                   Eny_EnergyClrCur
                                                   Eny_PurCheckRAMEny
                                                   Up_FunCfg (FunCfg)
                                                   WriteHisEP
           ENTRY                   ADDRESS         REF BY
           =====                   =======         ======
           __Constant_4c0          00003039 
    -------------------------------------------------------------------------
BANK_RELAYS
  Relative segment, address: CODE 000010BA - 000010BF (0x6 bytes), align: 0
  Segment part 23.            Intra module refs:   Eny_RefVar
           ENTRY                   ADDRESS         REF BY
           =====                   =======         ======
           Eny_JbPm_GetE2::?relay
                                   000010BA 
    -------------------------------------------------------------------------
BANK_RELAYS
  Relative segment, address: CODE 000010C0 - 000010C5 (0x6 bytes), align: 0
  Segment part 25.            Intra module refs:   Eny_JbPm_GetE2
           ENTRY                   ADDRESS         REF BY
           =====                   =======         ======
           Eny_JbPm_UpdateRam::?relay
                                   000010C0 
    -------------------------------------------------------------------------
BANK_RELAYS
  Relative segment, address: CODE 000010C6 - 000010CB (0x6 bytes), align: 0
  Segment part 27.
           ENTRY                   ADDRESS         REF BY
           =====                   =======         ======
           Eny_RefVar::?relay      000010C6        Data_MinProc (Dataproc)
                                                   EnyB_PurInit (EnergyBottom)
    -------------------------------------------------------------------------
BANK_RELAYS
  Relative segment, address: CODE 000010CC - 000010D1 (0x6 bytes), align: 0
  Segment part 29.
           ENTRY                   ADDRESS         REF BY
           =====                   =======         ======
           Eny_RefCalcType::?relay
                                   000010CC        EnyB_PurInit (EnergyBottom)
    -------------------------------------------------------------------------
BANK_RELAYS
  Relative segment, address: CODE 000010D2 - 000010D7 (0x6 bytes), align: 0
  Segment part 31.            Intra module refs:   Eny_RefVar
           ENTRY                   ADDRESS         REF BY
           =====                   =======         ======
           Eny_JbPm_MeterConst::?relay
                                   000010D2 
    -------------------------------------------------------------------------
BANK_RELAYS
  Relative segment, address: CODE 000010D8 - 000010DD (0x6 bytes), align: 0
  Segment part 33.            Intra module refs:   Eny_CheckEnergy
                                                   Eny_EnergyActiveSave
           ENTRY                   ADDRESS         REF BY
           =====                   =======         ======
           Eny_EnergyClrCur::?relay
                                   000010D8        Data_ClearMeter (Dataproc)
    -------------------------------------------------------------------------
BANK_RELAYS
  Relative segment, address: CODE 000010DE - 000010E3 (0x6 bytes), align: 0
  Segment part 35.
           ENTRY                   ADDRESS         REF BY
           =====                   =======         ======
           Eny_PurCheckRAMEny::?relay
                                   000010DE        EnyB_PurInit (EnergyBottom)
    -------------------------------------------------------------------------
BANK_RELAYS
  Relative segment, address: CODE 000010E4 - 000010E9 (0x6 bytes), align: 0
  Segment part 37.            Intra module refs:   Eny_EnergyProc
                                                   Eny_GetEp1
           ENTRY                   ADDRESS         REF BY
           =====                   =======         ======
           Eny_CheckEnergy::?relay
                                   000010E4 
    -------------------------------------------------------------------------
BANK_RELAYS
  Relative segment, address: CODE 000010EA - 000010EF (0x6 bytes), align: 0
  Segment part 39.            Intra module refs:   Eny_EnergyActiveSave
                                                   Eny_PurCheckRAMEny
                                                   WriteHisEP
           ENTRY                   ADDRESS         REF BY
           =====                   =======         ======
           Eny_CheckEnergyActiveRAM::?relay
                                   000010EA        Up_FunCfg (FunCfg)
    -------------------------------------------------------------------------
BANK_RELAYS
  Relative segment, address: CODE 000010F0 - 000010F5 (0x6 bytes), align: 0
  Segment part 41.            Intra module refs:   Eny_EnergyActiveSave
                                                   MonthLYDL
           ENTRY                   ADDRESS         REF BY
           =====                   =======         ======
           Eny_GetEp1::?relay      000010F0        Com_ClearMeterJL (Event)
                                                   CoverCloseLog (Event)
                                                   CoverOpenLog (Event)
                                                   Ldc_DataProc (LoadCurve)
                                                   ReadAccuEgy (DLT_645_2007)
                                                   ReadCurEgy (DLT_645_2007)
                                                   ReadEnyD0Block (DLT_645_2007)
                                                   ReadZHLYEgy (DLT_645_2007)
                                                   RecoverDayDjData (Dataproc)
                                                   RecoverEnegyData (Dataproc)
                                                   StructFreezeDate (Event)
    -------------------------------------------------------------------------
BANK_RELAYS
  Relative segment, address: CODE 000010F6 - 000010FB (0x6 bytes), align: 0
  Segment part 43.            Intra module refs:   EnergyCBRManage
                                                   Eny_EnergyProc
                                                   MonthLYDL
           ENTRY                   ADDRESS         REF BY
           =====                   =======         ======
           Eny_EnergyActiveSave::?relay
                                   000010F6        RecoverEnegyData (Dataproc)
                                                   Up_FunCfg (FunCfg)
                                                   getFee (Multariff)
    -------------------------------------------------------------------------
BANK_RELAYS
  Relative segment, address: CODE 000010FC - 00001101 (0x6 bytes), align: 0
  Segment part 45.
           ENTRY                   ADDRESS         REF BY
           =====                   =======         ======
           Eny_EnergyProc::?relay
                                   000010FC        SysEventProc (main)
    -------------------------------------------------------------------------
BANK_RELAYS
  Relative segment, address: CODE 00001102 - 00001107 (0x6 bytes), align: 0
  Segment part 47.            Intra module refs:   EnergyCBRManage
                                                   MonthLYDL
           ENTRY                   ADDRESS         REF BY
           =====                   =======         ======
           WriteHisEP::?relay      00001102        RecoverJSRData (Dataproc)
    -------------------------------------------------------------------------
BANK_RELAYS
  Relative segment, address: CODE 00001108 - 0000110D (0x6 bytes), align: 0
  Segment part 49.            Intra module refs:   EnergyCBRManage
           ENTRY                   ADDRESS         REF BY
           =====                   =======         ======
           MonthLYDL::?relay       00001108        RecoverJSRData (Dataproc)
    -------------------------------------------------------------------------
BANK_RELAYS
  Relative segment, address: CODE 0000110E - 00001113 (0x6 bytes), align: 0
  Segment part 51.
           ENTRY                   ADDRESS         REF BY
           =====                   =======         ======
           EnergyCBRManage::?relay
                                   0000110E        Data_HourProc (Dataproc)
    -------------------------------------------------------------------------
BANK_RELAYS
  Relative segment, address: CODE 00001114 - 00001119 (0x6 bytes), align: 0
  Segment part 53.            Intra module refs:   EnergyCBRManage
                                                   MonthLYDL
           ENTRY                   ADDRESS         REF BY
           =====                   =======         ======
           SaveJSTime::?relay      00001114 

    *************************************************************************

  FILE NAME : F:\SVN\06solution\Projects\农网\D105\Sw\Debug\Obj\EnergyBottom.r51
  PROGRAM MODULE, NAME : EnergyBottom

  SEGMENTS IN THE MODULE
  ======================
SFR_AN
  Relative segment, address: DATA 000000E8 - 000000E8 (0x1 bytes), align: 0
  Segment part 1. ROOT.       Intra module refs:   Check_Sfr (McuDrive)
                                                   EnyB_InitCFInt
                                                   Init_Uart2 (Uart2)
                                                   Init_Uart4 (Uart4)
                                                   IntOFF (McuDrive)
           ENTRY                   ADDRESS         REF BY
           =====                   =======         ======
           EIE                     000000E8 
    -------------------------------------------------------------------------
SFR_AN
  Relative segment, address: DATA 00000080 - 00000080 (0x1 bytes), align: 0
  Segment part 4. ROOT.       Intra module refs:   InitLCD (LcdBottom)
                                                   LCD_Off (LcdBottom)
                                                   MCUForPowerOff (McuDrive)
                                                   PMDspInit
                                                   SetPLL13M (McuDrive)
                                                   SetPLL800K (McuDrive)
                                                   Sleep (McuDrive)
                                                   main (main)
           ENTRY                   ADDRESS         REF BY
           =====                   =======         ======
           _A_SysCtrl              00000080 
           LOCAL                   ADDRESS         
           =====                   =======         
           SysCtrl                 00000080 
           SysCtrl_bit             00000080 
    -------------------------------------------------------------------------
SFR_AN
  Relative segment, address: DATA 000000AD - 000000AD (0x1 bytes), align: 0
  Segment part 6. ROOT.       Intra module refs:   EnyB_InitCFInt
                                                   IOOFF (McuDrive)
                                                   Init_Port (McuDrive)
                                                   KeyInit (Key)
                                                   SwichPluseOutType (McuDrive)
           ENTRY                   ADDRESS         REF BY
           =====                   =======         ======
           P9FC                    000000AD 
    -------------------------------------------------------------------------
XDATA_AN
  Relative segment, address: XDATA 00002858 - 00002858 (0x1 bytes), align: 0
  Segment part 7. ROOT.       Intra module refs:   EnyB_JbPm_Updata
           ENTRY                   ADDRESS         REF BY
           =====                   =======         ======
           CtrlADC0                00002858 
    -------------------------------------------------------------------------
XDATA_AN
  Relative segment, address: XDATA 0000285D - 0000285D (0x1 bytes), align: 0
  Segment part 8. ROOT.       Intra module refs:   EnyB_JbPm_Updata
           ENTRY                   ADDRESS         REF BY
           =====                   =======         ======
           CtrlADC4                0000285D 
    -------------------------------------------------------------------------
XDATA_AN
  Relative segment, address: XDATA 00002863 - 00002863 (0x1 bytes), align: 0
  Segment part 9. ROOT.       Intra module refs:   ADCInit
                                                   EnyB_SetMeterRule
                                                   GetBat (McuDrive)
                                                   MChannelCal (McuDrive)
                                                   Mcu_BatCal (McuDrive)
           ENTRY                   ADDRESS         REF BY
           =====                   =======         ======
           CtrlADC5                00002863 
    -------------------------------------------------------------------------
XDATA_AN
  Relative segment, address: XDATA 00002864 - 00002864 (0x1 bytes), align: 0
  Segment part 10. ROOT.      Intra module refs:   ADCInit
                                                   MCUForPowerOff (McuDrive)
                                                   Sleep (McuDrive)
           ENTRY                   ADDRESS         REF BY
           =====                   =======         ======
           CtrlADC6                00002864 
    -------------------------------------------------------------------------
XDATA_Z
  Relative segment, address: XDATA 0000083E - 0000087C (0x3f bytes), align: 0
  Segment part 17.            Intra module refs:   CalRMS
                                                   EnyB_AutoCheck
                                                   EnyB_AutoChkAngle
                                                   EnyB_AutoChkIrms
                                                   EnyB_AutoChkPW
                                                   EnyB_AutoChkUrms
                                                   EnyB_Check_PowRev
                                                   EnyB_JbPm_Init
                                                   EnyB_JbPm_Updata
           ENTRY                   ADDRESS         REF BY
           =====                   =======         ======
           gs_JbPm                 0000083E        Eny_JbPm_GetE2 (Energy)
                                                   Eny_JbPm_MeterConst (Energy)
                                                   Eny_JbPm_UpdateRam (Energy)
                                                   Eny_RefVar (Energy)
                                                   FactoryWR (DLT_645_2007)
                                                   JudgePowerDnValue (Powmanger)
    -------------------------------------------------------------------------
XDATA_Z
  Relative segment, address: XDATA 0000087D - 00000882 (0x6 bytes), align: 0
  Segment part 20.
           ENTRY                   ADDRESS         REF BY
           =====                   =======         ======
           gs_GiantSCP             0000087D        FactoryWR (DLT_645_2007)
                                                   RecoverRunPara (Dataproc)
    -------------------------------------------------------------------------
XDATA_Z
  Relative segment, address: XDATA 00000883 - 00000883 (0x1 bytes), align: 0
  Segment part 21.
           ENTRY                   ADDRESS         REF BY
           =====                   =======         ======
           guc_GiantSCPflag        00000883        Init_Var (main)
    -------------------------------------------------------------------------
XDATA_Z
  Relative segment, address: XDATA 00000884 - 0000088D (0xa bytes), align: 0
  Segment part 23.            Intra module refs:   EnyB_IntCF
           ENTRY                   ADDRESS         REF BY
           =====                   =======         ======
           gs_PowerCf              00000884        Data_ClearMeter (Dataproc)
                                                   Pow_DnProc (Powmanger)
                                                   RecoverEnegyData (Dataproc)
    -------------------------------------------------------------------------
XDATA_Z
  Relative segment, address: XDATA 0000088E - 0000088E (0x1 bytes), align: 0
  Segment part 25.            Intra module refs:   EnyB_Open_Cf
           ENTRY                   ADDRESS         REF BY
           =====                   =======         ======
           guc_OpenCfTmCnt         0000088E        Init_Var (main)
    -------------------------------------------------------------------------
XDATA_Z
  Relative segment, address: XDATA 0000088F - 0000088F (0x1 bytes), align: 0
  Segment part 26.            Intra module refs:   EnyB_Open_Cf
                                                   PMDspInit
           ENTRY                   ADDRESS         REF BY
           =====                   =======         ======
           guc_CfOpenFlg           0000088F        Check_Sfr (McuDrive)
                                                   Init_Var (main)
    -------------------------------------------------------------------------
XDATA_Z
  Relative segment, address: XDATA 00000890 - 00000890 (0x1 bytes), align: 0
  Segment part 27.            Intra module refs:   EnyB_Check_OC
           ENTRY                   ADDRESS         REF BY
           =====                   =======         ======
           guc_PowerOffTmCnt       00000890        RecoverRunPara (Dataproc)
    -------------------------------------------------------------------------
XDATA_Z
  Relative segment, address: XDATA 00000891 - 00000895 (0x5 bytes), align: 0
  Segment part 28.            Intra module refs:   EnyB_Check_PowRev
           ENTRY                   ADDRESS         REF BY
           =====                   =======         ======
           gs_PDirCtr              00000891 
    -------------------------------------------------------------------------
XDATA_Z
  Relative segment, address: XDATA 00000896 - 00000897 (0x2 bytes), align: 0
  Segment part 29.            Intra module refs:   EnyB_Check_PowRev
           ENTRY                   ADDRESS         REF BY
           =====                   =======         ======
           gs_PDirCnt              00000896 
    -------------------------------------------------------------------------
XDATA_Z
  Relative segment, address: XDATA 00000898 - 0000089C (0x5 bytes), align: 0
  Segment part 30.            Intra module refs:   EnyB_Check_OC
           ENTRY                   ADDRESS         REF BY
           =====                   =======         ======
           gs_PowDn                00000898        Data_ClearMeter (Dataproc)
                                                   Pow_DnProc (Powmanger)
                                                   RecoverEnegyData (Dataproc)
                                                   RecoverRunPara (Dataproc)
    -------------------------------------------------------------------------
<BANKED_CODE> 2 (was BANKED_CODE)
  Relative segment, address: CODE 0000CE4E - 0000CEE7 (0x9a bytes), align: 0
  Segment part 73.            Intra module refs:   EnyB_ReadMeterParaACK::?relay
           ENTRY                   ADDRESS         REF BY
           =====                   =======         ======
           EnyB_ReadMeterParaACK   0000CE4E 
               XSTACK = 00000025 ( 00000010 )
    -------------------------------------------------------------------------
<BANKED_CODE> 2 (was BANKED_CODE)
  Relative segment, address: CODE 0000CEE8 - 0000CF3D (0x56 bytes), align: 0
  Segment part 75.            Intra module refs:   EnyB_SetMeterCfgACK::?relay
           ENTRY                   ADDRESS         REF BY
           =====                   =======         ======
           EnyB_SetMeterCfgACK     0000CEE8 
               XSTACK = 00000027 ( 00000010 )
    -------------------------------------------------------------------------
<BANKED_CODE> 2 (was BANKED_CODE)
  Relative segment, address: CODE 0000CF3E - 0000CF55 (0x18 bytes), align: 0
  Segment part 77.            Intra module refs:   ADCInit::?relay
           ENTRY                   ADDRESS         REF BY
           =====                   =======         ======
           ADCInit                 0000CF3E 
               is not allocated
               not allocated function
    -------------------------------------------------------------------------
<BANKED_CODE> 2 (was BANKED_CODE)
  Relative segment, address: CODE 0000CF56 - 0000D248 (0x2f3 bytes), align: 0
  Segment part 79.            Intra module refs:   PMDspInit::?relay
           ENTRY                   ADDRESS         REF BY
           =====                   =======         ======
           PMDspInit               0000CF56 
               calls direct, is not allocated
               not allocated function
    -------------------------------------------------------------------------
<BANKED_CODE> 2 (was BANKED_CODE)
  Relative segment, address: CODE 0000D249 - 0000D2B6 (0x6e bytes), align: 0
  Segment part 81.            Intra module refs:   EnyB_Open_Cf::?relay
           ENTRY                   ADDRESS         REF BY
           =====                   =======         ======
           EnyB_Open_Cf            0000D249 
               calls direct, is not allocated
               not allocated function
    -------------------------------------------------------------------------
<BANKED_CODE> 2 (was BANKED_CODE)
  Relative segment, address: CODE 0000D2B7 - 0000D2D0 (0x1a bytes), align: 0
  Segment part 83.            Intra module refs:   EnyB_InitCFInt::?relay
           ENTRY                   ADDRESS         REF BY
           =====                   =======         ======
           EnyB_InitCFInt          0000D2B7 
               is not allocated
               not allocated function
    -------------------------------------------------------------------------
<BANKED_CODE> 2 (was BANKED_CODE)
  Relative segment, address: CODE 0000D2D1 - 0000D2FF (0x2f bytes), align: 0
  Segment part 85.            Intra module refs:   EnyB_SetMeterRule::?relay
           ENTRY                   ADDRESS         REF BY
           =====                   =======         ======
           EnyB_SetMeterRule       0000D2D1 
               calls direct, is not allocated
               not allocated function
    -------------------------------------------------------------------------
<BANKED_CODE> 2 (was BANKED_CODE)
  Relative segment, address: CODE 0000D300 - 0000D313 (0x14 bytes), align: 0
  Segment part 87.            Intra module refs:   EnyB_PurInit::?relay
           ENTRY                   ADDRESS         REF BY
           =====                   =======         ======
           EnyB_PurInit            0000D300 
               calls direct, is not allocated
               not allocated function
    -------------------------------------------------------------------------
<BANKED_CODE> 2 (was BANKED_CODE)
  Relative segment, address: CODE 0000D314 - 0000D33C (0x29 bytes), align: 0
  Segment part 89.            Intra module refs:   EnyB_JbPm_Init::?relay
           ENTRY                   ADDRESS         REF BY
           =====                   =======         ======
           EnyB_JbPm_Init          0000D314 
               calls direct, is not allocated
               not allocated function
    -------------------------------------------------------------------------
<BANKED_CODE> 2 (was BANKED_CODE)
  Relative segment, address: CODE 0000D33D - 0000D414 (0xd8 bytes), align: 0
  Segment part 91.            Intra module refs:   EnyB_IntCF::?relay
           ENTRY                   ADDRESS         REF BY
           =====                   =======         ======
           EnyB_IntCF              0000D33D 
               ISTACK = 00000000 ( 00000002 )
    -------------------------------------------------------------------------
<BANKED_CODE> 2 (was BANKED_CODE)
  Relative segment, address: CODE 0000D415 - 0000D8FD (0x4e9 bytes), align: 0
  Segment part 95.            Intra module refs:   CalRMS::?relay
           ENTRY                   ADDRESS         REF BY
           =====                   =======         ======
           CalRMS                  0000D415 
               calls direct
               XSTACK = 0000001C ( 0000001C )
               ISTACK = 00000000 ( 00000002 )
    -------------------------------------------------------------------------
<BANKED_CODE> 2 (was BANKED_CODE)
  Relative segment, address: CODE 0000D8FE - 0000DB0E (0x211 bytes), align: 0
  Segment part 97.            Intra module refs:   CalCos::?relay
           ENTRY                   ADDRESS         REF BY
           =====                   =======         ======
           CalCos                  0000D8FE 
               calls direct
               XSTACK = 00000000 ( 0000001C )
               ISTACK = 00000000 ( 00000004 )
    -------------------------------------------------------------------------
<BANKED_CODE> 2 (was BANKED_CODE)
  Relative segment, address: CODE 0000DB0F - 0000DBF5 (0xe7 bytes), align: 0
  Segment part 99.            Intra module refs:   EnyB_Check_PowRev::?relay
           ENTRY                   ADDRESS         REF BY
           =====                   =======         ======
           EnyB_Check_PowRev       0000DB0F 
               calls direct, is not allocated
               not allocated function
    -------------------------------------------------------------------------
<BANKED_CODE> 2 (was BANKED_CODE)
  Relative segment, address: CODE 0000DBF6 - 0000DCEE (0xf9 bytes), align: 0
  Segment part 101.           Intra module refs:   EnyB_JbPm_Updata::?relay
           ENTRY                   ADDRESS         REF BY
           =====                   =======         ======
           EnyB_JbPm_Updata        0000DBF6 
               calls direct
               XSTACK = 00000018 ( 0000000E )
    -------------------------------------------------------------------------
<BANKED_CODE> 2 (was BANKED_CODE)
  Relative segment, address: CODE 0000DCEF - 0000DE8A (0x19c bytes), align: 0
  Segment part 105.           Intra module refs:   CalculateSC::?relay
           ENTRY                   ADDRESS         REF BY
           =====                   =======         ======
           CalculateSC             0000DCEF 
               XSTACK = 00000024 ( 00000010 )
               ISTACK = 00000000 ( 00000004 )
    -------------------------------------------------------------------------
<BANKED_CODE> 2 (was BANKED_CODE)
  Relative segment, address: CODE 0000DE8B - 0000DEEF (0x65 bytes), align: 0
  Segment part 107.           Intra module refs:   CalculateAC::?relay
           ENTRY                   ADDRESS         REF BY
           =====                   =======         ======
           CalculateAC             0000DE8B 
               XSTACK = 0000001C ( 00000010 )
    -------------------------------------------------------------------------
<BANKED_CODE> 2 (was BANKED_CODE)
  Relative segment, address: CODE 0000DEF0 - 0000DFD8 (0xe9 bytes), align: 0
  Segment part 109.           Intra module refs:   EnyB_AutoChkPW::?relay
           ENTRY                   ADDRESS         REF BY
           =====                   =======         ======
           EnyB_AutoChkPW          0000DEF0 
               calls direct
               XSTACK = 00000000 ( 00000024 )
    -------------------------------------------------------------------------
<BANKED_CODE> 2 (was BANKED_CODE)
  Relative segment, address: CODE 0000DFD9 - 0000E07A (0xa2 bytes), align: 0
  Segment part 113.           Intra module refs:   EnyB_AutoChkIrms::?relay
           ENTRY                   ADDRESS         REF BY
           =====                   =======         ======
           EnyB_AutoChkIrms        0000DFD9 
               calls direct
               XSTACK = 00000000 ( 0000001E )
    -------------------------------------------------------------------------
<BANKED_CODE> 2 (was BANKED_CODE)
  Relative segment, address: CODE 0000E07B - 0000E13E (0xc4 bytes), align: 0
  Segment part 115.           Intra module refs:   EnyB_AutoChkUrms::?relay
           ENTRY                   ADDRESS         REF BY
           =====                   =======         ======
           EnyB_AutoChkUrms        0000E07B 
               calls direct
               XSTACK = 00000000 ( 00000022 )
    -------------------------------------------------------------------------
<BANKED_CODE> 2 (was BANKED_CODE)
  Relative segment, address: CODE 0000E13F - 0000E23C (0xfe bytes), align: 0
  Segment part 117.           Intra module refs:   EnyB_AutoChkAngle::?relay
           ENTRY                   ADDRESS         REF BY
           =====                   =======         ======
           EnyB_AutoChkAngle       0000E13F 
               calls direct
               XSTACK = 00000000 ( 0000001C )
    -------------------------------------------------------------------------
<BANKED_CODE> 2 (was BANKED_CODE)
  Relative segment, address: CODE 0000E23D - 0000E271 (0x35 bytes), align: 0
  Segment part 121.           Intra module refs:   EnyB_AutoCheck::?relay
           ENTRY                   ADDRESS         REF BY
           =====                   =======         ======
           EnyB_AutoCheck          0000E23D 
               calls direct
               ISTACK = 00000000 ( 00000002 )
    -------------------------------------------------------------------------
<BANKED_CODE> 2 (was BANKED_CODE)
  Relative segment, address: CODE 0000E272 - 0000E2FD (0x8c bytes), align: 0
  Segment part 127.           Intra module refs:   EnyB_Check_OC::?relay
           ENTRY                   ADDRESS         REF BY
           =====                   =======         ======
           EnyB_Check_OC           0000E272 
               calls direct, is not allocated
               not allocated function
    -------------------------------------------------------------------------
CODE_C
  Relative segment, address: CODE 0000303D - 00003040 (0x4 bytes), align: 0
  Segment part 31.            Intra module refs:   CalRTC (RtcCpt)
                                                   CalcTimeGap (Timeproc)
                                                   Judge645Addr (Prcfrm)
                                                   MCUForPowerOff (McuDrive)
                                                   PMDspInit
                                                   frexp (?frexp)
                                                   sqrt (?sqrt)
           ENTRY                   ADDRESS         REF BY
           =====                   =======         ======
           __Constant_0            0000303D 
    -------------------------------------------------------------------------
CODE_C
  Relative segment, address: CODE 00003041 - 00003044 (0x4 bytes), align: 0
  Segment part 32.            Intra module refs:   PMDspInit
           ENTRY                   ADDRESS         REF BY
           =====                   =======         ======
           __Constant_10462d9      00003041 
    -------------------------------------------------------------------------
CODE_C
  Relative segment, address: CODE 00003045 - 00003048 (0x4 bytes), align: 0
  Segment part 33.            Intra module refs:   CalRMS
                                                   PMDspInit
           ENTRY                   ADDRESS         REF BY
           =====                   =======         ======
           __Constant_c8           00003045 
    -------------------------------------------------------------------------
CODE_C
  Relative segment, address: CODE 00003049 - 0000304C (0x4 bytes), align: 0
  Segment part 34.            Intra module refs:   PMDspInit
           ENTRY                   ADDRESS         REF BY
           =====                   =======         ======
           __Constant_8            00003049 
    -------------------------------------------------------------------------
CODE_C
  Relative segment, address: CODE 0000304D - 00003050 (0x4 bytes), align: 0
  Segment part 36.            Intra module refs:   PMDspInit
           ENTRY                   ADDRESS         REF BY
           =====                   =======         ======
           __Constant_5b           0000304D 
    -------------------------------------------------------------------------
CODE_C
  Relative segment, address: CODE 00003051 - 00003054 (0x4 bytes), align: 0
  Segment part 37.            Intra module refs:   PMDspInit
           ENTRY                   ADDRESS         REF BY
           =====                   =======         ======
           __Constant_70           00003051 
    -------------------------------------------------------------------------
CODE_C
  Relative segment, address: CODE 00003055 - 00003058 (0x4 bytes), align: 0
  Segment part 38.            Intra module refs:   PMDspInit
           ENTRY                   ADDRESS         REF BY
           =====                   =======         ======
           __Constant_c0           00003055 
    -------------------------------------------------------------------------
CODE_C
  Relative segment, address: CODE 00003059 - 0000305C (0x4 bytes), align: 0
  Segment part 39.            Intra module refs:   EnyB_Open_Cf
           ENTRY                   ADDRESS         REF BY
           =====                   =======         ======
           __Constant_d8           00003059 
    -------------------------------------------------------------------------
CODE_C
  Relative segment, address: CODE 0000305D - 00003060 (0x4 bytes), align: 0
  Segment part 40.            Intra module refs:   CalRMS
                                                   ShowStateManage (Lcdshow)
           ENTRY                   ADDRESS         REF BY
           =====                   =======         ======
           __Constant_200          0000305D 
    -------------------------------------------------------------------------
CODE_C
  Relative segment, address: CODE 00003061 - 00003064 (0x4 bytes), align: 0
  Segment part 41.            Intra module refs:   CalRMS
           ENTRY                   ADDRESS         REF BY
           =====                   =======         ======
           __Constant_46           00003061 
    -------------------------------------------------------------------------
CODE_C
  Relative segment, address: CODE 00003065 - 00003068 (0x4 bytes), align: 0
  Segment part 42.            Intra module refs:   CalCos
                                                   CalRMS
                                                   EnyB_AutoChkAngle
                                                   EnyB_AutoChkPW
                                                   ShowNumManage (Lcdshow)
           ENTRY                   ADDRESS         REF BY
           =====                   =======         ======
           __Constant_800000       00003065 
    -------------------------------------------------------------------------
CODE_C
  Relative segment, address: CODE 00003069 - 0000306C (0x4 bytes), align: 0
  Segment part 43.            Intra module refs:   CalRMS
           ENTRY                   ADDRESS         REF BY
           =====                   =======         ======
           __Constant_ffffeca9     00003069 
    -------------------------------------------------------------------------
CODE_C
  Relative segment, address: CODE 0000306D - 00003070 (0x4 bytes), align: 0
  Segment part 44.            Intra module refs:   CalRMS
           ENTRY                   ADDRESS         REF BY
           =====                   =======         ======
           __Constant_63           0000306D 
    -------------------------------------------------------------------------
CODE_C
  Relative segment, address: CODE 00003071 - 00003074 (0x4 bytes), align: 0
  Segment part 45.            Intra module refs:   CalRMS
           ENTRY                   ADDRESS         REF BY
           =====                   =======         ======
           __Constant_1194         00003071 
    -------------------------------------------------------------------------
CODE_C
  Relative segment, address: CODE 00003075 - 00003078 (0x4 bytes), align: 0
  Segment part 46.            Intra module refs:   CalRMS
           ENTRY                   ADDRESS         REF BY
           =====                   =======         ======
           __Constant_157d         00003075 
    -------------------------------------------------------------------------
CODE_C
  Relative segment, address: CODE 00003079 - 0000307C (0x4 bytes), align: 0
  Segment part 47.            Intra module refs:   CalCos
                                                   EnyB_AutoChkAngle
                                                   EnyB_AutoChkPW
                                                   ShowNumManage (Lcdshow)
           ENTRY                   ADDRESS         REF BY
           =====                   =======         ======
           __Constant_ff7fffff     00003079 
    -------------------------------------------------------------------------
CODE_C
  Relative segment, address: CODE 0000307D - 00003080 (0x4 bytes), align: 0
  Segment part 48.            Intra module refs:   CalCos
           ENTRY                   ADDRESS         REF BY
           =====                   =======         ======
           __Constant_7fffff       0000307D 
    -------------------------------------------------------------------------
CODE_C
  Relative segment, address: CODE 00003081 - 00003084 (0x4 bytes), align: 0
  Segment part 49.            Intra module refs:   CalCos
                                                   CalRTC (RtcCpt)
                                                   CalculateAC
                                                   CalculateSC
           ENTRY                   ADDRESS         REF BY
           =====                   =======         ======
           __Constant_3e8          00003081 
    -------------------------------------------------------------------------
CODE_C
  Relative segment, address: CODE 00003085 - 00003088 (0x4 bytes), align: 0
  Segment part 50.            Intra module refs:   CalCos
           ENTRY                   ADDRESS         REF BY
           =====                   =======         ======
           __Constant_990          00003085 
    -------------------------------------------------------------------------
CODE_C
  Relative segment, address: CODE 00003089 - 0000308C (0x4 bytes), align: 0
  Segment part 51.            Intra module refs:   CalCos
           ENTRY                   ADDRESS         REF BY
           =====                   =======         ======
           __Constant_fffffb70     00003089 
    -------------------------------------------------------------------------
CODE_C
  Relative segment, address: CODE 0000308D - 00003090 (0x4 bytes), align: 0
  Segment part 52.            Intra module refs:   CalCos
           ENTRY                   ADDRESS         REF BY
           =====                   =======         ======
           __Constant_81           0000308D 
    -------------------------------------------------------------------------
CODE_C
  Relative segment, address: CODE 00003091 - 00003094 (0x4 bytes), align: 0
  Segment part 53.            Intra module refs:   CalCos
           ENTRY                   ADDRESS         REF BY
           =====                   =======         ======
           __Constant_fffff870     00003091 
    -------------------------------------------------------------------------
CODE_C
  Relative segment, address: CODE 00003095 - 00003098 (0x4 bytes), align: 0
  Segment part 54.            Intra module refs:   CalCos
                                                   CalRTC (RtcCpt)
           ENTRY                   ADDRESS         REF BY
           =====                   =======         ======
           __Constant_101          00003095 
    -------------------------------------------------------------------------
CODE_C
  Relative segment, address: CODE 00003099 - 0000309C (0x4 bytes), align: 0
  Segment part 55.            Intra module refs:   CalCos
           ENTRY                   ADDRESS         REF BY
           =====                   =======         ======
           __Constant_51           00003099 
    -------------------------------------------------------------------------
CODE_C
  Relative segment, address: CODE 0000309D - 000030A0 (0x4 bytes), align: 0
  Segment part 56.            Intra module refs:   CalCos
                                                   ReadSQLogItem (PrologFee)
                                                   SeekDataID (PrologFee)
           ENTRY                   ADDRESS         REF BY
           =====                   =======         ======
           __Constant_500          0000309D 
    -------------------------------------------------------------------------
CODE_C
  Relative segment, address: CODE 000030A1 - 000030A4 (0x4 bytes), align: 0
  Segment part 57.            Intra module refs:   EnyB_Check_PowRev
           ENTRY                   ADDRESS         REF BY
           =====                   =======         ======
           __Constant_2001         000030A1 
    -------------------------------------------------------------------------
CODE_C
  Relative segment, address: CODE 000030A5 - 000030A8 (0x4 bytes), align: 0
  Segment part 59.            Intra module refs:   CalculateAC
           ENTRY                   ADDRESS         REF BY
           =====                   =======         ======
           __Constant_bc3          000030A5 
    -------------------------------------------------------------------------
CODE_C
  Relative segment, address: CODE 000030A9 - 000030AC (0x4 bytes), align: 0
  Segment part 60.            Intra module refs:   CalculateAC
           ENTRY                   ADDRESS         REF BY
           =====                   =======         ======
           __Constant_7d0          000030A9 
    -------------------------------------------------------------------------
CODE_C
  Relative segment, address: CODE 000030AD - 000030B0 (0x4 bytes), align: 0
  Segment part 64.            Intra module refs:   EnyB_AutoChkIrms
           ENTRY                   ADDRESS         REF BY
           =====                   =======         ======
           __Constant_19c          000030AD 
    -------------------------------------------------------------------------
CODE_C
  Relative segment, address: CODE 000030B1 - 000030B4 (0x4 bytes), align: 0
  Segment part 65.            Intra module refs:   EnyB_AutoChkUrms
           ENTRY                   ADDRESS         REF BY
           =====                   =======         ======
           __Constant_1a2          000030B1 
    -------------------------------------------------------------------------
BANK_RELAYS
  Relative segment, address: CODE 0000111A - 0000111F (0x6 bytes), align: 0
  Segment part 74.            Intra module refs:   CalRMS
                                                   EnyB_AutoChkIrms
                                                   EnyB_AutoChkPW
                                                   EnyB_AutoChkUrms
                                                   EnyB_Check_PowRev
           ENTRY                   ADDRESS         REF BY
           =====                   =======         ======
           EnyB_ReadMeterParaACK::?relay
                                   0000111A        CalRTC (RtcCpt)
                                                   FactoryRD (DLT_645_2007)
                                                   GetBat (McuDrive)
                                                   Mcu_BatCal (McuDrive)
                                                   Pow_DnProc (Powmanger)
    -------------------------------------------------------------------------
BANK_RELAYS
  Relative segment, address: CODE 00001120 - 00001125 (0x6 bytes), align: 0
  Segment part 76.            Intra module refs:   EnyB_AutoChkAngle
                                                   EnyB_AutoChkIrms
                                                   EnyB_AutoChkPW
                                                   EnyB_AutoChkUrms
                                                   EnyB_JbPm_Updata
                                                   EnyB_Open_Cf
                                                   PMDspInit
           ENTRY                   ADDRESS         REF BY
           =====                   =======         ======
           EnyB_SetMeterCfgACK::?relay
                                   00001120        MCUForPowerOff (McuDrive)
    -------------------------------------------------------------------------
BANK_RELAYS
  Relative segment, address: CODE 00001126 - 0000112B (0x6 bytes), align: 0
  Segment part 78.            Intra module refs:   EnyB_SetMeterRule
           ENTRY                   ADDRESS         REF BY
           =====                   =======         ======
           ADCInit::?relay         00001126 
    -------------------------------------------------------------------------
BANK_RELAYS
  Relative segment, address: CODE 0000112C - 00001131 (0x6 bytes), align: 0
  Segment part 80.            Intra module refs:   EnyB_SetMeterRule
           ENTRY                   ADDRESS         REF BY
           =====                   =======         ======
           PMDspInit::?relay       0000112C 
    -------------------------------------------------------------------------
BANK_RELAYS
  Relative segment, address: CODE 00001132 - 00001137 (0x6 bytes), align: 0
  Segment part 82.
           ENTRY                   ADDRESS         REF BY
           =====                   =======         ======
           EnyB_Open_Cf::?relay    00001132        TimeEventProc (main)
    -------------------------------------------------------------------------
BANK_RELAYS
  Relative segment, address: CODE 00001138 - 0000113D (0x6 bytes), align: 0
  Segment part 84.            Intra module refs:   EnyB_Open_Cf
           ENTRY                   ADDRESS         REF BY
           =====                   =======         ======
           EnyB_InitCFInt::?relay
                                   00001138 
    -------------------------------------------------------------------------
BANK_RELAYS
  Relative segment, address: CODE 0000113E - 00001143 (0x6 bytes), align: 0
  Segment part 86.
           ENTRY                   ADDRESS         REF BY
           =====                   =======         ======
           EnyB_SetMeterRule::?relay
                                   0000113E        main (main)
    -------------------------------------------------------------------------
BANK_RELAYS
  Relative segment, address: CODE 00001144 - 00001149 (0x6 bytes), align: 0
  Segment part 88.            Intra module refs:   EnyB_SetMeterRule
           ENTRY                   ADDRESS         REF BY
           =====                   =======         ======
           EnyB_PurInit::?relay    00001144 
    -------------------------------------------------------------------------
BANK_RELAYS
  Relative segment, address: CODE 0000114A - 0000114F (0x6 bytes), align: 0
  Segment part 90.
           ENTRY                   ADDRESS         REF BY
           =====                   =======         ======
           EnyB_JbPm_Init::?relay
                                   0000114A        Eny_JbPm_GetE2 (Energy)
    -------------------------------------------------------------------------
BANK_RELAYS
  Relative segment, address: CODE 00001150 - 00001155 (0x6 bytes), align: 0
  Segment part 92.
           ENTRY                   ADDRESS         REF BY
           =====                   =======         ======
           EnyB_IntCF::?relay      00001150        UATRAndCFInterrupt (System)
    -------------------------------------------------------------------------
BANK_RELAYS
  Relative segment, address: CODE 00001156 - 0000115B (0x6 bytes), align: 0
  Segment part 96.            Intra module refs:   CalCos
                                                   EnyB_AutoChkAngle
                                                   EnyB_AutoChkIrms
                                                   EnyB_AutoChkPW
                                                   EnyB_AutoChkUrms
                                                   EnyB_Check_OC
           ENTRY                   ADDRESS         REF BY
           =====                   =======         ======
           CalRMS::?relay          00001156        BgCtrFun (McuDrive)
                                                   IrShowLcd (DLT_645_2007)
                                                   KeyScan (Key)
                                                   Ldc_DataProc (LoadCurve)
                                                   PowUpLedCtl (McuDrive)
                                                   ReadVar (DLT_645_2007)
                                                   StructFreezeDate (Event)
                                                   Uart2_Receive (Uart2)
    -------------------------------------------------------------------------
BANK_RELAYS
  Relative segment, address: CODE 0000115C - 00001161 (0x6 bytes), align: 0
  Segment part 98.
           ENTRY                   ADDRESS         REF BY
           =====                   =======         ======
           CalCos::?relay          0000115C        Ldc_DataProc (LoadCurve)
                                                   ReadVar (DLT_645_2007)
    -------------------------------------------------------------------------
BANK_RELAYS
  Relative segment, address: CODE 00001162 - 00001167 (0x6 bytes), align: 0
  Segment part 100.
           ENTRY                   ADDRESS         REF BY
           =====                   =======         ======
           EnyB_Check_PowRev::?relay
                                   00001162        TimeEventProc (main)
    -------------------------------------------------------------------------
BANK_RELAYS
  Relative segment, address: CODE 00001168 - 0000116D (0x6 bytes), align: 0
  Segment part 102.           Intra module refs:   EnyB_AutoCheck
                                                   EnyB_AutoChkAngle
           ENTRY                   ADDRESS         REF BY
           =====                   =======         ======
           EnyB_JbPm_Updata::?relay
                                   00001168        Eny_JbPm_GetE2 (Energy)
                                                   Eny_RefVar (Energy)
    -------------------------------------------------------------------------
BANK_RELAYS
  Relative segment, address: CODE 0000116E - 00001173 (0x6 bytes), align: 0
  Segment part 106.           Intra module refs:   EnyB_AutoChkIrms
                                                   EnyB_AutoChkPW
                                                   EnyB_AutoChkUrms
           ENTRY                   ADDRESS         REF BY
           =====                   =======         ======
           CalculateSC::?relay     0000116E 
    -------------------------------------------------------------------------
BANK_RELAYS
  Relative segment, address: CODE 00001174 - 00001179 (0x6 bytes), align: 0
  Segment part 108.           Intra module refs:   EnyB_AutoChkAngle
           ENTRY                   ADDRESS         REF BY
           =====                   =======         ======
           CalculateAC::?relay     00001174 
    -------------------------------------------------------------------------
BANK_RELAYS
  Relative segment, address: CODE 0000117A - 0000117F (0x6 bytes), align: 0
  Segment part 110.           Intra module refs:   EnyB_AutoCheck
           ENTRY                   ADDRESS         REF BY
           =====                   =======         ======
           EnyB_AutoChkPW::?relay
                                   0000117A 
    -------------------------------------------------------------------------
BANK_RELAYS
  Relative segment, address: CODE 00001180 - 00001185 (0x6 bytes), align: 0
  Segment part 114.           Intra module refs:   EnyB_AutoCheck
           ENTRY                   ADDRESS         REF BY
           =====                   =======         ======
           EnyB_AutoChkIrms::?relay
                                   00001180 
    -------------------------------------------------------------------------
BANK_RELAYS
  Relative segment, address: CODE 00001186 - 0000118B (0x6 bytes), align: 0
  Segment part 116.           Intra module refs:   EnyB_AutoCheck
           ENTRY                   ADDRESS         REF BY
           =====                   =======         ======
           EnyB_AutoChkUrms::?relay
                                   00001186 
    -------------------------------------------------------------------------
BANK_RELAYS
  Relative segment, address: CODE 0000118C - 00001191 (0x6 bytes), align: 0
  Segment part 118.
           ENTRY                   ADDRESS         REF BY
           =====                   =======         ======
           EnyB_AutoChkAngle::?relay
                                   0000118C        FactoryWR (DLT_645_2007)
    -------------------------------------------------------------------------
BANK_RELAYS
  Relative segment, address: CODE 00001192 - 00001197 (0x6 bytes), align: 0
  Segment part 122.
           ENTRY                   ADDRESS         REF BY
           =====                   =======         ======
           EnyB_AutoCheck::?relay
                                   00001192        FactoryWR (DLT_645_2007)
    -------------------------------------------------------------------------
BANK_RELAYS
  Relative segment, address: CODE 00001198 - 0000119D (0x6 bytes), align: 0
  Segment part 128.
           ENTRY                   ADDRESS         REF BY
           =====                   =======         ======
           EnyB_Check_OC::?relay   00001198        TimeEventProc (main)

    *************************************************************************

  FILE NAME : F:\SVN\06solution\Projects\农网\D105\Sw\Debug\Obj\Event.r51
  PROGRAM MODULE, NAME : Event

  SEGMENTS IN THE MODULE
  ======================
XDATA_Z
  Relative segment, address: XDATA 0000089D - 0000089D (0x1 bytes), align: 0
  Segment part 11.            Intra module refs:   Data_ClearEvent
           ENTRY                   ADDRESS         REF BY
           =====                   =======         ======
           guc_ClearType           0000089D        ClearEvent (DLT_645_2007)
    -------------------------------------------------------------------------
CODE_C
  Relative segment, address: CODE 000030B5 - 000030E6 (0x32 bytes), align: 0
  Segment part 13.            Intra module refs:   Com_ClearEventJL
           ENTRY                   ADDRESS         REF BY
           =====                   =======         ======
           gs_ClearEvent           000030B5        ClearEvent (DLT_645_2007)
    -------------------------------------------------------------------------
CODE_C
  Relative segment, address: CODE 000030E7 - 000030E7 (0x1 bytes), align: 0
  Segment part 14.
           ENTRY                   ADDRESS         REF BY
           =====                   =======         ======
           CntgClrE                000030E7        ClearEvent (DLT_645_2007)
    -------------------------------------------------------------------------
<BANKED_CODE> 3 (was BANKED_CODE)
  Relative segment, address: CODE 00018B42 - 00018EF5 (0x3b4 bytes), align: 0
  Segment part 20.            Intra module refs:   Data_ClearEvent::?relay
           ENTRY                   ADDRESS         REF BY
           =====                   =======         ======
           Data_ClearEvent         00018B42 
               calls direct, is not allocated
               not allocated function
    -------------------------------------------------------------------------
<BANKED_CODE> 3 (was BANKED_CODE)
  Relative segment, address: CODE 00018EF6 - 00018F7B (0x86 bytes), align: 0
  Segment part 22.            Intra module refs:   PowerJL::?relay
           ENTRY                   ADDRESS         REF BY
           =====                   =======         ======
           PowerJL                 00018EF6 
               calls direct, is not allocated
               not allocated function
    -------------------------------------------------------------------------
<BANKED_CODE> 3 (was BANKED_CODE)
  Relative segment, address: CODE 00018F7C - 00019021 (0xa6 bytes), align: 0
  Segment part 24.            Intra module refs:   Com_JSJL::?relay
           ENTRY                   ADDRESS         REF BY
           =====                   =======         ======
           Com_JSJL                00018F7C 
               calls direct
               XSTACK = 00000002 ( 0000000D )
    -------------------------------------------------------------------------
<BANKED_CODE> 3 (was BANKED_CODE)
  Relative segment, address: CODE 00019022 - 0001910D (0xec bytes), align: 0
  Segment part 30.            Intra module refs:   Com_ClearMeterJL::?relay
           ENTRY                   ADDRESS         REF BY
           =====                   =======         ======
           Com_ClearMeterJL        00019022 
               calls direct, is not allocated
               not allocated function
    -------------------------------------------------------------------------
<BANKED_CODE> 3 (was BANKED_CODE)
  Relative segment, address: CODE 0001910E - 00019184 (0x77 bytes), align: 0
  Segment part 32.            Intra module refs:   Com_ClearEventJL::?relay
           ENTRY                   ADDRESS         REF BY
           =====                   =======         ======
           Com_ClearEventJL        0001910E 
               calls direct, is not allocated
               not allocated function
    -------------------------------------------------------------------------
<BANKED_CODE> 3 (was BANKED_CODE)
  Relative segment, address: CODE 00019185 - 00019248 (0xc4 bytes), align: 0
  Segment part 34.            Intra module refs:   SaveProgramLog::?relay
           ENTRY                   ADDRESS         REF BY
           =====                   =======         ======
           SaveProgramLog          00019185 
               calls direct
               XSTACK = 00000000 ( 0000000C )
    -------------------------------------------------------------------------
<BANKED_CODE> 3 (was BANKED_CODE)
  Relative segment, address: CODE 00019249 - 000193BE (0x176 bytes), align: 0
  Segment part 36.            Intra module refs:   StructFreezeDate::?relay
           ENTRY                   ADDRESS         REF BY
           =====                   =======         ======
           StructFreezeDate        00019249 
               calls direct, is not allocated
               not allocated function
    -------------------------------------------------------------------------
<BANKED_CODE> 3 (was BANKED_CODE)
  Relative segment, address: CODE 000193BF - 000193DC (0x1e bytes), align: 0
  Segment part 46.            Intra module refs:   RSDFrez::?relay
           ENTRY                   ADDRESS         REF BY
           =====                   =======         ======
           RSDFrez                 000193BF 
               calls direct, is not allocated
               not allocated function
    -------------------------------------------------------------------------
<BANKED_CODE> 3 (was BANKED_CODE)
  Relative segment, address: CODE 000193DD - 000193FA (0x1e bytes), align: 0
  Segment part 48.            Intra module refs:   SQFrez::?relay
           ENTRY                   ADDRESS         REF BY
           =====                   =======         ======
           SQFrez                  000193DD 
               calls direct, is not allocated
               not allocated function
    -------------------------------------------------------------------------
<BANKED_CODE> 3 (was BANKED_CODE)
  Relative segment, address: CODE 000193FB - 000194EA (0xf0 bytes), align: 0
  Segment part 50.            Intra module refs:   CoverOpenLog::?relay
           ENTRY                   ADDRESS         REF BY
           =====                   =======         ======
           CoverOpenLog            000193FB 
               calls direct, is not allocated
               not allocated function
    -------------------------------------------------------------------------
<BANKED_CODE> 3 (was BANKED_CODE)
  Relative segment, address: CODE 000194EB - 000195DA (0xf0 bytes), align: 0
  Segment part 52.            Intra module refs:   CoverCloseLog::?relay
           ENTRY                   ADDRESS         REF BY
           =====                   =======         ======
           CoverCloseLog           000194EB 
               calls direct, is not allocated
               not allocated function
    -------------------------------------------------------------------------
BANK_RELAYS
  Relative segment, address: CODE 0000119E - 000011A3 (0x6 bytes), align: 0
  Segment part 21.
           ENTRY                   ADDRESS         REF BY
           =====                   =======         ======
           Data_ClearEvent::?relay
                                   0000119E        SysEventProc (main)
    -------------------------------------------------------------------------
BANK_RELAYS
  Relative segment, address: CODE 000011A4 - 000011A9 (0x6 bytes), align: 0
  Segment part 23.
           ENTRY                   ADDRESS         REF BY
           =====                   =======         ======
           PowerJL::?relay         000011A4        EnyB_Check_OC (EnergyBottom)
                                                   RecoverEnegyData (Dataproc)
    -------------------------------------------------------------------------
BANK_RELAYS
  Relative segment, address: CODE 000011AA - 000011AF (0x6 bytes), align: 0
  Segment part 25.
           ENTRY                   ADDRESS         REF BY
           =====                   =======         ======
           Com_JSJL::?relay        000011AA        RwSysTime (DLT_645_2007)
    -------------------------------------------------------------------------
BANK_RELAYS
  Relative segment, address: CODE 000011B0 - 000011B5 (0x6 bytes), align: 0
  Segment part 31.
           ENTRY                   ADDRESS         REF BY
           =====                   =======         ======
           Com_ClearMeterJL::?relay
                                   000011B0        Data_ClearMeter (Dataproc)
    -------------------------------------------------------------------------
BANK_RELAYS
  Relative segment, address: CODE 000011B6 - 000011BB (0x6 bytes), align: 0
  Segment part 33.            Intra module refs:   Data_ClearEvent
           ENTRY                   ADDRESS         REF BY
           =====                   =======         ======
           Com_ClearEventJL::?relay
                                   000011B6 
    -------------------------------------------------------------------------
BANK_RELAYS
  Relative segment, address: CODE 000011BC - 000011C1 (0x6 bytes), align: 0
  Segment part 35.
           ENTRY                   ADDRESS         REF BY
           =====                   =======         ======
           SaveProgramLog::?relay
                                   000011BC        RWData (DLT_645_2007)
    -------------------------------------------------------------------------
BANK_RELAYS
  Relative segment, address: CODE 000011C2 - 000011C7 (0x6 bytes), align: 0
  Segment part 37.            Intra module refs:   RSDFrez
                                                   SQFrez
           ENTRY                   ADDRESS         REF BY
           =====                   =======         ======
           StructFreezeDate::?relay
                                   000011C2 
    -------------------------------------------------------------------------
BANK_RELAYS
  Relative segment, address: CODE 000011C8 - 000011CD (0x6 bytes), align: 0
  Segment part 47.
           ENTRY                   ADDRESS         REF BY
           =====                   =======         ======
           RSDFrez::?relay         000011C8        IsNumSD (Multariff)
    -------------------------------------------------------------------------
BANK_RELAYS
  Relative segment, address: CODE 000011CE - 000011D3 (0x6 bytes), align: 0
  Segment part 49.
           ENTRY                   ADDRESS         REF BY
           =====                   =======         ======
           SQFrez::?relay          000011CE        IsNumSQ (Multariff)
    -------------------------------------------------------------------------
BANK_RELAYS
  Relative segment, address: CODE 000011D4 - 000011D9 (0x6 bytes), align: 0
  Segment part 51.
           ENTRY                   ADDRESS         REF BY
           =====                   =======         ======
           CoverOpenLog::?relay    000011D4        CoverKeyScan (Key)
    -------------------------------------------------------------------------
BANK_RELAYS
  Relative segment, address: CODE 000011DA - 000011DF (0x6 bytes), align: 0
  Segment part 53.
           ENTRY                   ADDRESS         REF BY
           =====                   =======         ======
           CoverCloseLog::?relay   000011DA        CoverKeyScan (Key)

    *************************************************************************

  FILE NAME : F:\SVN\06solution\Projects\农网\D105\Sw\Debug\Obj\FunCfg.r51
  PROGRAM MODULE, NAME : FunCfg

  SEGMENTS IN THE MODULE
  ======================
XDATA_Z
  Relative segment, address: XDATA 0000089E - 000008AE (0x11 bytes), align: 0
  Segment part 6.             Intra module refs:   CfgCheck
                                                   RecoverCfg
                                                   Up_FunCfg
           ENTRY                   ADDRESS         REF BY
           =====                   =======         ======
           gs_FunCfg               0000089E        EnyB_IntCF (EnergyBottom)
                                                   Eny_EnergyActiveSave (Energy)
                                                   Eny_GetEp1 (Energy)
                                                   IsNumSD (Multariff)
                                                   IsNumSQ (Multariff)
                                                   ShowNumManage (Lcdshow)
    -------------------------------------------------------------------------
<BANKED_CODE> 3 (was BANKED_CODE)
  Relative segment, address: CODE 0001DF27 - 0001DF7A (0x54 bytes), align: 0
  Segment part 10.            Intra module refs:   RecoverCfg::?relay
           ENTRY                   ADDRESS         REF BY
           =====                   =======         ======
           RecoverCfg              0001DF27 
               calls direct, is not allocated
               not allocated function
    -------------------------------------------------------------------------
<BANKED_CODE> 3 (was BANKED_CODE)
  Relative segment, address: CODE 0001DF7B - 0001E108 (0x18e bytes), align: 0
  Segment part 12.            Intra module refs:   Up_FunCfg::?relay
           ENTRY                   ADDRESS         REF BY
           =====                   =======         ======
           Up_FunCfg               0001DF7B 
               calls direct, is not allocated
               not allocated function
    -------------------------------------------------------------------------
<BANKED_CODE> 3 (was BANKED_CODE)
  Relative segment, address: CODE 0001E109 - 0001E152 (0x4a bytes), align: 0
  Segment part 14.            Intra module refs:   CfgCheck::?relay
           ENTRY                   ADDRESS         REF BY
           =====                   =======         ======
           CfgCheck                0001E109 
               calls direct, is not allocated
               not allocated function
    -------------------------------------------------------------------------
BANK_RELAYS
  Relative segment, address: CODE 000011E0 - 000011E5 (0x6 bytes), align: 0
  Segment part 11.            Intra module refs:   Up_FunCfg
           ENTRY                   ADDRESS         REF BY
           =====                   =======         ======
           RecoverCfg::?relay      000011E0        RecoverPara (Dataproc)
    -------------------------------------------------------------------------
BANK_RELAYS
  Relative segment, address: CODE 000011E6 - 000011EB (0x6 bytes), align: 0
  Segment part 13.            Intra module refs:   CfgCheck
           ENTRY                   ADDRESS         REF BY
           =====                   =======         ======
           Up_FunCfg::?relay       000011E6 
    -------------------------------------------------------------------------
BANK_RELAYS
  Relative segment, address: CODE 000011EC - 000011F1 (0x6 bytes), align: 0
  Segment part 15.
           ENTRY                   ADDRESS         REF BY
           =====                   =======         ======
           CfgCheck::?relay        000011EC        Data_MinProc (Dataproc)

    *************************************************************************

  FILE NAME : F:\SVN\06solution\Projects\农网\D105\Sw\Debug\Obj\InitPara.r51
  PROGRAM MODULE, NAME : InitPara

  SEGMENTS IN THE MODULE
  ======================
XDATA_Z
  Relative segment, address: XDATA 000008AF - 000008AF (0x1 bytes), align: 0
  Segment part 27.
           ENTRY                   ADDRESS         REF BY
           =====                   =======         ======
           guc_RTCSave             000008AF        FactoryWR (DLT_645_2007)
    -------------------------------------------------------------------------
CODE_AC
  Relative segment, address: CODE 00000800 - 0000083D (0x3e bytes), align: 0
  Segment part 3. ROOT.
           ENTRY                   ADDRESS         REF BY
           =====                   =======         ======
           InitPara0               00000800 
    -------------------------------------------------------------------------
CODE_AC
  Relative segment, address: CODE 0000083E - 0000087B (0x3e bytes), align: 0
  Segment part 4. ROOT.
           ENTRY                   ADDRESS         REF BY
           =====                   =======         ======
           InitPara1               0000083E 
    -------------------------------------------------------------------------
CODE_AC
  Relative segment, address: CODE 0000087C - 000008B9 (0x3e bytes), align: 0
  Segment part 5. ROOT.
           ENTRY                   ADDRESS         REF BY
           =====                   =======         ======
           InitPara2               0000087C 
    -------------------------------------------------------------------------
CODE_AC
  Relative segment, address: CODE 000008BA - 000008F7 (0x3e bytes), align: 0
  Segment part 6. ROOT.
           ENTRY                   ADDRESS         REF BY
           =====                   =======         ======
           InitPara3               000008BA 
    -------------------------------------------------------------------------
CODE_AC
  Relative segment, address: CODE 000008F8 - 00000911 (0x1a bytes), align: 0
  Segment part 7. ROOT.
           ENTRY                   ADDRESS         REF BY
           =====                   =======         ======
           InitPara4               000008F8 
    -------------------------------------------------------------------------
CODE_AC
  Relative segment, address: CODE 00000912 - 0000094E (0x3d bytes), align: 0
  Segment part 8. ROOT.
           ENTRY                   ADDRESS         REF BY
           =====                   =======         ======
           InitPara5               00000912        EnyB_JbPm_Init (EnergyBottom)
                                                   FactoryWR (DLT_645_2007)
    -------------------------------------------------------------------------
CODE_AC
  Relative segment, address: CODE 0000094F - 00000955 (0x7 bytes), align: 0
  Segment part 9. ROOT.
           ENTRY                   ADDRESS         REF BY
           =====                   =======         ======
           InitPara6               0000094F 
    -------------------------------------------------------------------------
CODE_AC
  Relative segment, address: CODE 00000956 - 00000993 (0x3e bytes), align: 0
  Segment part 10. ROOT.
           ENTRY                   ADDRESS         REF BY
           =====                   =======         ======
           InitPara7               00000956 
    -------------------------------------------------------------------------
CODE_AC
  Relative segment, address: CODE 00000994 - 000009AA (0x17 bytes), align: 0
  Segment part 11. ROOT.
           ENTRY                   ADDRESS         REF BY
           =====                   =======         ======
           InitPara8               00000994 
    -------------------------------------------------------------------------
CODE_AC
  Relative segment, address: CODE 000009AB - 000009D4 (0x2a bytes), align: 0
  Segment part 12. ROOT.
           ENTRY                   ADDRESS         REF BY
           =====                   =======         ======
           InitPara9               000009AB 
    -------------------------------------------------------------------------
CODE_AC
  Relative segment, address: CODE 000009D5 - 000009FE (0x2a bytes), align: 0
  Segment part 13. ROOT.
           ENTRY                   ADDRESS         REF BY
           =====                   =======         ======
           InitPara10              000009D5 
    -------------------------------------------------------------------------
CODE_AC
  Relative segment, address: CODE 000009FF - 00000A28 (0x2a bytes), align: 0
  Segment part 14. ROOT.
           ENTRY                   ADDRESS         REF BY
           =====                   =======         ======
           InitPara18              000009FF 
    -------------------------------------------------------------------------
CODE_AC
  Relative segment, address: CODE 00000A29 - 00000A52 (0x2a bytes), align: 0
  Segment part 15. ROOT.
           ENTRY                   ADDRESS         REF BY
           =====                   =======         ======
           InitPara19              00000A29 
    -------------------------------------------------------------------------
CODE_AC
  Relative segment, address: CODE 00000A53 - 00000A72 (0x20 bytes), align: 0
  Segment part 16. ROOT.
           ENTRY                   ADDRESS         REF BY
           =====                   =======         ======
           InitPara27              00000A53 
    -------------------------------------------------------------------------
CODE_AC
  Relative segment, address: CODE 00000A73 - 00000A92 (0x20 bytes), align: 0
  Segment part 17. ROOT.
           ENTRY                   ADDRESS         REF BY
           =====                   =======         ======
           InitPara28              00000A73 
    -------------------------------------------------------------------------
CODE_AC
  Relative segment, address: CODE 00000A93 - 00000AF6 (0x64 bytes), align: 0
  Segment part 18. ROOT.
           ENTRY                   ADDRESS         REF BY
           =====                   =======         ======
           InitPara29              00000A93 
    -------------------------------------------------------------------------
CODE_AC
  Relative segment, address: CODE 00000AF7 - 00000BC3 (0xcd bytes), align: 0
  Segment part 19. ROOT.
           ENTRY                   ADDRESS         REF BY
           =====                   =======         ======
           InitPara37              00000AF7 
    -------------------------------------------------------------------------
CODE_AC
  Relative segment, address: CODE 00000C00 - 00000C05 (0x6 bytes), align: 0
  Segment part 20. ROOT.
           ENTRY                   ADDRESS         REF BY
           =====                   =======         ======
           InitPara38              00000C00        Data_FactoryClr (Dataproc)
                                                   InitLCD (LcdBottom)
                                                   SetPLL13M (McuDrive)
                                                   SetPLL800K (McuDrive)
    -------------------------------------------------------------------------
CODE_AC
  Relative segment, address: CODE 00000D00 - 00000D3F (0x40 bytes), align: 0
  Segment part 21. ROOT.
           ENTRY                   ADDRESS         REF BY
           =====                   =======         ======
           InitParaRTC             00000D00        CalRTC (RtcCpt)
    -------------------------------------------------------------------------
CODE_C
  Relative segment, address: CODE 000030E8 - 000030EB (0x4 bytes), align: 0
  Segment part 30.            Intra module refs:   Rpt_Crc (Report)
                                                   Rpt_Recover (Report)
           ENTRY                   ADDRESS         REF BY
           =====                   =======         ======
           __Constant_f09          000030E8 

    *************************************************************************

  FILE NAME : F:\SVN\06solution\Projects\农网\D105\Sw\Debug\Obj\Key.r51
  PROGRAM MODULE, NAME : Key

  SEGMENTS IN THE MODULE
  ======================
SFR_AN
  Relative segment, address: DATA 000000C7 - 000000C7 (0x1 bytes), align: 0
  Segment part 1. ROOT.       Intra module refs:   IOOFF (McuDrive)
                                                   Init_Port (McuDrive)
           ENTRY                   ADDRESS         REF BY
           =====                   =======         ======
           IOEDG                   000000C7 
    -------------------------------------------------------------------------
XDATA_AN
  Relative segment, address: XDATA 000028AC - 000028AC (0x1 bytes), align: 0
  Segment part 6. ROOT.       Intra module refs:   IOOFF (McuDrive)
                                                   Init_Port (McuDrive)
                                                   Init_Uart1 (Uart1)
                                                   KeyInit
           ENTRY                   ADDRESS         REF BY
           =====                   =======         ======
           P1OE                    000028AC 
    -------------------------------------------------------------------------
XDATA_AN
  Relative segment, address: XDATA 000028AD - 000028AD (0x1 bytes), align: 0
  Segment part 7. ROOT.       Intra module refs:   IOOFF (McuDrive)
                                                   Init_Port (McuDrive)
                                                   Init_Uart1 (Uart1)
                                                   KeyInit
           ENTRY                   ADDRESS         REF BY
           =====                   =======         ======
           P1IE                    000028AD 
    -------------------------------------------------------------------------
XDATA_AN
  Relative segment, address: XDATA 000028AF - 000028AF (0x1 bytes), align: 0
  Segment part 8. ROOT.       Intra module refs:   CoverKeyScan
                                                   IOOFF (McuDrive)
                                                   KeyScan
           ENTRY                   ADDRESS         REF BY
           =====                   =======         ======
           P1ID                    000028AF 
    -------------------------------------------------------------------------
XDATA_AN
  Relative segment, address: XDATA 000028C7 - 000028C7 (0x1 bytes), align: 0
  Segment part 9. ROOT.       Intra module refs:   IOOFF (McuDrive)
                                                   KeyInit
           ENTRY                   ADDRESS         REF BY
           =====                   =======         ======
           P13FS                   000028C7 
    -------------------------------------------------------------------------
XDATA_AN
  Relative segment, address: XDATA 000028C8 - 000028C8 (0x1 bytes), align: 0
  Segment part 10. ROOT.      Intra module refs:   IOOFF (McuDrive)
                                                   KeyInit
           ENTRY                   ADDRESS         REF BY
           =====                   =======         ======
           P14FS                   000028C8 
    -------------------------------------------------------------------------
IDATA_Z
  Relative segment, address: IDATA 00000033 - 00000042 (0x10 bytes), align: 0
  Segment part 18.            Intra module refs:   KeyInit
                                                   KeyScan
           ENTRY                   ADDRESS         REF BY
           =====                   =======         ======
           gs_KeyCtr               00000033 
    -------------------------------------------------------------------------
XDATA_Z
  Relative segment, address: XDATA 000008B0 - 000008B0 (0x1 bytes), align: 0
  Segment part 19.            Intra module refs:   KeyScan
           ENTRY                   ADDRESS         REF BY
           =====                   =======         ======
           guc_DyBgLed             000008B0        BgCtrFun (McuDrive)
                                                   IrShowLcd (DLT_645_2007)
                                                   PowUpLedCtl (McuDrive)
                                                   ShowSysStart (Lcdshow)
                                                   Uart2_Receive (Uart2)
    -------------------------------------------------------------------------
XDATA_Z
  Relative segment, address: XDATA 000008B1 - 000008B2 (0x2 bytes), align: 0
  Segment part 20.            Intra module refs:   KeyPgm_DyOut
           ENTRY                   ADDRESS         REF BY
           =====                   =======         ======
           gui_DyPgmOut            000008B1        CalPowDwTm (Dataproc)
                                                   Pow_DnProc (Powmanger)
    -------------------------------------------------------------------------
XDATA_Z
  Relative segment, address: XDATA 000008B3 - 000008B4 (0x2 bytes), align: 0
  Segment part 21.            Intra module refs:   KeyPgm_DyOut
           ENTRY                   ADDRESS         REF BY
           =====                   =======         ======
           gui_DyProDmOut          000008B3        CalPowDwTm (Dataproc)
                                                   FactoryWR (DLT_645_2007)
                                                   Pow_DnProc (Powmanger)
    -------------------------------------------------------------------------
XDATA_Z
  Relative segment, address: XDATA 000008B5 - 000008B5 (0x1 bytes), align: 0
  Segment part 22.
           ENTRY                   ADDRESS         REF BY
           =====                   =======         ======
           guc_PrOutTm             000008B5        Init_Var (main)
                                                   ShowSecondProc (Lcdshow)
    -------------------------------------------------------------------------
XDATA_Z
  Relative segment, address: XDATA 000008B6 - 000008B6 (0x1 bytes), align: 0
  Segment part 23.
           ENTRY                   ADDRESS         REF BY
           =====                   =======         ======
           guc_PrKeyNewDown        000008B6        Data_ClearEvent (Event)
                                                   Data_ClearMeter (Dataproc)
                                                   SaveProgramLog (Event)
    -------------------------------------------------------------------------
XDATA_Z
  Relative segment, address: XDATA 000008B7 - 000008B7 (0x1 bytes), align: 0
  Segment part 24.            Intra module refs:   CoverKeyScan
           ENTRY                   ADDRESS         REF BY
           =====                   =======         ======
           guc_CoverStatus         000008B7        Data_ClearEvent (Event)
                                                   Data_ClearMeter (Dataproc)
                                                   IOOFF (McuDrive)
                                                   Init_Var (main)
    -------------------------------------------------------------------------
XDATA_Z
  Relative segment, address: XDATA 000008B8 - 000008B8 (0x1 bytes), align: 0
  Segment part 26.            Intra module refs:   CoverKeyScan
           ENTRY                   ADDRESS         REF BY
           =====                   =======         ======
           guc_CoverKeyDwCnt       000008B8        Init_Var (main)
    -------------------------------------------------------------------------
XDATA_Z
  Relative segment, address: XDATA 000008B9 - 000008B9 (0x1 bytes), align: 0
  Segment part 27.            Intra module refs:   CoverKeyScan
           ENTRY                   ADDRESS         REF BY
           =====                   =======         ======
           guc_CoverKeyUpCnt       000008B9 
    -------------------------------------------------------------------------
<BANKED_CODE> 3 (was BANKED_CODE)
  Relative segment, address: CODE 0001D592 - 0001D5EB (0x5a bytes), align: 0
  Segment part 33.            Intra module refs:   KeyInit::?relay
           ENTRY                   ADDRESS         REF BY
           =====                   =======         ======
           KeyInit                 0001D592 
               is not allocated
               not allocated function
    -------------------------------------------------------------------------
<BANKED_CODE> 3 (was BANKED_CODE)
  Relative segment, address: CODE 0001D5EC - 0001D6F8 (0x10d bytes), align: 0
  Segment part 35.            Intra module refs:   KeyScan::?relay
           ENTRY                   ADDRESS         REF BY
           =====                   =======         ======
           KeyScan                 0001D5EC 
               calls direct
               XSTACK = 00000000 ( 0000000C )
               ISTACK = 00000000 ( 00000002 )
    -------------------------------------------------------------------------
<BANKED_CODE> 3 (was BANKED_CODE)
  Relative segment, address: CODE 0001D6F9 - 0001D760 (0x68 bytes), align: 0
  Segment part 39.            Intra module refs:   CoverKeyScan::?relay
           ENTRY                   ADDRESS         REF BY
           =====                   =======         ======
           CoverKeyScan            0001D6F9 
               calls direct, is not allocated
               not allocated function
    -------------------------------------------------------------------------
<BANKED_CODE> 3 (was BANKED_CODE)
  Relative segment, address: CODE 0001D761 - 0001D81C (0xbc bytes), align: 0
  Segment part 47.            Intra module refs:   KeyPgm_DyOut::?relay
           ENTRY                   ADDRESS         REF BY
           =====                   =======         ======
           KeyPgm_DyOut            0001D761 
               calls direct, is not allocated
               not allocated function
    -------------------------------------------------------------------------
BANK_RELAYS
  Relative segment, address: CODE 000011F2 - 000011F7 (0x6 bytes), align: 0
  Segment part 34.
           ENTRY                   ADDRESS         REF BY
           =====                   =======         ======
           KeyInit::?relay         000011F2        CPUInit (McuDrive)
    -------------------------------------------------------------------------
BANK_RELAYS
  Relative segment, address: CODE 000011F8 - 000011FD (0x6 bytes), align: 0
  Segment part 36.
           ENTRY                   ADDRESS         REF BY
           =====                   =======         ======
           KeyScan::?relay         000011F8        Timer2Interrupt (System)
    -------------------------------------------------------------------------
BANK_RELAYS
  Relative segment, address: CODE 000011FE - 00001203 (0x6 bytes), align: 0
  Segment part 40.
           ENTRY                   ADDRESS         REF BY
           =====                   =======         ======
           CoverKeyScan::?relay    000011FE        TimeEventProc (main)
    -------------------------------------------------------------------------
BANK_RELAYS
  Relative segment, address: CODE 00001204 - 00001209 (0x6 bytes), align: 0
  Segment part 48.
           ENTRY                   ADDRESS         REF BY
           =====                   =======         ======
           KeyPgm_DyOut::?relay    00001204        ShowSecondProc (Lcdshow)

    *************************************************************************

  FILE NAME : F:\SVN\06solution\Projects\农网\D105\Sw\Debug\Obj\LcdBottom.r51
  PROGRAM MODULE, NAME : LcdBottom

  SEGMENTS IN THE MODULE
  ======================
XDATA_AN
  Relative segment, address: XDATA 00002C01 - 00002C01 (0x1 bytes), align: 0
  Segment part 2. ROOT.       Intra module refs:   RefreshLCDRAM
           ENTRY                   ADDRESS         REF BY
           =====                   =======         ======
           LCDM1                   00002C01 
    -------------------------------------------------------------------------
XDATA_AN
  Relative segment, address: XDATA 00002C02 - 00002C02 (0x1 bytes), align: 0
  Segment part 3. ROOT.       Intra module refs:   RefreshLCDRAM
           ENTRY                   ADDRESS         REF BY
           =====                   =======         ======
           LCDM2                   00002C02 
    -------------------------------------------------------------------------
XDATA_AN
  Relative segment, address: XDATA 00002C03 - 00002C03 (0x1 bytes), align: 0
  Segment part 4. ROOT.       Intra module refs:   RefreshLCDRAM
           ENTRY                   ADDRESS         REF BY
           =====                   =======         ======
           LCDM3                   00002C03 
    -------------------------------------------------------------------------
XDATA_AN
  Relative segment, address: XDATA 0000285E - 0000285E (0x1 bytes), align: 0
  Segment part 5. ROOT.       Intra module refs:   InitLCD
                                                   Sleep (McuDrive)
           ENTRY                   ADDRESS         REF BY
           =====                   =======         ======
           CtrlLCDV                0000285E 
    -------------------------------------------------------------------------
XDATA_AN
  Relative segment, address: XDATA 00002C1E - 00002C1E (0x1 bytes), align: 0
  Segment part 6. ROOT.       Intra module refs:   InitLCD
                                                   LCD_Off
           ENTRY                   ADDRESS         REF BY
           =====                   =======         ======
           LCDCtrl                 00002C1E 
    -------------------------------------------------------------------------
XDATA_AN
  Relative segment, address: XDATA 00002C1F - 00002C1F (0x1 bytes), align: 0
  Segment part 7. ROOT.       Intra module refs:   InitLCD
                                                   LCD_Off
           ENTRY                   ADDRESS         REF BY
           =====                   =======         ======
           SegCtrl0                00002C1F 
    -------------------------------------------------------------------------
XDATA_AN
  Relative segment, address: XDATA 00002C20 - 00002C20 (0x1 bytes), align: 0
  Segment part 8. ROOT.       Intra module refs:   InitLCD
                                                   LCD_Off
           ENTRY                   ADDRESS         REF BY
           =====                   =======         ======
           SegCtrl1                00002C20 
    -------------------------------------------------------------------------
XDATA_AN
  Relative segment, address: XDATA 00002C21 - 00002C21 (0x1 bytes), align: 0
  Segment part 9. ROOT.       Intra module refs:   InitLCD
                                                   LCD_Off
           ENTRY                   ADDRESS         REF BY
           =====                   =======         ======
           SegCtrl2                00002C21 
    -------------------------------------------------------------------------
XDATA_AN
  Relative segment, address: XDATA 00002C22 - 00002C22 (0x1 bytes), align: 0
  Segment part 10. ROOT.      Intra module refs:   InitLCD
                                                   LCD_Off
           ENTRY                   ADDRESS         REF BY
           =====                   =======         ======
           SegCtrl3                00002C22 
    -------------------------------------------------------------------------
XDATA_AN
  Relative segment, address: XDATA 00002C23 - 00002C23 (0x1 bytes), align: 0
  Segment part 11. ROOT.      Intra module refs:   InitLCD
                                                   LCD_Off
           ENTRY                   ADDRESS         REF BY
           =====                   =======         ======
           SegCtrl4                00002C23 
    -------------------------------------------------------------------------
XDATA_AN
  Relative segment, address: XDATA 000028B4 - 000028B4 (0x1 bytes), align: 0
  Segment part 12. ROOT.      Intra module refs:   InitLCD
           ENTRY                   ADDRESS         REF BY
           =====                   =======         ======
           P3OE                    000028B4 
    -------------------------------------------------------------------------
XDATA_AN
  Relative segment, address: XDATA 000028B5 - 000028B5 (0x1 bytes), align: 0
  Segment part 13. ROOT.      Intra module refs:   InitLCD
           ENTRY                   ADDRESS         REF BY
           =====                   =======         ======
           P3IE                    000028B5 
    -------------------------------------------------------------------------
XDATA_AN
  Relative segment, address: XDATA 000028B8 - 000028B8 (0x1 bytes), align: 0
  Segment part 14. ROOT.      Intra module refs:   InitLCD
                                                   Init_Port (McuDrive)
           ENTRY                   ADDRESS         REF BY
           =====                   =======         ======
           P4OE                    000028B8 
    -------------------------------------------------------------------------
XDATA_AN
  Relative segment, address: XDATA 000028B9 - 000028B9 (0x1 bytes), align: 0
  Segment part 15. ROOT.      Intra module refs:   InitLCD
           ENTRY                   ADDRESS         REF BY
           =====                   =======         ======
           P4IE                    000028B9 
    -------------------------------------------------------------------------
XDATA_AN
  Relative segment, address: XDATA 000028BC - 000028BC (0x1 bytes), align: 0
  Segment part 16. ROOT.      Intra module refs:   InitLCD
           ENTRY                   ADDRESS         REF BY
           =====                   =======         ======
           P5OE                    000028BC 
    -------------------------------------------------------------------------
XDATA_AN
  Relative segment, address: XDATA 000028BD - 000028BD (0x1 bytes), align: 0
  Segment part 17. ROOT.      Intra module refs:   InitLCD
           ENTRY                   ADDRESS         REF BY
           =====                   =======         ======
           P5IE                    000028BD 
    -------------------------------------------------------------------------
XDATA_AN
  Relative segment, address: XDATA 000028C0 - 000028C0 (0x1 bytes), align: 0
  Segment part 18. ROOT.      Intra module refs:   InitLCD
                                                   Init_Port (McuDrive)
           ENTRY                   ADDRESS         REF BY
           =====                   =======         ======
           P6OE                    000028C0 
    -------------------------------------------------------------------------
XDATA_AN
  Relative segment, address: XDATA 000028C1 - 000028C1 (0x1 bytes), align: 0
  Segment part 19. ROOT.      Intra module refs:   InitLCD
           ENTRY                   ADDRESS         REF BY
           =====                   =======         ======
           P6IE                    000028C1 
    -------------------------------------------------------------------------
XDATA_AN
  Relative segment, address: XDATA 000028D5 - 000028D5 (0x1 bytes), align: 0
  Segment part 20. ROOT.      Intra module refs:   InitLCD
                                                   Init_Port (McuDrive)
           ENTRY                   ADDRESS         REF BY
           =====                   =======         ======
           P7OE                    000028D5 
    -------------------------------------------------------------------------
XDATA_AN
  Relative segment, address: XDATA 000028D6 - 000028D6 (0x1 bytes), align: 0
  Segment part 21. ROOT.      Intra module refs:   InitLCD
           ENTRY                   ADDRESS         REF BY
           =====                   =======         ======
           P7IE                    000028D6 
    -------------------------------------------------------------------------
XDATA_Z
  Relative segment, address: XDATA 000008BA - 000008E1 (0x28 bytes), align: 0
  Segment part 27.            Intra module refs:   Disp_Clear
                                                   Disp_Full
                                                   LCD_RAMUpdata
           ENTRY                   ADDRESS         REF BY
           =====                   =======         ======
           guc_LCDRAM              000008BA        Disp_Numb (Lcdmiddle)
                                                   Disp_State (Lcdmiddle)
                                                   Disp_String (Lcdmiddle)
                                                   Disp_UnitPoint (Lcdmiddle)
    -------------------------------------------------------------------------
<BANKED_CODE> 3 (was BANKED_CODE)
  Relative segment, address: CODE 0001D81D - 0001D88F (0x73 bytes), align: 0
  Segment part 29.            Intra module refs:   InitLCD::?relay
           ENTRY                   ADDRESS         REF BY
           =====                   =======         ======
           InitLCD                 0001D81D 
               is not allocated
               not allocated function
    -------------------------------------------------------------------------
<BANKED_CODE> 3 (was BANKED_CODE)
  Relative segment, address: CODE 0001D890 - 0001D8B6 (0x27 bytes), align: 0
  Segment part 35.            Intra module refs:   LCD_Off::?relay
           ENTRY                   ADDRESS         REF BY
           =====                   =======         ======
           LCD_Off                 0001D890 
               calls direct, is not allocated
               not allocated function
    -------------------------------------------------------------------------
<BANKED_CODE> 3 (was BANKED_CODE)
  Relative segment, address: CODE 0001D8B7 - 0001D8CF (0x19 bytes), align: 0
  Segment part 37.            Intra module refs:   Disp_Clear::?relay
           ENTRY                   ADDRESS         REF BY
           =====                   =======         ======
           Disp_Clear              0001D8B7 
               calls direct, is not allocated
               not allocated function
    -------------------------------------------------------------------------
<BANKED_CODE> 3 (was BANKED_CODE)
  Relative segment, address: CODE 0001D8D0 - 0001D8E8 (0x19 bytes), align: 0
  Segment part 39.            Intra module refs:   Disp_Full::?relay
           ENTRY                   ADDRESS         REF BY
           =====                   =======         ======
           Disp_Full               0001D8D0 
               calls direct
               ISTACK = 00000000 ( 00000002 )
    -------------------------------------------------------------------------
<BANKED_CODE> 3 (was BANKED_CODE)
  Relative segment, address: CODE 0001D8E9 - 0001D8FA (0x12 bytes), align: 0
  Segment part 43.            Intra module refs:   LCD_RAMUpdata::?relay
           ENTRY                   ADDRESS         REF BY
           =====                   =======         ======
           LCD_RAMUpdata           0001D8E9 
               calls direct
               XSTACK = 0000000A ( 00000000 )
               ISTACK = 00000000 ( 00000002 )
    -------------------------------------------------------------------------
<BANKED_CODE> 3 (was BANKED_CODE)
  Relative segment, address: CODE 0001D8FB - 0001DA96 (0x19c bytes), align: 0
  Segment part 45.            Intra module refs:   RefreshLCDRAM::?relay
           ENTRY                   ADDRESS         REF BY
           =====                   =======         ======
           RefreshLCDRAM           0001D8FB 
               XSTACK = 00000000 ( 0000000A )
    -------------------------------------------------------------------------
BANK_RELAYS
  Relative segment, address: CODE 0000120A - 0000120F (0x6 bytes), align: 0
  Segment part 30.
           ENTRY                   ADDRESS         REF BY
           =====                   =======         ======
           InitLCD::?relay         0000120A        CPUInit (McuDrive)
    -------------------------------------------------------------------------
BANK_RELAYS
  Relative segment, address: CODE 00001210 - 00001215 (0x6 bytes), align: 0
  Segment part 36.
           ENTRY                   ADDRESS         REF BY
           =====                   =======         ======
           LCD_Off::?relay         00001210        Pow_DnProc (Powmanger)
    -------------------------------------------------------------------------
BANK_RELAYS
  Relative segment, address: CODE 00001216 - 0000121B (0x6 bytes), align: 0
  Segment part 38.            Intra module refs:   LCD_Off
           ENTRY                   ADDRESS         REF BY
           =====                   =======         ======
           Disp_Clear::?relay      00001216 
    -------------------------------------------------------------------------
BANK_RELAYS
  Relative segment, address: CODE 0000121C - 00001221 (0x6 bytes), align: 0
  Segment part 40.
           ENTRY                   ADDRESS         REF BY
           =====                   =======         ======
           Disp_Full::?relay       0000121C        ShowRefresh (Lcdshow)
                                                   main (main)
    -------------------------------------------------------------------------
BANK_RELAYS
  Relative segment, address: CODE 00001222 - 00001227 (0x6 bytes), align: 0
  Segment part 44.            Intra module refs:   Disp_Clear
                                                   Disp_Full
           ENTRY                   ADDRESS         REF BY
           =====                   =======         ======
           LCD_RAMUpdata::?relay   00001222        ShowRefresh (Lcdshow)
    -------------------------------------------------------------------------
BANK_RELAYS
  Relative segment, address: CODE 00001228 - 0000122D (0x6 bytes), align: 0
  Segment part 46.            Intra module refs:   LCD_RAMUpdata
           ENTRY                   ADDRESS         REF BY
           =====                   =======         ======
           RefreshLCDRAM::?relay   00001228 

    *************************************************************************

  FILE NAME : F:\SVN\06solution\Projects\农网\D105\Sw\Debug\Obj\Lcdmiddle.r51
  PROGRAM MODULE, NAME : Lcdmiddle

  SEGMENTS IN THE MODULE
  ======================
CODE_C
  Relative segment, address: CODE 000030EC - 000030FB (0x10 bytes), align: 0
  Segment part 6.             Intra module refs:   Disp_Numb
           ENTRY                   ADDRESS         REF BY
           =====                   =======         ======
           NumAddr                 000030EC 
    -------------------------------------------------------------------------
CODE_C
  Relative segment, address: CODE 000030FC - 0000310B (0x10 bytes), align: 0
  Segment part 7.             Intra module refs:   Disp_Numb
           ENTRY                   ADDRESS         REF BY
           =====                   =======         ======
           NUMTABLE_1L             000030FC 
    -------------------------------------------------------------------------
CODE_C
  Relative segment, address: CODE 0000310C - 0000311B (0x10 bytes), align: 0
  Segment part 8.             Intra module refs:   Disp_Numb
           ENTRY                   ADDRESS         REF BY
           =====                   =======         ======
           NUMTABLE_1H             0000310C 
    -------------------------------------------------------------------------
CODE_C
  Relative segment, address: CODE 0000311C - 00003133 (0x18 bytes), align: 0
  Segment part 9.             Intra module refs:   Disp_State
           ENTRY                   ADDRESS         REF BY
           =====                   =======         ======
           St_Table                0000311C 
    -------------------------------------------------------------------------
CODE_C
  Relative segment, address: CODE 00003134 - 00003145 (0x12 bytes), align: 0
  Segment part 10.            Intra module refs:   Disp_UnitPoint
           ENTRY                   ADDRESS         REF BY
           =====                   =======         ======
           PointTable              00003134 
    -------------------------------------------------------------------------
CODE_C
  Relative segment, address: CODE 00003146 - 00003149 (0x4 bytes), align: 0
  Segment part 11.            Intra module refs:   Disp_UnitPoint
           ENTRY                   ADDRESS         REF BY
           =====                   =======         ======
           UnitBitTable            00003146 
    -------------------------------------------------------------------------
CODE_C
  Relative segment, address: CODE 0000314A - 0000314F (0x6 bytes), align: 0
  Segment part 12.            Intra module refs:   Disp_UnitPoint
           ENTRY                   ADDRESS         REF BY
           =====                   =======         ======
           UnitTable               0000314A 
    -------------------------------------------------------------------------
CODE_C
  Relative segment, address: CODE 00003150 - 00003158 (0x9 bytes), align: 0
  Segment part 13.            Intra module refs:   Disp_String
           ENTRY                   ADDRESS         REF BY
           =====                   =======         ======
           ChineseTable            00003150 
    -------------------------------------------------------------------------
CODE_C
  Relative segment, address: CODE 00003159 - 0000318C (0x34 bytes), align: 0
  Segment part 14.            Intra module refs:   Disp_String
           ENTRY                   ADDRESS         REF BY
           =====                   =======         ======
           LCD_ChinaCode           00003159 
    -------------------------------------------------------------------------
CODE_C
  Relative segment, address: CODE 0000318D - 0000319C (0x10 bytes), align: 0
  Segment part 15.            Intra module refs:   Disp_String
           ENTRY                   ADDRESS         REF BY
           =====                   =======         ======
           BITStrnum               0000318D 
    -------------------------------------------------------------------------
CODE_C
  Relative segment, address: CODE 0000319D - 000031AF (0x13 bytes), align: 0
  Segment part 16.            Intra module refs:   Disp_String
           ENTRY                   ADDRESS         REF BY
           =====                   =======         ======
           Strnum                  0000319D 
    -------------------------------------------------------------------------
<BANKED_CODE> 2 (was BANKED_CODE)
  Relative segment, address: CODE 0000FBA5 - 0000FCD5 (0x131 bytes), align: 0
  Segment part 17.            Intra module refs:   Disp_Numb::?relay
           ENTRY                   ADDRESS         REF BY
           =====                   =======         ======
           Disp_Numb               0000FBA5 
               XSTACK = 00000004 ( 00000011 )
               ISTACK = 00000000 ( 00000001 )
    -------------------------------------------------------------------------
<BANKED_CODE> 2 (was BANKED_CODE)
  Relative segment, address: CODE 0000FCD6 - 0000FDE3 (0x10e bytes), align: 0
  Segment part 19.            Intra module refs:   Disp_String::?relay
           ENTRY                   ADDRESS         REF BY
           =====                   =======         ======
           Disp_String             0000FCD6 
               XSTACK = 00000000 ( 0000000E )
    -------------------------------------------------------------------------
<BANKED_CODE> 2 (was BANKED_CODE)
  Relative segment, address: CODE 0000FDE4 - 0000FF12 (0x12f bytes), align: 0
  Segment part 21.            Intra module refs:   Disp_UnitPoint::?relay
           ENTRY                   ADDRESS         REF BY
           =====                   =======         ======
           Disp_UnitPoint          0000FDE4 
               XSTACK = 00000000 ( 0000000B )
    -------------------------------------------------------------------------
<BANKED_CODE> 2 (was BANKED_CODE)
  Relative segment, address: CODE 0000FF13 - 0000FF94 (0x82 bytes), align: 0
  Segment part 23.            Intra module refs:   Disp_State::?relay
           ENTRY                   ADDRESS         REF BY
           =====                   =======         ======
           Disp_State              0000FF13 
               XSTACK = 00000000 ( 0000000E )
    -------------------------------------------------------------------------
BANK_RELAYS
  Relative segment, address: CODE 0000122E - 00001233 (0x6 bytes), align: 0
  Segment part 18.
           ENTRY                   ADDRESS         REF BY
           =====                   =======         ======
           Disp_Numb::?relay       0000122E        ShowRefresh (Lcdshow)
    -------------------------------------------------------------------------
BANK_RELAYS
  Relative segment, address: CODE 00001234 - 00001239 (0x6 bytes), align: 0
  Segment part 20.
           ENTRY                   ADDRESS         REF BY
           =====                   =======         ======
           Disp_String::?relay     00001234        ShowRefresh (Lcdshow)
    -------------------------------------------------------------------------
BANK_RELAYS
  Relative segment, address: CODE 0000123A - 0000123F (0x6 bytes), align: 0
  Segment part 22.
           ENTRY                   ADDRESS         REF BY
           =====                   =======         ======
           Disp_UnitPoint::?relay
                                   0000123A        ShowRefresh (Lcdshow)
    -------------------------------------------------------------------------
BANK_RELAYS
  Relative segment, address: CODE 00001240 - 00001245 (0x6 bytes), align: 0
  Segment part 24.
           ENTRY                   ADDRESS         REF BY
           =====                   =======         ======
           Disp_State::?relay      00001240        ShowRefresh (Lcdshow)

    *************************************************************************

  FILE NAME : F:\SVN\06solution\Projects\农网\D105\Sw\Debug\Obj\Lcdshow.r51
  PROGRAM MODULE, NAME : Lcdshow

  SEGMENTS IN THE MODULE
  ======================
XDATA_Z
  Relative segment, address: XDATA 000008E2 - 000008E2 (0x1 bytes), align: 0
  Segment part 6.             Intra module refs:   ShowSecondProc
           ENTRY                   ADDRESS         REF BY
           =====                   =======         ======
           guc_ShowStCom           000008E2        BD_ProcFrame (Prcfrm)
                                                   Init_Var (main)
    -------------------------------------------------------------------------
XDATA_Z
  Relative segment, address: XDATA 000008E3 - 000008E3 (0x1 bytes), align: 0
  Segment part 7.             Intra module refs:   ShowDataProc
                                                   ShowNumManage
           ENTRY                   ADDRESS         REF BY
           =====                   =======         ======
           guc_ShowEnergyFlag      000008E3        ReadCurEgy (DLT_645_2007)
                                                   ReadEnyD0Block (DLT_645_2007)
                                                   ReadHisEgy (DLT_645_2007)
    -------------------------------------------------------------------------
XDATA_Z
  Relative segment, address: XDATA 000008E4 - 000008E7 (0x4 bytes), align: 0
  Segment part 8.             Intra module refs:   ShowNumManage
                                                   ShowRefresh
                                                   ShowSecondProc
                                                   ShowStateFlashManage
                                                   ShowStateManage
                                                   ShowSysStart
           ENTRY                   ADDRESS         REF BY
           =====                   =======         ======
           gul_ShowState           000008E4        BD_ProcFrame (Prcfrm)
                                                   GetBat (McuDrive)
    -------------------------------------------------------------------------
XDATA_Z
  Relative segment, address: XDATA 000008E8 - 000008F9 (0x12 bytes), align: 0
  Segment part 9.             Intra module refs:   ShowInitial
                                                   ShowSecondProc
                                                   ShowSysStart
           ENTRY                   ADDRESS         REF BY
           =====                   =======         ======
           gs_DispCont             000008E8        CfgCheck (FunCfg)
                                                   KeyScan (Key)
                                                   PowUpLedCtl (McuDrive)
                                                   RwLcdData (DLT_645_2007)
                                                   Uart2_Receive (Uart2)
    -------------------------------------------------------------------------
XDATA_Z
  Relative segment, address: XDATA 000008FA - 00000902 (0x9 bytes), align: 0
  Segment part 10.            Intra module refs:   ShowDataProc
                                                   ShowRefresh
                                                   ShowSecondProc
                                                   ShowSysStart
           ENTRY                   ADDRESS         REF BY
           =====                   =======         ======
           gs_DispStt              000008FA        IrShowLcd (DLT_645_2007)
    -------------------------------------------------------------------------
XDATA_Z
  Relative segment, address: XDATA 00000903 - 0000090E (0xc bytes), align: 0
  Segment part 11.            Intra module refs:   ShowDataProc
                                                   ShowNumManage
                                                   ShowRefresh
                                                   ShowRefreshTime
           ENTRY                   ADDRESS         REF BY
           =====                   =======         ======
           gs_LcdDisp              00000903 
    -------------------------------------------------------------------------
XDATA_Z
  Relative segment, address: XDATA 0000090F - 00000913 (0x5 bytes), align: 0
  Segment part 12.            Intra module refs:   ShowDataProc
           ENTRY                   ADDRESS         REF BY
           =====                   =======         ======
           guc_IrShowLcdId         0000090F        IrShowLcd (DLT_645_2007)
    -------------------------------------------------------------------------
XDATA_Z
  Relative segment, address: XDATA 00000914 - 00000917 (0x4 bytes), align: 0
  Segment part 13.            Intra module refs:   ShowDataProc
           ENTRY                   ADDRESS         REF BY
           =====                   =======         ======
           gul_ShowId              00000914 
    -------------------------------------------------------------------------
CODE_C
  Relative segment, address: CODE 000031B0 - 000032DB (0x12c bytes), align: 0
  Segment part 14.            Intra module refs:   SearchDispNO
           ENTRY                   ADDRESS         REF BY
           =====                   =======         ======
           gCs_TabConvent          000031B0 
    -------------------------------------------------------------------------
CODE_C
  Relative segment, address: CODE 000032DC - 00003308 (0x2d bytes), align: 0
  Segment part 16.            Intra module refs:   SearchDispNO
           ENTRY                   ADDRESS         REF BY
           =====                   =======         ======
           gCs_TabConvCS           000032DC 
    -------------------------------------------------------------------------
CODE_C
  Relative segment, address: CODE 00003309 - 00003330 (0x28 bytes), align: 0
  Segment part 18.            Intra module refs:   SearchDispNO
           ENTRY                   ADDRESS         REF BY
           =====                   =======         ======
           gCs_TabConvBL           00003309 
    -------------------------------------------------------------------------
CODE_C
  Relative segment, address: CODE 00003331 - 000033B1 (0x81 bytes), align: 0
  Segment part 20.            Intra module refs:   ShowDataProc
           ENTRY                   ADDRESS         REF BY
           =====                   =======         ======
           gCs_DispTab             00003331 
    -------------------------------------------------------------------------
CODE_C
  Relative segment, address: CODE 000033B2 - 000033BB (0xa bytes), align: 0
  Segment part 21.            Intra module refs:   SearchDispNO
           ENTRY                   ADDRESS         REF BY
           =====                   =======         ======
           gCs_TabAdd              000033B2 
    -------------------------------------------------------------------------
CODE_C
  Relative segment, address: CODE 000033BC - 000033E3 (0x28 bytes), align: 0
  Segment part 23.            Intra module refs:   ShowDataProc
           ENTRY                   ADDRESS         REF BY
           =====                   =======         ======
           gCui_UnitPointTab       000033BC 
    -------------------------------------------------------------------------
<BANKED_CODE> 3 (was BANKED_CODE)
  Relative segment, address: CODE 000195DB - 00019610 (0x36 bytes), align: 0
  Segment part 45.            Intra module refs:   ShowSysStart::?relay
           ENTRY                   ADDRESS         REF BY
           =====                   =======         ======
           ShowSysStart            000195DB 
               calls direct, is not allocated
               not allocated function
    -------------------------------------------------------------------------
<BANKED_CODE> 3 (was BANKED_CODE)
  Relative segment, address: CODE 00019611 - 00019639 (0x29 bytes), align: 0
  Segment part 47.            Intra module refs:   ShowInitial::?relay
           ENTRY                   ADDRESS         REF BY
           =====                   =======         ======
           ShowInitial             00019611 
               calls direct, is not allocated
               not allocated function
    -------------------------------------------------------------------------
<BANKED_CODE> 3 (was BANKED_CODE)
  Relative segment, address: CODE 0001963A - 000196D0 (0x97 bytes), align: 0
  Segment part 53.            Intra module refs:   ShowSecondProc::?relay
           ENTRY                   ADDRESS         REF BY
           =====                   =======         ======
           ShowSecondProc          0001963A 
               calls direct, is not allocated
               not allocated function
    -------------------------------------------------------------------------
<BANKED_CODE> 3 (was BANKED_CODE)
  Relative segment, address: CODE 000196D1 - 000197CB (0xfb bytes), align: 0
  Segment part 55.            Intra module refs:   ShowStateManage::?relay
           ENTRY                   ADDRESS         REF BY
           =====                   =======         ======
           ShowStateManage         000196D1 
               XSTACK = 00000009 ( 00000010 )
    -------------------------------------------------------------------------
<BANKED_CODE> 3 (was BANKED_CODE)
  Relative segment, address: CODE 000197CC - 00019805 (0x3a bytes), align: 0
  Segment part 57.            Intra module refs:   ShowStateFlashManage::?relay
           ENTRY                   ADDRESS         REF BY
           =====                   =======         ======
           ShowStateFlashManage    000197CC 
               is not allocated
               not allocated function
    -------------------------------------------------------------------------
<BANKED_CODE> 3 (was BANKED_CODE)
  Relative segment, address: CODE 00019806 - 00019CB0 (0x4ab bytes), align: 0
  Segment part 59.            Intra module refs:   ShowNumManage::?relay
           ENTRY                   ADDRESS         REF BY
           =====                   =======         ======
           ShowNumManage           00019806 
               calls direct
               XSTACK = 0000001E ( 00000018 )
    -------------------------------------------------------------------------
<BANKED_CODE> 3 (was BANKED_CODE)
  Relative segment, address: CODE 00019CB1 - 00019DBA (0x10a bytes), align: 0
  Segment part 61.            Intra module refs:   SearchDispNO::?relay
           ENTRY                   ADDRESS         REF BY
           =====                   =======         ======
           SearchDispNO            00019CB1 
               XSTACK = 00000022 ( 0000000C )
    -------------------------------------------------------------------------
<BANKED_CODE> 3 (was BANKED_CODE)
  Relative segment, address: CODE 00019DBB - 00019FB4 (0x1fa bytes), align: 0
  Segment part 63.            Intra module refs:   ShowDataProc::?relay
           ENTRY                   ADDRESS         REF BY
           =====                   =======         ======
           ShowDataProc            00019DBB 
               calls direct
               XSTACK = 00000009 ( 00000022 )
    -------------------------------------------------------------------------
<BANKED_CODE> 3 (was BANKED_CODE)
  Relative segment, address: CODE 00019FB5 - 00019FC8 (0x14 bytes), align: 0
  Segment part 65.            Intra module refs:   ShowRefreshTime::?relay
           ENTRY                   ADDRESS         REF BY
           =====                   =======         ======
           ShowRefreshTime         00019FB5 
               calls direct
               XSTACK = 00000009 ( 00000000 )
               ISTACK = 00000000 ( 00000002 )
    -------------------------------------------------------------------------
<BANKED_CODE> 3 (was BANKED_CODE)
  Relative segment, address: CODE 00019FC9 - 0001A053 (0x8b bytes), align: 0
  Segment part 67.            Intra module refs:   ShowRefresh::?relay
           ENTRY                   ADDRESS         REF BY
           =====                   =======         ======
           ShowRefresh             00019FC9 
               calls direct
               XSTACK = 0000000C ( 0000000D )
    -------------------------------------------------------------------------
CODE_C
  Relative segment, address: CODE 000033E4 - 000033E7 (0x4 bytes), align: 0
  Segment part 25.            Intra module refs:   ShowSecondProc
           ENTRY                   ADDRESS         REF BY
           =====                   =======         ======
           __Constant_ffffffbf     000033E4 
    -------------------------------------------------------------------------
CODE_C
  Relative segment, address: CODE 000033E8 - 000033EB (0x4 bytes), align: 0
  Segment part 26.            Intra module refs:   ShowStateManage
           ENTRY                   ADDRESS         REF BY
           =====                   =======         ======
           __Constant_fffff5c0     000033E8 
    -------------------------------------------------------------------------
CODE_C
  Relative segment, address: CODE 000033EC - 000033EF (0x4 bytes), align: 0
  Segment part 27.            Intra module refs:   ShowStateManage
           ENTRY                   ADDRESS         REF BY
           =====                   =======         ======
           __Constant_20           000033EC 
    -------------------------------------------------------------------------
CODE_C
  Relative segment, address: CODE 000033F0 - 000033F3 (0x4 bytes), align: 0
  Segment part 28.            Intra module refs:   ShowStateManage
           ENTRY                   ADDRESS         REF BY
           =====                   =======         ======
           __Constant_10           000033F0 
    -------------------------------------------------------------------------
CODE_C
  Relative segment, address: CODE 000033F4 - 000033F7 (0x4 bytes), align: 0
  Segment part 30.            Intra module refs:   ShowStateManage
           ENTRY                   ADDRESS         REF BY
           =====                   =======         ======
           __Constant_ffffff7f     000033F4 
    -------------------------------------------------------------------------
CODE_C
  Relative segment, address: CODE 000033F8 - 000033FB (0x4 bytes), align: 0
  Segment part 32.            Intra module refs:   CalRTC (RtcCpt)
                                                   GetBat (McuDrive)
                                                   RecoverRtcPara (RtcCpt)
                                                   ShowStateManage
           ENTRY                   ADDRESS         REF BY
           =====                   =======         ======
           __Constant_100          000033F8 
    -------------------------------------------------------------------------
CODE_C
  Relative segment, address: CODE 000033FC - 000033FF (0x4 bytes), align: 0
  Segment part 33.            Intra module refs:   GetBat (McuDrive)
                                                   ShowStateManage
           ENTRY                   ADDRESS         REF BY
           =====                   =======         ======
           __Constant_fffffeff     000033FC 
    -------------------------------------------------------------------------
CODE_C
  Relative segment, address: CODE 00003400 - 00003403 (0x4 bytes), align: 0
  Segment part 34.            Intra module refs:   ClockBAK_E2 (Timeproc)
                                                   ShowStateFlashManage
                                                   SoftClockCheck (Timeproc)
           ENTRY                   ADDRESS         REF BY
           =====                   =======         ======
           __Constant_400          00003400 
    -------------------------------------------------------------------------
CODE_C
  Relative segment, address: CODE 00003404 - 00003407 (0x4 bytes), align: 0
  Segment part 35.            Intra module refs:   ShowStateFlashManage
           ENTRY                   ADDRESS         REF BY
           =====                   =======         ======
           __Constant_fffffbff     00003404 
    -------------------------------------------------------------------------
CODE_C
  Relative segment, address: CODE 00003408 - 0000340B (0x4 bytes), align: 0
  Segment part 38.            Intra module refs:   ShowNumManage
           ENTRY                   ADDRESS         REF BY
           =====                   =======         ======
           __Constant_800          00003408 
    -------------------------------------------------------------------------
CODE_C
  Relative segment, address: CODE 0000340C - 0000340F (0x4 bytes), align: 0
  Segment part 39.            Intra module refs:   ShowNumManage
           ENTRY                   ADDRESS         REF BY
           =====                   =======         ======
           __Constant_e3           0000340C 
    -------------------------------------------------------------------------
CODE_C
  Relative segment, address: CODE 00003410 - 00003413 (0x4 bytes), align: 0
  Segment part 42.            Intra module refs:   ShowNumManage
           ENTRY                   ADDRESS         REF BY
           =====                   =======         ======
           __Constant_e4           00003410 
    -------------------------------------------------------------------------
CODE_C
  Relative segment, address: CODE 00003414 - 00003417 (0x4 bytes), align: 0
  Segment part 43.            Intra module refs:   ShowNumManage
           ENTRY                   ADDRESS         REF BY
           =====                   =======         ======
           __Constant_7fff         00003414 
    -------------------------------------------------------------------------
BANK_RELAYS
  Relative segment, address: CODE 00001246 - 0000124B (0x6 bytes), align: 0
  Segment part 46.
           ENTRY                   ADDRESS         REF BY
           =====                   =======         ======
           ShowSysStart::?relay    00001246        main (main)
    -------------------------------------------------------------------------
BANK_RELAYS
  Relative segment, address: CODE 0000124C - 00001251 (0x6 bytes), align: 0
  Segment part 48.            Intra module refs:   ShowSysStart
           ENTRY                   ADDRESS         REF BY
           =====                   =======         ======
           ShowInitial::?relay     0000124C        CfgCheck (FunCfg)
    -------------------------------------------------------------------------
BANK_RELAYS
  Relative segment, address: CODE 00001252 - 00001257 (0x6 bytes), align: 0
  Segment part 54.
           ENTRY                   ADDRESS         REF BY
           =====                   =======         ======
           ShowSecondProc::?relay
                                   00001252        TimeEventProc (main)
    -------------------------------------------------------------------------
BANK_RELAYS
  Relative segment, address: CODE 00001258 - 0000125D (0x6 bytes), align: 0
  Segment part 56.            Intra module refs:   ShowRefresh
           ENTRY                   ADDRESS         REF BY
           =====                   =======         ======
           ShowStateManage::?relay
                                   00001258 
    -------------------------------------------------------------------------
BANK_RELAYS
  Relative segment, address: CODE 0000125E - 00001263 (0x6 bytes), align: 0
  Segment part 58.            Intra module refs:   ShowSecondProc
           ENTRY                   ADDRESS         REF BY
           =====                   =======         ======
           ShowStateFlashManage::?relay
                                   0000125E 
    -------------------------------------------------------------------------
BANK_RELAYS
  Relative segment, address: CODE 00001264 - 00001269 (0x6 bytes), align: 0
  Segment part 60.            Intra module refs:   ShowDataProc
           ENTRY                   ADDRESS         REF BY
           =====                   =======         ======
           ShowNumManage::?relay   00001264 
    -------------------------------------------------------------------------
BANK_RELAYS
  Relative segment, address: CODE 0000126A - 0000126F (0x6 bytes), align: 0
  Segment part 62.            Intra module refs:   ShowDataProc
           ENTRY                   ADDRESS         REF BY
           =====                   =======         ======
           SearchDispNO::?relay    0000126A        IrShowLcd (DLT_645_2007)
                                                   RwLcdData (DLT_645_2007)
    -------------------------------------------------------------------------
BANK_RELAYS
  Relative segment, address: CODE 00001270 - 00001275 (0x6 bytes), align: 0
  Segment part 64.            Intra module refs:   ShowRefresh
           ENTRY                   ADDRESS         REF BY
           =====                   =======         ======
           ShowDataProc::?relay    00001270 
    -------------------------------------------------------------------------
BANK_RELAYS
  Relative segment, address: CODE 00001276 - 0000127B (0x6 bytes), align: 0
  Segment part 66.            Intra module refs:   ShowRefresh
           ENTRY                   ADDRESS         REF BY
           =====                   =======         ======
           ShowRefreshTime::?relay
                                   00001276 
    -------------------------------------------------------------------------
BANK_RELAYS
  Relative segment, address: CODE 0000127C - 00001281 (0x6 bytes), align: 0
  Segment part 68.
           ENTRY                   ADDRESS         REF BY
           =====                   =======         ======
           ShowRefresh::?relay     0000127C        IrShowLcd (DLT_645_2007)
                                                   SysEventProc (main)

    *************************************************************************

  FILE NAME : F:\SVN\06solution\Projects\农网\D105\Sw\Debug\Obj\LoadCurve.r51
  PROGRAM MODULE, NAME : LoadCurve

  SEGMENTS IN THE MODULE
  ======================
SFR_AN
  Relative segment, address: DATA 000000A1 - 000000A1 (0x1 bytes), align: 0
  Segment part 1. ROOT.       Intra module refs:   Ldc_DataProc
                                                   PowDownChk (Powmanger)
                                                   Pow_DnProc (Powmanger)
                                                   Sleep (McuDrive)
           ENTRY                   ADDRESS         REF BY
           =====                   =======         ======
           Systate                 000000A1 
    -------------------------------------------------------------------------
XDATA_Z
  Relative segment, address: XDATA 00000918 - 0000091F (0x8 bytes), align: 0
  Segment part 9.             Intra module refs:   Ldc_Get1stRecord
                                                   Ldc_GetSeqRecord
                                                   Ldc_ZoneChk
                                                   Search1stEqualItem
           ENTRY                   ADDRESS         REF BY
           =====                   =======         ======
           gs_LdcPos               00000918        ReadCurveJl (DLT_645_2007)
    -------------------------------------------------------------------------
XDATA_Z
  Relative segment, address: XDATA 00000920 - 0000093C (0x1d bytes), align: 0
  Segment part 10.            Intra module refs:   Ldc_BuildFakeFrm
                                                   Ldc_BuildFrame
                                                   Ldc_Get1stRecord
                                                   Ldc_GetSeqRecord
                                                   Ldc_ZoneChk
                                                   LoadCurveCheck
                                                   SearchEqualItem
           ENTRY                   ADDRESS         REF BY
           =====                   =======         ======
           gs_LdcFrame             00000920        ReadCurveJl (DLT_645_2007)
    -------------------------------------------------------------------------
XDATA_Z
  Relative segment, address: XDATA 0000093D - 00000945 (0x9 bytes), align: 0
  Segment part 11.            Intra module refs:   Ldc_DataProc
                                                   SearchEqualItem
           ENTRY                   ADDRESS         REF BY
           =====                   =======         ======
           gs_LdcSet               0000093D        ReadCurveJl (DLT_645_2007)
    -------------------------------------------------------------------------
XDATA_Z
  Relative segment, address: XDATA 00000946 - 00000946 (0x1 bytes), align: 0
  Segment part 12.            Intra module refs:   LoadCurveCheck
           ENTRY                   ADDRESS         REF BY
           =====                   =======         ======
           guc_Timechange          00000946        BroadcastTime (DLT_645_2007)
                                                   Com_JSJL (Event)
                                                   Init_Var (main)
    -------------------------------------------------------------------------
CODE_C
  Relative segment, address: CODE 00003418 - 0000343A (0x23 bytes), align: 0
  Segment part 13.            Intra module refs:   Ldc_Get1stRecord
                                                   Ldc_GetSeqRecord
                                                   Ldc_ZoneChk
                                                   LoadCurveCheck
                                                   Search1stEqualItem
                                                   SearchEqualItem
           ENTRY                   ADDRESS         REF BY
           =====                   =======         ======
           gs_CurveStoreTab        00003418 
    -------------------------------------------------------------------------
<BANKED_CODE> 1 (was BANKED_CODE)
  Relative segment, address: CODE 0000398A - 000039D8 (0x4f bytes), align: 0
  Segment part 24.            Intra module refs:   CmpTm::?relay
           ENTRY                   ADDRESS         REF BY
           =====                   =======         ======
           CmpTm                   0000398A 
               XSTACK = 0000002D ( 0000000A )
    -------------------------------------------------------------------------
<BANKED_CODE> 1 (was BANKED_CODE)
  Relative segment, address: CODE 000039D9 - 00003C86 (0x2ae bytes), align: 0
  Segment part 26.            Intra module refs:   Ldc_ZoneChk::?relay
           ENTRY                   ADDRESS         REF BY
           =====                   =======         ======
           Ldc_ZoneChk             000039D9 
               calls direct
               XSTACK = 00000000 ( 0000001F )
               ISTACK = 00000000 ( 00000002 )
    -------------------------------------------------------------------------
<BANKED_CODE> 1 (was BANKED_CODE)
  Relative segment, address: CODE 00003C87 - 00003EB9 (0x233 bytes), align: 0
  Segment part 28.            Intra module refs:   Search1stEqualItem::?relay
           ENTRY                   ADDRESS         REF BY
           =====                   =======         ======
           Search1stEqualItem      00003C87 
               calls direct
               XSTACK = 00000013 ( 00000017 )
               ISTACK = 00000000 ( 00000002 )
    -------------------------------------------------------------------------
<BANKED_CODE> 1 (was BANKED_CODE)
  Relative segment, address: CODE 00003EBA - 00004328 (0x46f bytes), align: 0
  Segment part 30.            Intra module refs:   SearchEqualItem::?relay
           ENTRY                   ADDRESS         REF BY
           =====                   =======         ======
           SearchEqualItem         00003EBA 
               calls direct, is not allocated
               not allocated function
    -------------------------------------------------------------------------
<BANKED_CODE> 1 (was BANKED_CODE)
  Relative segment, address: CODE 00004329 - 00004390 (0x68 bytes), align: 0
  Segment part 32.            Intra module refs:   Ldc_BuildFrame::?relay
           ENTRY                   ADDRESS         REF BY
           =====                   =======         ======
           Ldc_BuildFrame          00004329 
               calls direct
               XSTACK = 00000013 ( 0000000A )
    -------------------------------------------------------------------------
<BANKED_CODE> 1 (was BANKED_CODE)
  Relative segment, address: CODE 00004391 - 000043D6 (0x46 bytes), align: 0
  Segment part 34.            Intra module refs:   Ldc_BuildFakeFrm::?relay
           ENTRY                   ADDRESS         REF BY
           =====                   =======         ======
           Ldc_BuildFakeFrm        00004391 
               calls direct
               XSTACK = 00000013 ( 00000009 )
    -------------------------------------------------------------------------
<BANKED_CODE> 1 (was BANKED_CODE)
  Relative segment, address: CODE 000043D7 - 0000476B (0x395 bytes), align: 0
  Segment part 36.            Intra module refs:   Ldc_Get1stRecord::?relay
           ENTRY                   ADDRESS         REF BY
           =====                   =======         ======
           Ldc_Get1stRecord        000043D7 
               calls direct
               XSTACK = 00000000 ( 00000017 )
               ISTACK = 00000000 ( 00000004 )
    -------------------------------------------------------------------------
<BANKED_CODE> 1 (was BANKED_CODE)
  Relative segment, address: CODE 0000476C - 00004864 (0xf9 bytes), align: 0
  Segment part 38.            Intra module refs:   Ldc_TmMinCal::?relay
           ENTRY                   ADDRESS         REF BY
           =====                   =======         ======
           Ldc_TmMinCal            0000476C 
               calls direct
               XSTACK = 0000001E ( 00000011 )
               ISTACK = 00000000 ( 00000001 )
    -------------------------------------------------------------------------
<BANKED_CODE> 1 (was BANKED_CODE)
  Relative segment, address: CODE 00004865 - 000048D4 (0x70 bytes), align: 0
  Segment part 40.            Intra module refs:   Ldc_TimeCal::?relay
           ENTRY                   ADDRESS         REF BY
           =====                   =======         ======
           Ldc_TimeCal             00004865 
               calls direct
               XSTACK = 00000010 ( 00000010 )
    -------------------------------------------------------------------------
<BANKED_CODE> 1 (was BANKED_CODE)
  Relative segment, address: CODE 000048D5 - 00004A41 (0x16d bytes), align: 0
  Segment part 42.            Intra module refs:   Ldc_GetSeqRecord::?relay
           ENTRY                   ADDRESS         REF BY
           =====                   =======         ======
           Ldc_GetSeqRecord        000048D5 
               calls direct
               XSTACK = 00000000 ( 00000012 )
    -------------------------------------------------------------------------
<BANKED_CODE> 1 (was BANKED_CODE)
  Relative segment, address: CODE 00004A42 - 00004FE2 (0x5a1 bytes), align: 0
  Segment part 44.            Intra module refs:   LoadCurveCheck::?relay
           ENTRY                   ADDRESS         REF BY
           =====                   =======         ======
           LoadCurveCheck          00004A42 
               calls direct, is not allocated
               not allocated function
    -------------------------------------------------------------------------
<BANKED_CODE> 1 (was BANKED_CODE)
  Relative segment, address: CODE 00004FE3 - 00005298 (0x2b6 bytes), align: 0
  Segment part 46.            Intra module refs:   Ldc_DataProc::?relay
           ENTRY                   ADDRESS         REF BY
           =====                   =======         ======
           Ldc_DataProc            00004FE3 
               calls direct, is not allocated
               not allocated function
    -------------------------------------------------------------------------
<BANKED_CODE> 1 (was BANKED_CODE)
  Relative segment, address: CODE 00005299 - 00005589 (0x2f1 bytes), align: 0
  Segment part 50.            Intra module refs:   Ldc_TimeAdd::?relay
           ENTRY                   ADDRESS         REF BY
           =====                   =======         ======
           Ldc_TimeAdd             00005299 
               calls direct
               XSTACK = 00000019 ( 0000001E )
               ISTACK = 00000000 ( 00000004 )
    -------------------------------------------------------------------------
<BANKED_CODE> 1 (was BANKED_CODE)
  Relative segment, address: CODE 0000558A - 00005617 (0x8e bytes), align: 0
  Segment part 52.            Intra module refs:   Ldc_TimeSub::?relay
           ENTRY                   ADDRESS         REF BY
           =====                   =======         ======
           Ldc_TimeSub             0000558A 
               calls direct, is not allocated
               not allocated function
    -------------------------------------------------------------------------
CODE_C
  Relative segment, address: CODE 0000343B - 0000343E (0x4 bytes), align: 0
  Segment part 14.            Intra module refs:   Ldc_ZoneChk
                                                   LoadCurveCheck
                                                   SearchEqualItem
           ENTRY                   ADDRESS         REF BY
           =====                   =======         ======
           __Constant_121          0000343B 
    -------------------------------------------------------------------------
CODE_C
  Relative segment, address: CODE 0000343F - 00003442 (0x4 bytes), align: 0
  Segment part 15.            Intra module refs:   BD_ProcFrame (Prcfrm)
                                                   Ldc_ZoneChk
                                                   LoadCurveCheck
                                                   SearchEqualItem
           ENTRY                   ADDRESS         REF BY
           =====                   =======         ======
           __Constant_ffffffff     0000343F 
    -------------------------------------------------------------------------
CODE_C
  Relative segment, address: CODE 00003443 - 00003446 (0x4 bytes), align: 0
  Segment part 16.            Intra module refs:   Ldc_ZoneChk
                                                   SearchEqualItem
           ENTRY                   ADDRESS         REF BY
           =====                   =======         ======
           __Constant_120          00003443 
    -------------------------------------------------------------------------
CODE_C
  Relative segment, address: CODE 00003447 - 0000344A (0x4 bytes), align: 0
  Segment part 17.            Intra module refs:   Ldc_DataProc
                                                   Ldc_TmMinCal
           ENTRY                   ADDRESS         REF BY
           =====                   =======         ======
           __Constant_5a0          00003447 
    -------------------------------------------------------------------------
CODE_C
  Relative segment, address: CODE 0000344B - 0000344E (0x4 bytes), align: 0
  Segment part 18.            Intra module refs:   Ldc_TimeCal
           ENTRY                   ADDRESS         REF BY
           =====                   =======         ======
           __Constant_61           0000344B 
    -------------------------------------------------------------------------
CODE_C
  Relative segment, address: CODE 0000344F - 00003452 (0x4 bytes), align: 0
  Segment part 19.            Intra module refs:   LoadCurveCheck
           ENTRY                   ADDRESS         REF BY
           =====                   =======         ======
           __Constant_ff00         0000344F 
    -------------------------------------------------------------------------
CODE_C
  Relative segment, address: CODE 00003453 - 00003456 (0x4 bytes), align: 0
  Segment part 23.            Intra module refs:   Ldc_TimeAdd
           ENTRY                   ADDRESS         REF BY
           =====                   =======         ======
           __Constant_18           00003453 
    -------------------------------------------------------------------------
BANK_RELAYS
  Relative segment, address: CODE 00001282 - 00001287 (0x6 bytes), align: 0
  Segment part 25.            Intra module refs:   Ldc_Get1stRecord
                                                   Ldc_GetSeqRecord
                                                   Ldc_ZoneChk
                                                   LoadCurveCheck
                                                   Search1stEqualItem
                                                   SearchEqualItem
           ENTRY                   ADDRESS         REF BY
           =====                   =======         ======
           CmpTm::?relay           00001282 
    -------------------------------------------------------------------------
BANK_RELAYS
  Relative segment, address: CODE 00001288 - 0000128D (0x6 bytes), align: 0
  Segment part 27.
           ENTRY                   ADDRESS         REF BY
           =====                   =======         ======
           Ldc_ZoneChk::?relay     00001288        ReadCurveJl (DLT_645_2007)
    -------------------------------------------------------------------------
BANK_RELAYS
  Relative segment, address: CODE 0000128E - 00001293 (0x6 bytes), align: 0
  Segment part 29.            Intra module refs:   Ldc_Get1stRecord
           ENTRY                   ADDRESS         REF BY
           =====                   =======         ======
           Search1stEqualItem::?relay
                                   0000128E 
    -------------------------------------------------------------------------
BANK_RELAYS
  Relative segment, address: CODE 00001294 - 00001299 (0x6 bytes), align: 0
  Segment part 31.            Intra module refs:   LoadCurveCheck
           ENTRY                   ADDRESS         REF BY
           =====                   =======         ======
           SearchEqualItem::?relay
                                   00001294 
    -------------------------------------------------------------------------
BANK_RELAYS
  Relative segment, address: CODE 0000129A - 0000129F (0x6 bytes), align: 0
  Segment part 33.            Intra module refs:   Ldc_Get1stRecord
                                                   Ldc_GetSeqRecord
           ENTRY                   ADDRESS         REF BY
           =====                   =======         ======
           Ldc_BuildFrame::?relay
                                   0000129A 
    -------------------------------------------------------------------------
BANK_RELAYS
  Relative segment, address: CODE 000012A0 - 000012A5 (0x6 bytes), align: 0
  Segment part 35.            Intra module refs:   Ldc_Get1stRecord
                                                   Ldc_GetSeqRecord
           ENTRY                   ADDRESS         REF BY
           =====                   =======         ======
           Ldc_BuildFakeFrm::?relay
                                   000012A0 
    -------------------------------------------------------------------------
BANK_RELAYS
  Relative segment, address: CODE 000012A6 - 000012AB (0x6 bytes), align: 0
  Segment part 37.
           ENTRY                   ADDRESS         REF BY
           =====                   =======         ======
           Ldc_Get1stRecord::?relay
                                   000012A6        ReadCurveJl (DLT_645_2007)
    -------------------------------------------------------------------------
BANK_RELAYS
  Relative segment, address: CODE 000012AC - 000012B1 (0x6 bytes), align: 0
  Segment part 39.            Intra module refs:   Ldc_Get1stRecord
                                                   Ldc_TimeCal
                                                   Ldc_TimeSub
                                                   Ldc_ZoneChk
                                                   SearchEqualItem
           ENTRY                   ADDRESS         REF BY
           =====                   =======         ======
           Ldc_TmMinCal::?relay    000012AC        ReadCurveJl (DLT_645_2007)
    -------------------------------------------------------------------------
BANK_RELAYS
  Relative segment, address: CODE 000012B2 - 000012B7 (0x6 bytes), align: 0
  Segment part 41.            Intra module refs:   Ldc_GetSeqRecord
           ENTRY                   ADDRESS         REF BY
           =====                   =======         ======
           Ldc_TimeCal::?relay     000012B2 
    -------------------------------------------------------------------------
BANK_RELAYS
  Relative segment, address: CODE 000012B8 - 000012BD (0x6 bytes), align: 0
  Segment part 43.
           ENTRY                   ADDRESS         REF BY
           =====                   =======         ======
           Ldc_GetSeqRecord::?relay
                                   000012B8        ReadCurveJl (DLT_645_2007)
    -------------------------------------------------------------------------
BANK_RELAYS
  Relative segment, address: CODE 000012BE - 000012C3 (0x6 bytes), align: 0
  Segment part 45.            Intra module refs:   Ldc_DataProc
           ENTRY                   ADDRESS         REF BY
           =====                   =======         ======
           LoadCurveCheck::?relay
                                   000012BE 
    -------------------------------------------------------------------------
BANK_RELAYS
  Relative segment, address: CODE 000012C4 - 000012C9 (0x6 bytes), align: 0
  Segment part 47.
           ENTRY                   ADDRESS         REF BY
           =====                   =======         ======
           Ldc_DataProc::?relay    000012C4        Data_MinProc (Dataproc)
    -------------------------------------------------------------------------
BANK_RELAYS
  Relative segment, address: CODE 000012CA - 000012CF (0x6 bytes), align: 0
  Segment part 51.            Intra module refs:   Ldc_Get1stRecord
                                                   Ldc_GetSeqRecord
                                                   Ldc_TimeSub
           ENTRY                   ADDRESS         REF BY
           =====                   =======         ======
           Ldc_TimeAdd::?relay     000012CA        ReadCurveJl (DLT_645_2007)
    -------------------------------------------------------------------------
BANK_RELAYS
  Relative segment, address: CODE 000012D0 - 000012D5 (0x6 bytes), align: 0
  Segment part 53.            Intra module refs:   LoadCurveCheck
           ENTRY                   ADDRESS         REF BY
           =====                   =======         ======
           Ldc_TimeSub::?relay     000012D0 

    *************************************************************************

  FILE NAME : F:\SVN\06solution\Projects\农网\D105\Sw\Debug\Obj\McuDrive.r51
  PROGRAM MODULE, NAME : McuDrive

  SEGMENTS IN THE MODULE
  ======================
SFR_AN
  Relative segment, address: DATA 000000CC - 000000CC (0x1 bytes), align: 0
  Segment part 1. ROOT.       Intra module refs:   Init_Timer2
                                                   Timer2Interrupt (System)
           ENTRY                   ADDRESS         REF BY
           =====                   =======         ======
           TL2                     000000CC 
    -------------------------------------------------------------------------
SFR_AN
  Relative segment, address: DATA 0000008C - 0000008C (0x1 bytes), align: 0
  Segment part 2. ROOT.       Intra module refs:   Init_Timer0
                                                   Timer0Interrupt (System)
           ENTRY                   ADDRESS         REF BY
           =====                   =======         ======
           TH0                     0000008C 
    -------------------------------------------------------------------------
SFR_AN
  Relative segment, address: DATA 00000088 - 00000088 (0x1 bytes), align: 0
  Segment part 3. ROOT.       Intra module refs:   Check_Sfr
                                                   Init_Timer0
                                                   Init_Uart1 (Uart1)
           ENTRY                   ADDRESS         REF BY
           =====                   =======         ======
           _A_TCON                 00000088 
           LOCAL                   ADDRESS         
           =====                   =======         
           TCON                    00000088 
           TCON_bit                00000088 
    -------------------------------------------------------------------------
SFR_AN
  Relative segment, address: DATA 000000CD - 000000CD (0x1 bytes), align: 0
  Segment part 4. ROOT.       Intra module refs:   Init_Timer2
                                                   Timer2Interrupt (System)
           ENTRY                   ADDRESS         REF BY
           =====                   =======         ======
           TH2                     000000CD 
    -------------------------------------------------------------------------
SFR_AN
  Relative segment, address: DATA 0000008D - 0000008D (0x1 bytes), align: 0
  Segment part 5. ROOT.       Intra module refs:   Init_Uart1 (Uart1)
           ENTRY                   ADDRESS         REF BY
           =====                   =======         ======
           TH1                     0000008D 
    -------------------------------------------------------------------------
SFR_AN
  Relative segment, address: DATA 00000089 - 00000089 (0x1 bytes), align: 0
  Segment part 6. ROOT.       Intra module refs:   Init_Timer0
                                                   Init_Uart1 (Uart1)
           ENTRY                   ADDRESS         REF BY
           =====                   =======         ======
           _A_TMOD                 00000089 
           LOCAL                   ADDRESS         
           =====                   =======         
           TMOD                    00000089 
           TMOD_bit                00000089 
    -------------------------------------------------------------------------
SFR_AN
  Relative segment, address: DATA 0000008A - 0000008A (0x1 bytes), align: 0
  Segment part 7. ROOT.       Intra module refs:   Init_Timer0
                                                   Timer0Interrupt (System)
           ENTRY                   ADDRESS         REF BY
           =====                   =======         ======
           TL0                     0000008A 
    -------------------------------------------------------------------------
SFR_AN
  Relative segment, address: DATA 000000C8 - 000000C8 (0x1 bytes), align: 0
  Segment part 8. ROOT.       Intra module refs:   Init_Timer2
                                                   Timer2Interrupt (System)
           ENTRY                   ADDRESS         REF BY
           =====                   =======         ======
           _A_T2CON                000000C8 
           LOCAL                   ADDRESS         
           =====                   =======         
           T2CON                   000000C8 
           T2CON_bit               000000C8 
    -------------------------------------------------------------------------
SFR_AN
  Relative segment, address: DATA 0000008B - 0000008B (0x1 bytes), align: 0
  Segment part 9. ROOT.       Intra module refs:   Init_Uart1 (Uart1)
           ENTRY                   ADDRESS         REF BY
           =====                   =======         ======
           TL1                     0000008B 
    -------------------------------------------------------------------------
SFR_AN
  Relative segment, address: DATA 000000A8 - 000000A8 (0x1 bytes), align: 0
  Segment part 10. ROOT.      Intra module refs:   Check_Sfr
                                                   Init_Timer0
                                                   Init_Timer2
                                                   Init_Uart1 (Uart1)
                                                   IntOFF
                                                   Pow_DnProc (Powmanger)
                                                   main (main)
           ENTRY                   ADDRESS         REF BY
           =====                   =======         ======
           _A_IE                   000000A8 
           LOCAL                   ADDRESS         
           =====                   =======         
           IE                      000000A8 
           IE_bit                  000000A8 
    -------------------------------------------------------------------------
SFR_AN
  Relative segment, address: DATA 0000008E - 0000008E (0x1 bytes), align: 0
  Segment part 11. ROOT.      Intra module refs:   Init_Timer0
                                                   Init_Timer2
                                                   Init_Uart1 (Uart1)
           ENTRY                   ADDRESS         REF BY
           =====                   =======         ======
           CKCON                   0000008E 
    -------------------------------------------------------------------------
SFR_AN
  Relative segment, address: DATA 000000A3 - 000000A3 (0x1 bytes), align: 0
  Segment part 17. ROOT.      Intra module refs:   SetPLL13M
                                                   SetPLL800K
           ENTRY                   ADDRESS         REF BY
           =====                   =======         ======
           PLLLCK                  000000A3 
    -------------------------------------------------------------------------
SFR_AN
  Relative segment, address: DATA 000000A9 - 000000A9 (0x1 bytes), align: 0
  Segment part 22. ROOT.      Intra module refs:   Init_Port
           ENTRY                   ADDRESS         REF BY
           =====                   =======         ======
           P10OE                   000000A9 
    -------------------------------------------------------------------------
SFR_AN
  Relative segment, address: DATA 000000AB - 000000AB (0x1 bytes), align: 0
  Segment part 23. ROOT.      Intra module refs:   Init_Port
           ENTRY                   ADDRESS         REF BY
           =====                   =======         ======
           P10OD                   000000AB 
    -------------------------------------------------------------------------
SFR_AN
  Relative segment, address: DATA 00000090 - 00000090 (0x1 bytes), align: 0
  Segment part 24. ROOT.      Intra module refs:   RTCWakeUpTm
                                                   SetExtRTC
                                                   SetRTCNormal (RtcCpt)
           ENTRY                   ADDRESS         REF BY
           =====                   =======         ======
           RTCPEN                  00000090 
    -------------------------------------------------------------------------
SFR_AN
  Relative segment, address: DATA 00000097 - 00000097 (0x1 bytes), align: 0
  Segment part 25. ROOT.      Intra module refs:   RTCWakeUpTm
                                                   SetExtRTC
                                                   SetRTCNormal (RtcCpt)
           ENTRY                   ADDRESS         REF BY
           =====                   =======         ======
           RTCPWD                  00000097 
    -------------------------------------------------------------------------
SFR_AN
  Relative segment, address: DATA 00000096 - 00000096 (0x1 bytes), align: 0
  Segment part 26. ROOT.      Intra module refs:   RTCWakeUpTm
           ENTRY                   ADDRESS         REF BY
           =====                   =======         ======
           INTRTC                  00000096 
    -------------------------------------------------------------------------
SFR_AN
  Relative segment, address: DATA 000000DA - 000000DA (0x1 bytes), align: 0
  Segment part 27. ROOT.      Intra module refs:   GetExtRTC
           ENTRY                   ADDRESS         REF BY
           =====                   =======         ======
           RTCLATCH                000000DA 
    -------------------------------------------------------------------------
SFR_AN
  Relative segment, address: DATA 0000009A - 0000009A (0x1 bytes), align: 0
  Segment part 28. ROOT.      Intra module refs:   GetExtRTC
                                                   SetExtRTC
           ENTRY                   ADDRESS         REF BY
           =====                   =======         ======
           RTCSC                   0000009A 
    -------------------------------------------------------------------------
SFR_AN
  Relative segment, address: DATA 0000009B - 0000009B (0x1 bytes), align: 0
  Segment part 29. ROOT.      Intra module refs:   GetExtRTC
                                                   SetExtRTC
           ENTRY                   ADDRESS         REF BY
           =====                   =======         ======
           RTCMiC                  0000009B 
    -------------------------------------------------------------------------
SFR_AN
  Relative segment, address: DATA 0000009C - 0000009C (0x1 bytes), align: 0
  Segment part 30. ROOT.      Intra module refs:   GetExtRTC
                                                   SetExtRTC
           ENTRY                   ADDRESS         REF BY
           =====                   =======         ======
           RTCHC                   0000009C 
    -------------------------------------------------------------------------
SFR_AN
  Relative segment, address: DATA 0000009D - 0000009D (0x1 bytes), align: 0
  Segment part 31. ROOT.      Intra module refs:   GetExtRTC
                                                   SetExtRTC
           ENTRY                   ADDRESS         REF BY
           =====                   =======         ======
           RTCDC                   0000009D 
    -------------------------------------------------------------------------
SFR_AN
  Relative segment, address: DATA 0000009E - 0000009E (0x1 bytes), align: 0
  Segment part 32. ROOT.      Intra module refs:   GetExtRTC
                                                   SetExtRTC
           ENTRY                   ADDRESS         REF BY
           =====                   =======         ======
           RTCWC                   0000009E 
    -------------------------------------------------------------------------
SFR_AN
  Relative segment, address: DATA 0000009F - 0000009F (0x1 bytes), align: 0
  Segment part 33. ROOT.      Intra module refs:   GetExtRTC
                                                   SetExtRTC
           ENTRY                   ADDRESS         REF BY
           =====                   =======         ======
           RTCMoC                  0000009F 
    -------------------------------------------------------------------------
SFR_AN
  Relative segment, address: DATA 00000093 - 00000093 (0x1 bytes), align: 0
  Segment part 34. ROOT.      Intra module refs:   GetExtRTC
                                                   SetExtRTC
           ENTRY                   ADDRESS         REF BY
           =====                   =======         ======
           RTCYC                   00000093 
    -------------------------------------------------------------------------
XDATA_AN
  Relative segment, address: XDATA 0000285F - 0000285F (0x1 bytes), align: 0
  Segment part 35. ROOT.      Intra module refs:   SetPLL13M
                                                   SetPLL800K
           ENTRY                   ADDRESS         REF BY
           =====                   =======         ======
           CtrlCry0                0000285F 
    -------------------------------------------------------------------------
XDATA_AN
  Relative segment, address: XDATA 00002860 - 00002860 (0x1 bytes), align: 0
  Segment part 36. ROOT.      Intra module refs:   SetPLL13M
                                                   SetPLL800K
           ENTRY                   ADDRESS         REF BY
           =====                   =======         ======
           CtrlCry1                00002860 
    -------------------------------------------------------------------------
XDATA_AN
  Relative segment, address: XDATA 00002861 - 00002861 (0x1 bytes), align: 0
  Segment part 37. ROOT.      Intra module refs:   SetPLL13M
                                                   SetPLL800K
           ENTRY                   ADDRESS         REF BY
           =====                   =======         ======
           CtrlCry2                00002861 
    -------------------------------------------------------------------------
XDATA_AN
  Relative segment, address: XDATA 00002867 - 00002867 (0x1 bytes), align: 0
  Segment part 38. ROOT.      Intra module refs:   SetPLL13M
                                                   SetPLL800K
                                                   Sleep
           ENTRY                   ADDRESS         REF BY
           =====                   =======         ======
           CtrlCLK                 00002867 
    -------------------------------------------------------------------------
XDATA_AN
  Relative segment, address: XDATA 00002868 - 00002868 (0x1 bytes), align: 0
  Segment part 39. ROOT.      Intra module refs:   SetPLL13M
                                                   SetPLL800K
           ENTRY                   ADDRESS         REF BY
           =====                   =======         ======
           CtrlPLL                 00002868 
    -------------------------------------------------------------------------
XDATA_AN
  Relative segment, address: XDATA 00002866 - 00002866 (0x1 bytes), align: 0
  Segment part 42. ROOT.      Intra module refs:   MCUForPowerOff
                                                   SetPLL13M
                                                   SetPLL800K
                                                   Sleep
           ENTRY                   ADDRESS         REF BY
           =====                   =======         ======
           CtrlLDO                 00002866 
    -------------------------------------------------------------------------
XDATA_AN
  Relative segment, address: XDATA 00002862 - 00002862 (0x1 bytes), align: 0
  Segment part 43. ROOT.      Intra module refs:   CalRTC (RtcCpt)
                                                   SetPLL13M
                                                   SetPLL800K
           ENTRY                   ADDRESS         REF BY
           =====                   =======         ======
           CtrlBGP                 00002862 
    -------------------------------------------------------------------------
XDATA_AN
  Relative segment, address: XDATA 0000284B - 0000284B (0x1 bytes), align: 0
  Segment part 45. ROOT.      Intra module refs:   UATRAndRTCInterrupt (System)
           ENTRY                   ADDRESS         REF BY
           =====                   =======         ======
           ExInt3IE                0000284B 
    -------------------------------------------------------------------------
XDATA_AN
  Relative segment, address: XDATA 00002820 - 00002820 (0x1 bytes), align: 0
  Segment part 47. ROOT.      Intra module refs:   Init_Uart2 (Uart2)
                                                   UARTOFF
           ENTRY                   ADDRESS         REF BY
           =====                   =======         ======
           TCON2                   00002820 
    -------------------------------------------------------------------------
XDATA_AN
  Relative segment, address: XDATA 00002828 - 00002828 (0x1 bytes), align: 0
  Segment part 48. ROOT.      Intra module refs:   UARTOFF
           ENTRY                   ADDRESS         REF BY
           =====                   =======         ======
           TCON3                   00002828 
    -------------------------------------------------------------------------
XDATA_AN
  Relative segment, address: XDATA 00002830 - 00002830 (0x1 bytes), align: 0
  Segment part 49. ROOT.      Intra module refs:   Init_Uart4 (Uart4)
                                                   UARTOFF
           ENTRY                   ADDRESS         REF BY
           =====                   =======         ======
           TCON4                   00002830 
    -------------------------------------------------------------------------
XDATA_AN
  Relative segment, address: XDATA 000028A8 - 000028A8 (0x1 bytes), align: 0
  Segment part 50. ROOT.      Intra module refs:   IOOFF
                                                   Init_Port
           ENTRY                   ADDRESS         REF BY
           =====                   =======         ======
           P0OE                    000028A8 
    -------------------------------------------------------------------------
XDATA_AN
  Relative segment, address: XDATA 000028A9 - 000028A9 (0x1 bytes), align: 0
  Segment part 51. ROOT.      Intra module refs:   Init_Port
           ENTRY                   ADDRESS         REF BY
           =====                   =======         ======
           P0IE                    000028A9 
    -------------------------------------------------------------------------
XDATA_AN
  Relative segment, address: XDATA 000028AA - 000028AA (0x1 bytes), align: 0
  Segment part 52. ROOT.      Intra module refs:   IOOFF
                                                   Init_Port
           ENTRY                   ADDRESS         REF BY
           =====                   =======         ======
           P0OD                    000028AA 
    -------------------------------------------------------------------------
XDATA_AN
  Relative segment, address: XDATA 000028AE - 000028AE (0x1 bytes), align: 0
  Segment part 55. ROOT.      Intra module refs:   Init_Port
           ENTRY                   ADDRESS         REF BY
           =====                   =======         ======
           P1OD                    000028AE 
    -------------------------------------------------------------------------
XDATA_AN
  Relative segment, address: XDATA 000028B1 - 000028B1 (0x1 bytes), align: 0
  Segment part 58. ROOT.      Intra module refs:   IOOFF
                                                   Init_Port
                                                   Init_Uart2 (Uart2)
                                                   Init_Uart4 (Uart4)
           ENTRY                   ADDRESS         REF BY
           =====                   =======         ======
           P2IE                    000028B1 
    -------------------------------------------------------------------------
XDATA_AN
  Relative segment, address: XDATA 000028B2 - 000028B2 (0x1 bytes), align: 0
  Segment part 59. ROOT.      Intra module refs:   Init_Port
                                                   Init_Uart2 (Uart2)
           ENTRY                   ADDRESS         REF BY
           =====                   =======         ======
           P2OD                    000028B2 
    -------------------------------------------------------------------------
XDATA_AN
  Relative segment, address: XDATA 000028BA - 000028BA (0x1 bytes), align: 0
  Segment part 61. ROOT.      Intra module refs:   Init_Port
           ENTRY                   ADDRESS         REF BY
           =====                   =======         ======
           P4OD                    000028BA 
    -------------------------------------------------------------------------
XDATA_AN
  Relative segment, address: XDATA 000028C2 - 000028C2 (0x1 bytes), align: 0
  Segment part 63. ROOT.      Intra module refs:   Init_Port
           ENTRY                   ADDRESS         REF BY
           =====                   =======         ======
           P6OD                    000028C2 
    -------------------------------------------------------------------------
XDATA_AN
  Relative segment, address: XDATA 000028C5 - 000028C5 (0x1 bytes), align: 0
  Segment part 64. ROOT.      Intra module refs:   Check_Sfr
                                                   IOOFF
                                                   Init_Port
                                                   Init_Uart1 (Uart1)
           ENTRY                   ADDRESS         REF BY
           =====                   =======         ======
           P11FS                   000028C5 
    -------------------------------------------------------------------------
XDATA_AN
  Relative segment, address: XDATA 000028C6 - 000028C6 (0x1 bytes), align: 0
  Segment part 65. ROOT.      Intra module refs:   Check_Sfr
                                                   IOOFF
                                                   Init_Port
                                                   Init_Uart1 (Uart1)
           ENTRY                   ADDRESS         REF BY
           =====                   =======         ======
           P12FS                   000028C6 
    -------------------------------------------------------------------------
XDATA_AN
  Relative segment, address: XDATA 000028C9 - 000028C9 (0x1 bytes), align: 0
  Segment part 68. ROOT.      Intra module refs:   Check_Sfr
                                                   IOOFF
                                                   Init_Port
                                                   Init_Uart4 (Uart4)
           ENTRY                   ADDRESS         REF BY
           =====                   =======         ======
           P20FS                   000028C9 
    -------------------------------------------------------------------------
XDATA_AN
  Relative segment, address: XDATA 000028CA - 000028CA (0x1 bytes), align: 0
  Segment part 69. ROOT.      Intra module refs:   Check_Sfr
                                                   IOOFF
                                                   Init_Port
                                                   Init_Uart4 (Uart4)
           ENTRY                   ADDRESS         REF BY
           =====                   =======         ======
           P21FS                   000028CA 
    -------------------------------------------------------------------------
XDATA_AN
  Relative segment, address: XDATA 000028CD - 000028CD (0x1 bytes), align: 0
  Segment part 70. ROOT.      Intra module refs:   Check_Sfr
                                                   IOOFF
                                                   Init_Port
                                                   Init_Uart2 (Uart2)
           ENTRY                   ADDRESS         REF BY
           =====                   =======         ======
           P24FS                   000028CD 
    -------------------------------------------------------------------------
XDATA_AN
  Relative segment, address: XDATA 000028D7 - 000028D7 (0x1 bytes), align: 0
  Segment part 73. ROOT.      Intra module refs:   Init_Port
           ENTRY                   ADDRESS         REF BY
           =====                   =======         ======
           P7OD                    000028D7 
    -------------------------------------------------------------------------
XDATA_AN
  Relative segment, address: XDATA 000028DA - 000028DA (0x1 bytes), align: 0
  Segment part 75. ROOT.      Intra module refs:   IOOFF
                                                   Init_Port
           ENTRY                   ADDRESS         REF BY
           =====                   =======         ======
           P8IE                    000028DA 
    -------------------------------------------------------------------------
XDATA_AN
  Relative segment, address: XDATA 00002A05 - 00002A05 (0x1 bytes), align: 0
  Segment part 77. ROOT.      Intra module refs:   UARTOFF
           ENTRY                   ADDRESS         REF BY
           =====                   =======         ======
           CFGA                    00002A05 
    -------------------------------------------------------------------------
XDATA_Z
  Relative segment, address: XDATA 00000947 - 00000947 (0x1 bytes), align: 0
  Segment part 84.
           ENTRY                   ADDRESS         REF BY
           =====                   =======         ======
           guc_PluseCount          00000947        Init_Var (main)
                                                   Timer2Interrupt (System)
                                                   getTimeZone (Multariff)
    -------------------------------------------------------------------------
XDATA_Z
  Relative segment, address: XDATA 00000948 - 00000949 (0x2 bytes), align: 0
  Segment part 85.            Intra module refs:   GetBat
           ENTRY                   ADDRESS         REF BY
           =====                   =======         ======
           gi_BatCal               00000948        Data_FactoryClr (Dataproc)
                                                   FactoryWR (DLT_645_2007)
                                                   Init_Var (main)
    -------------------------------------------------------------------------
<BANKED_CODE> 3 (was BANKED_CODE)
  Relative segment, address: CODE 0001A054 - 0001A1B9 (0x166 bytes), align: 0
  Segment part 95.            Intra module refs:   Init_Port::?relay
           ENTRY                   ADDRESS         REF BY
           =====                   =======         ======
           Init_Port               0001A054 
               calls direct, is not allocated
               not allocated function
    -------------------------------------------------------------------------
<BANKED_CODE> 3 (was BANKED_CODE)
  Relative segment, address: CODE 0001A1BA - 0001A1CF (0x16 bytes), align: 0
  Segment part 97.            Intra module refs:   Init_Timer0::?relay
           ENTRY                   ADDRESS         REF BY
           =====                   =======         ======
           Init_Timer0             0001A1BA 
               is not allocated
               not allocated function
    -------------------------------------------------------------------------
<BANKED_CODE> 3 (was BANKED_CODE)
  Relative segment, address: CODE 0001A1D0 - 0001A1E1 (0x12 bytes), align: 0
  Segment part 101.           Intra module refs:   Init_Timer2::?relay
           ENTRY                   ADDRESS         REF BY
           =====                   =======         ======
           Init_Timer2             0001A1D0 
               is not allocated
               not allocated function
    -------------------------------------------------------------------------
<BANKED_CODE> 3 (was BANKED_CODE)
  Relative segment, address: CODE 0001A1E2 - 0001A1E4 (0x3 bytes), align: 0
  Segment part 103.           Intra module refs:   RAMInit::?relay
           ENTRY                   ADDRESS         REF BY
           =====                   =======         ======
           RAMInit                 0001A1E2 
               is not allocated
               not allocated function
    -------------------------------------------------------------------------
<BANKED_CODE> 3 (was BANKED_CODE)
  Relative segment, address: CODE 0001A1E5 - 0001A1F2 (0xe bytes), align: 0
  Segment part 105.           Intra module refs:   Delay1OSC::?relay
           ENTRY                   ADDRESS         REF BY
           =====                   =======         ======
           Delay1OSC               0001A1E5 
               XSTACK = 00000009 ( 00000000 )
    -------------------------------------------------------------------------
<BANKED_CODE> 3 (was BANKED_CODE)
  Relative segment, address: CODE 0001A1F3 - 0001A20B (0x19 bytes), align: 0
  Segment part 107.           Intra module refs:   DelayOSC::?relay
           ENTRY                   ADDRESS         REF BY
           =====                   =======         ======
           DelayOSC                0001A1F3 
               calls direct
               XSTACK = 00000009 ( 00000009 )
    -------------------------------------------------------------------------
<BANKED_CODE> 3 (was BANKED_CODE)
  Relative segment, address: CODE 0001A20C - 0001A23B (0x30 bytes), align: 0
  Segment part 109.           Intra module refs:   RTCWakeUpTm::?relay
           ENTRY                   ADDRESS         REF BY
           =====                   =======         ======
           RTCWakeUpTm             0001A20C 
               calls direct, is not allocated
               not allocated function
    -------------------------------------------------------------------------
<BANKED_CODE> 3 (was BANKED_CODE)
  Relative segment, address: CODE 0001A23C - 0001A269 (0x2e bytes), align: 0
  Segment part 115.           Intra module refs:   CPUInit::?relay
           ENTRY                   ADDRESS         REF BY
           =====                   =======         ======
           CPUInit                 0001A23C 
               calls direct, is not allocated
               not allocated function
    -------------------------------------------------------------------------
<BANKED_CODE> 3 (was BANKED_CODE)
  Relative segment, address: CODE 0001A26A - 0001A2D8 (0x6f bytes), align: 0
  Segment part 117.           Intra module refs:   SetPLL13M::?relay
           ENTRY                   ADDRESS         REF BY
           =====                   =======         ======
           SetPLL13M               0001A26A 
               is not allocated
               not allocated function
    -------------------------------------------------------------------------
<BANKED_CODE> 3 (was BANKED_CODE)
  Relative segment, address: CODE 0001A2D9 - 0001A34A (0x72 bytes), align: 0
  Segment part 121.           Intra module refs:   SetPLL800K::?relay
           ENTRY                   ADDRESS         REF BY
           =====                   =======         ======
           SetPLL800K              0001A2D9 
               is not allocated
               not allocated function
    -------------------------------------------------------------------------
<BANKED_CODE> 3 (was BANKED_CODE)
  Relative segment, address: CODE 0001A34B - 0001A387 (0x3d bytes), align: 0
  Segment part 123.           Intra module refs:   MChannelCal::?relay
           ENTRY                   ADDRESS         REF BY
           =====                   =======         ======
           MChannelCal             0001A34B 
               calls direct, is not allocated
               not allocated function
    -------------------------------------------------------------------------
<BANKED_CODE> 3 (was BANKED_CODE)
  Relative segment, address: CODE 0001A388 - 0001A4A5 (0x11e bytes), align: 0
  Segment part 125.           Intra module refs:   GetBat::?relay
           ENTRY                   ADDRESS         REF BY
           =====                   =======         ======
           GetBat                  0001A388 
               calls direct, is not allocated
               not allocated function
    -------------------------------------------------------------------------
<BANKED_CODE> 3 (was BANKED_CODE)
  Relative segment, address: CODE 0001A4A6 - 0001A51A (0x75 bytes), align: 0
  Segment part 127.           Intra module refs:   ChangeBodeProc::?relay
           ENTRY                   ADDRESS         REF BY
           =====                   =======         ======
           ChangeBodeProc          0001A4A6 
               calls direct, is not allocated
               not allocated function
    -------------------------------------------------------------------------
<BANKED_CODE> 3 (was BANKED_CODE)
  Relative segment, address: CODE 0001A51B - 0001A5DB (0xc1 bytes), align: 0
  Segment part 129.           Intra module refs:   IOOFF::?relay
           ENTRY                   ADDRESS         REF BY
           =====                   =======         ======
           IOOFF                   0001A51B 
               is not allocated
               not allocated function
    -------------------------------------------------------------------------
<BANKED_CODE> 3 (was BANKED_CODE)
  Relative segment, address: CODE 0001A5DC - 0001A64E (0x73 bytes), align: 0
  Segment part 131.           Intra module refs:   PowUpLedCtl::?relay
           ENTRY                   ADDRESS         REF BY
           =====                   =======         ======
           PowUpLedCtl             0001A5DC 
               calls direct, is not allocated
               not allocated function
    -------------------------------------------------------------------------
<BANKED_CODE> 3 (was BANKED_CODE)
  Relative segment, address: CODE 0001A64F - 0001A65A (0xc bytes), align: 0
  Segment part 133.           Intra module refs:   IntOFF::?relay
           ENTRY                   ADDRESS         REF BY
           =====                   =======         ======
           IntOFF                  0001A64F 
               is not allocated
               not allocated function
    -------------------------------------------------------------------------
<BANKED_CODE> 3 (was BANKED_CODE)
  Relative segment, address: CODE 0001A65B - 0001A676 (0x1c bytes), align: 0
  Segment part 135.           Intra module refs:   UARTOFF::?relay
           ENTRY                   ADDRESS         REF BY
           =====                   =======         ======
           UARTOFF                 0001A65B 
               is not allocated
               not allocated function
    -------------------------------------------------------------------------
<BANKED_CODE> 3 (was BANKED_CODE)
  Relative segment, address: CODE 0001A677 - 0001A6DF (0x69 bytes), align: 0
  Segment part 137.           Intra module refs:   MCUForPowerOff::?relay
           ENTRY                   ADDRESS         REF BY
           =====                   =======         ======
           MCUForPowerOff          0001A677 
               calls direct, is not allocated
               not allocated function
    -------------------------------------------------------------------------
<BANKED_CODE> 3 (was BANKED_CODE)
  Relative segment, address: CODE 0001A6E0 - 0001A6F6 (0x17 bytes), align: 0
  Segment part 139.           Intra module refs:   SwichPluseOutType::?relay
           ENTRY                   ADDRESS         REF BY
           =====                   =======         ======
           SwichPluseOutType       0001A6E0 
    -------------------------------------------------------------------------
<BANKED_CODE> 3 (was BANKED_CODE)
  Relative segment, address: CODE 0001A6F7 - 0001A763 (0x6d bytes), align: 0
  Segment part 143.           Intra module refs:   Sleep::?relay
           ENTRY                   ADDRESS         REF BY
           =====                   =======         ======
           Sleep                   0001A6F7 
               calls direct, is not allocated
               not allocated function
    -------------------------------------------------------------------------
<BANKED_CODE> 3 (was BANKED_CODE)
  Relative segment, address: CODE 0001A764 - 0001A85D (0xfa bytes), align: 0
  Segment part 145.           Intra module refs:   BgCtrFun::?relay
           ENTRY                   ADDRESS         REF BY
           =====                   =======         ======
           BgCtrFun                0001A764 
               calls direct, is not allocated
               not allocated function
    -------------------------------------------------------------------------
<BANKED_CODE> 3 (was BANKED_CODE)
  Relative segment, address: CODE 0001A85E - 0001A8A2 (0x45 bytes), align: 0
  Segment part 147.           Intra module refs:   GetExtRTC::?relay
           ENTRY                   ADDRESS         REF BY
           =====                   =======         ======
           GetExtRTC               0001A85E 
               calls direct, is not allocated
               not allocated function
    -------------------------------------------------------------------------
<BANKED_CODE> 3 (was BANKED_CODE)
  Relative segment, address: CODE 0001A8A3 - 0001A8F2 (0x50 bytes), align: 0
  Segment part 149.           Intra module refs:   SetExtRTC::?relay
           ENTRY                   ADDRESS         REF BY
           =====                   =======         ======
           SetExtRTC               0001A8A3 
               calls direct
               ISTACK = 00000000 ( 00000002 )
    -------------------------------------------------------------------------
<BANKED_CODE> 3 (was BANKED_CODE)
  Relative segment, address: CODE 0001A8F3 - 0001A978 (0x86 bytes), align: 0
  Segment part 151.           Intra module refs:   Check_Sfr::?relay
           ENTRY                   ADDRESS         REF BY
           =====                   =======         ======
           Check_Sfr               0001A8F3 
               is not allocated
               not allocated function
    -------------------------------------------------------------------------
<BANKED_CODE> 3 (was BANKED_CODE)
  Relative segment, address: CODE 0001A979 - 0001A9CE (0x56 bytes), align: 0
  Segment part 153.           Intra module refs:   EventOutProc::?relay
           ENTRY                   ADDRESS         REF BY
           =====                   =======         ======
           EventOutProc            0001A979 
               is not allocated
               not allocated function
    -------------------------------------------------------------------------
<BANKED_CODE> 3 (was BANKED_CODE)
  Relative segment, address: CODE 0001A9CF - 0001AA6E (0xa0 bytes), align: 0
  Segment part 155.           Intra module refs:   Mcu_BatCal::?relay
           ENTRY                   ADDRESS         REF BY
           =====                   =======         ======
           Mcu_BatCal              0001A9CF 
               calls direct
               XSTACK = 00000000 ( 00000014 )
    -------------------------------------------------------------------------
CODE_C
  Relative segment, address: CODE 00003457 - 0000345A (0x4 bytes), align: 0
  Segment part 87.            Intra module refs:   GetBat
                                                   Mcu_BatCal
           ENTRY                   ADDRESS         REF BY
           =====                   =======         ======
           __Constant_49d7810      00003457 
    -------------------------------------------------------------------------
CODE_C
  Relative segment, address: CODE 0000345B - 0000345E (0x4 bytes), align: 0
  Segment part 88.            Intra module refs:   GetBat
                                                   Mcu_BatCal
           ENTRY                   ADDRESS         REF BY
           =====                   =======         ======
           __Constant_629ec        0000345B 
    -------------------------------------------------------------------------
CODE_C
  Relative segment, address: CODE 0000345F - 00003462 (0x4 bytes), align: 0
  Segment part 89.            Intra module refs:   GetBat
           ENTRY                   ADDRESS         REF BY
           =====                   =======         ======
           __Constant_a29          0000345F 
    -------------------------------------------------------------------------
BANK_RELAYS
  Relative segment, address: CODE 000012D6 - 000012DB (0x6 bytes), align: 0
  Segment part 96.            Intra module refs:   CPUInit
           ENTRY                   ADDRESS         REF BY
           =====                   =======         ======
           Init_Port::?relay       000012D6 
    -------------------------------------------------------------------------
BANK_RELAYS
  Relative segment, address: CODE 000012DC - 000012E1 (0x6 bytes), align: 0
  Segment part 98.            Intra module refs:   CPUInit
           ENTRY                   ADDRESS         REF BY
           =====                   =======         ======
           Init_Timer0::?relay     000012DC 
    -------------------------------------------------------------------------
BANK_RELAYS
  Relative segment, address: CODE 000012E2 - 000012E7 (0x6 bytes), align: 0
  Segment part 102.           Intra module refs:   CPUInit
           ENTRY                   ADDRESS         REF BY
           =====                   =======         ======
           Init_Timer2::?relay     000012E2 
    -------------------------------------------------------------------------
BANK_RELAYS
  Relative segment, address: CODE 000012E8 - 000012ED (0x6 bytes), align: 0
  Segment part 104.           Intra module refs:   CPUInit
           ENTRY                   ADDRESS         REF BY
           =====                   =======         ======
           RAMInit::?relay         000012E8 
    -------------------------------------------------------------------------
BANK_RELAYS
  Relative segment, address: CODE 000012EE - 000012F3 (0x6 bytes), align: 0
  Segment part 106.           Intra module refs:   DelayOSC
           ENTRY                   ADDRESS         REF BY
           =====                   =======         ======
           Delay1OSC::?relay       000012EE 
    -------------------------------------------------------------------------
BANK_RELAYS
  Relative segment, address: CODE 000012F4 - 000012F9 (0x6 bytes), align: 0
  Segment part 108.           Intra module refs:   GetExtRTC
                                                   RTCWakeUpTm
                                                   SetExtRTC
                                                   Sleep
           ENTRY                   ADDRESS         REF BY
           =====                   =======         ======
           DelayOSC::?relay        000012F4        EnyB_SetMeterRule (EnergyBottom)
                                                   SetRTCNormal (RtcCpt)
    -------------------------------------------------------------------------
BANK_RELAYS
  Relative segment, address: CODE 000012FA - 000012FF (0x6 bytes), align: 0
  Segment part 110.           Intra module refs:   CPUInit
           ENTRY                   ADDRESS         REF BY
           =====                   =======         ======
           RTCWakeUpTm::?relay     000012FA        Pow_DnProc (Powmanger)
    -------------------------------------------------------------------------
BANK_RELAYS
  Relative segment, address: CODE 00001300 - 00001305 (0x6 bytes), align: 0
  Segment part 116.
           ENTRY                   ADDRESS         REF BY
           =====                   =======         ======
           CPUInit::?relay         00001300        main (main)
    -------------------------------------------------------------------------
BANK_RELAYS
  Relative segment, address: CODE 00001306 - 0000130B (0x6 bytes), align: 0
  Segment part 118.
           ENTRY                   ADDRESS         REF BY
           =====                   =======         ======
           SetPLL13M::?relay       00001306        main (main)
    -------------------------------------------------------------------------
BANK_RELAYS
  Relative segment, address: CODE 0000130C - 00001311 (0x6 bytes), align: 0
  Segment part 122.
           ENTRY                   ADDRESS         REF BY
           =====                   =======         ======
           SetPLL800K::?relay      0000130C        main (main)
    -------------------------------------------------------------------------
BANK_RELAYS
  Relative segment, address: CODE 00001312 - 00001317 (0x6 bytes), align: 0
  Segment part 124.
           ENTRY                   ADDRESS         REF BY
           =====                   =======         ======
           MChannelCal::?relay     00001312        TimeEventProc (main)
    -------------------------------------------------------------------------
BANK_RELAYS
  Relative segment, address: CODE 00001318 - 0000131D (0x6 bytes), align: 0
  Segment part 126.           Intra module refs:   MChannelCal
           ENTRY                   ADDRESS         REF BY
           =====                   =======         ======
           GetBat::?relay          00001318        Data_ClearEvent (Event)
                                                   Data_ClearMeter (Dataproc)
                                                   main (main)
    -------------------------------------------------------------------------
BANK_RELAYS
  Relative segment, address: CODE 0000131E - 00001323 (0x6 bytes), align: 0
  Segment part 128.           Intra module refs:   CPUInit
           ENTRY                   ADDRESS         REF BY
           =====                   =======         ======
           ChangeBodeProc::?relay
                                   0000131E 
    -------------------------------------------------------------------------
BANK_RELAYS
  Relative segment, address: CODE 00001324 - 00001329 (0x6 bytes), align: 0
  Segment part 130.
           ENTRY                   ADDRESS         REF BY
           =====                   =======         ======
           IOOFF::?relay           00001324        Pow_DnProc (Powmanger)
    -------------------------------------------------------------------------
BANK_RELAYS
  Relative segment, address: CODE 0000132A - 0000132F (0x6 bytes), align: 0
  Segment part 132.
           ENTRY                   ADDRESS         REF BY
           =====                   =======         ======
           PowUpLedCtl::?relay     0000132A        main (main)
    -------------------------------------------------------------------------
BANK_RELAYS
  Relative segment, address: CODE 00001330 - 00001335 (0x6 bytes), align: 0
  Segment part 134.
           ENTRY                   ADDRESS         REF BY
           =====                   =======         ======
           IntOFF::?relay          00001330        Pow_DnProc (Powmanger)
    -------------------------------------------------------------------------
BANK_RELAYS
  Relative segment, address: CODE 00001336 - 0000133B (0x6 bytes), align: 0
  Segment part 136.
           ENTRY                   ADDRESS         REF BY
           =====                   =======         ======
           UARTOFF::?relay         00001336        Pow_DnProc (Powmanger)
    -------------------------------------------------------------------------
BANK_RELAYS
  Relative segment, address: CODE 0000133C - 00001341 (0x6 bytes), align: 0
  Segment part 138.
           ENTRY                   ADDRESS         REF BY
           =====                   =======         ======
           MCUForPowerOff::?relay
                                   0000133C        Pow_DnProc (Powmanger)
    -------------------------------------------------------------------------
BANK_RELAYS
  Relative segment, address: CODE 00001342 - 00001347 (0x6 bytes), align: 0
  Segment part 140.
           ENTRY                   ADDRESS         REF BY
           =====                   =======         ======
           SwichPluseOutType::?relay
                                   00001342        SecPulsCtrl (DLT_645_2007)
    -------------------------------------------------------------------------
BANK_RELAYS
  Relative segment, address: CODE 00001348 - 0000134D (0x6 bytes), align: 0
  Segment part 144.
           ENTRY                   ADDRESS         REF BY
           =====                   =======         ======
           Sleep::?relay           00001348        Pow_DnProc (Powmanger)
    -------------------------------------------------------------------------
BANK_RELAYS
  Relative segment, address: CODE 0000134E - 00001353 (0x6 bytes), align: 0
  Segment part 146.
           ENTRY                   ADDRESS         REF BY
           =====                   =======         ======
           BgCtrFun::?relay        0000134E        TimeEventProc (main)
    -------------------------------------------------------------------------
BANK_RELAYS
  Relative segment, address: CODE 00001354 - 00001359 (0x6 bytes), align: 0
  Segment part 148.
           ENTRY                   ADDRESS         REF BY
           =====                   =======         ======
           GetExtRTC::?relay       00001354        CheckTime (Timeproc)
                                                   SleepTimeProc (Timeproc)
    -------------------------------------------------------------------------
BANK_RELAYS
  Relative segment, address: CODE 0000135A - 0000135F (0x6 bytes), align: 0
  Segment part 150.
           ENTRY                   ADDRESS         REF BY
           =====                   =======         ======
           SetExtRTC::?relay       0000135A        CheckTime (Timeproc)
                                                   ClockBAK_All (Timeproc)
                                                   SleepTimeProc (Timeproc)
    -------------------------------------------------------------------------
BANK_RELAYS
  Relative segment, address: CODE 00001360 - 00001365 (0x6 bytes), align: 0
  Segment part 152.
           ENTRY                   ADDRESS         REF BY
           =====                   =======         ======
           Check_Sfr::?relay       00001360        main (main)
    -------------------------------------------------------------------------
BANK_RELAYS
  Relative segment, address: CODE 00001366 - 0000136B (0x6 bytes), align: 0
  Segment part 154.           Intra module refs:   Init_Port
           ENTRY                   ADDRESS         REF BY
           =====                   =======         ======
           EventOutProc::?relay    00001366        TimeEventProc (main)
    -------------------------------------------------------------------------
BANK_RELAYS
  Relative segment, address: CODE 0000136C - 00001371 (0x6 bytes), align: 0
  Segment part 156.
           ENTRY                   ADDRESS         REF BY
           =====                   =======         ======
           Mcu_BatCal::?relay      0000136C        Data_FactoryClr (Dataproc)
                                                   FactoryWR (DLT_645_2007)

    *************************************************************************

  FILE NAME : F:\SVN\06solution\Projects\农网\D105\Sw\Debug\Obj\Multariff.r51
  PROGRAM MODULE, NAME : Multariff

  SEGMENTS IN THE MODULE
  ======================
XDATA_Z
  Relative segment, address: XDATA 0000094A - 0000094D (0x4 bytes), align: 0
  Segment part 7.             Intra module refs:   IsJR
                                                   IsNumSD
                                                   IsNumSQ
                                                   IsValidSQ
                                                   IsZXR
                                                   getFee
                                                   getTimeZone
           ENTRY                   ADDRESS         REF BY
           =====                   =======         ======
           gs_FeeData              0000094A        Data_FactoryClr (Dataproc)
                                                   EnyB_IntCF (EnergyBottom)
                                                   Eny_EnergyActiveSave (Energy)
                                                   Eny_GetEp1 (Energy)
                                                   Pow_DnProc (Powmanger)
                                                   RecoverEnegyData (Dataproc)
                                                   ShowStateManage (Lcdshow)
    -------------------------------------------------------------------------
XDATA_Z
  Relative segment, address: XDATA 0000094E - 0000094E (0x1 bytes), align: 0
  Segment part 9.             Intra module refs:   getFee
           ENTRY                   ADDRESS         REF BY
           =====                   =======         ======
           guc_SdNum               0000094E 
    -------------------------------------------------------------------------
XDATA_Z
  Relative segment, address: XDATA 0000094F - 0000094F (0x1 bytes), align: 0
  Segment part 10.            Intra module refs:   IsJR
                                                   IsNumSD
                                                   IsNumSQ
                                                   IsValidSQ
                                                   IsZXR
                                                   getFee
                                                   getTimeZone
           ENTRY                   ADDRESS         REF BY
           =====                   =======         ======
           guc_Pulse               0000094F 
    -------------------------------------------------------------------------
XDATA_Z
  Relative segment, address: XDATA 00000950 - 00000950 (0x1 bytes), align: 0
  Segment part 11.            Intra module refs:   getTimeZone
           ENTRY                   ADDRESS         REF BY
           =====                   =======         ======
           guc_DayType             00000950 
    -------------------------------------------------------------------------
<BANKED_CODE> 3 (was BANKED_CODE)
  Relative segment, address: CODE 0001BD63 - 0001BE89 (0x127 bytes), align: 0
  Segment part 21.            Intra module refs:   IsNumSD::?relay
           ENTRY                   ADDRESS         REF BY
           =====                   =======         ======
           IsNumSD                 0001BD63 
               calls direct, is not allocated
               not allocated function
    -------------------------------------------------------------------------
<BANKED_CODE> 3 (was BANKED_CODE)
  Relative segment, address: CODE 0001BE8A - 0001BFAF (0x126 bytes), align: 0
  Segment part 23.            Intra module refs:   IsNumSQ::?relay
           ENTRY                   ADDRESS         REF BY
           =====                   =======         ======
           IsNumSQ                 0001BE8A 
               calls direct, is not allocated
               not allocated function
    -------------------------------------------------------------------------
<BANKED_CODE> 3 (was BANKED_CODE)
  Relative segment, address: CODE 0001BFB0 - 0001C07F (0xd0 bytes), align: 0
  Segment part 25.            Intra module refs:   IsJR::?relay
           ENTRY                   ADDRESS         REF BY
           =====                   =======         ======
           IsJR                    0001BFB0 
               calls direct, is not allocated
               not allocated function
    -------------------------------------------------------------------------
<BANKED_CODE> 3 (was BANKED_CODE)
  Relative segment, address: CODE 0001C080 - 0001C120 (0xa1 bytes), align: 0
  Segment part 27.            Intra module refs:   IsZXR::?relay
           ENTRY                   ADDRESS         REF BY
           =====                   =======         ======
           IsZXR                   0001C080 
               calls direct, is not allocated
               not allocated function
    -------------------------------------------------------------------------
<BANKED_CODE> 3 (was BANKED_CODE)
  Relative segment, address: CODE 0001C121 - 0001C1C5 (0xa5 bytes), align: 0
  Segment part 29.            Intra module refs:   Search_SdNum::?relay
           ENTRY                   ADDRESS         REF BY
           =====                   =======         ======
           Search_SdNum            0001C121 
               is not allocated
               not allocated function
    -------------------------------------------------------------------------
<BANKED_CODE> 3 (was BANKED_CODE)
  Relative segment, address: CODE 0001C1C6 - 0001C297 (0xd2 bytes), align: 0
  Segment part 31.            Intra module refs:   Search_Pos::?relay
           ENTRY                   ADDRESS         REF BY
           =====                   =======         ======
           Search_Pos              0001C1C6 
               is not allocated
               not allocated function
    -------------------------------------------------------------------------
<BANKED_CODE> 3 (was BANKED_CODE)
  Relative segment, address: CODE 0001C298 - 0001C375 (0xde bytes), align: 0
  Segment part 33.            Intra module refs:   IsValidSQ::?relay
           ENTRY                   ADDRESS         REF BY
           =====                   =======         ======
           IsValidSQ               0001C298 
               calls direct, is not allocated
               not allocated function
    -------------------------------------------------------------------------
<BANKED_CODE> 3 (was BANKED_CODE)
  Relative segment, address: CODE 0001C376 - 0001C42E (0xb9 bytes), align: 0
  Segment part 35.            Intra module refs:   getTimeZone::?relay
           ENTRY                   ADDRESS         REF BY
           =====                   =======         ======
           getTimeZone             0001C376 
               calls direct, is not allocated
               not allocated function
    -------------------------------------------------------------------------
<BANKED_CODE> 3 (was BANKED_CODE)
  Relative segment, address: CODE 0001C42F - 0001C598 (0x16a bytes), align: 0
  Segment part 37.            Intra module refs:   getFee::?relay
           ENTRY                   ADDRESS         REF BY
           =====                   =======         ======
           getFee                  0001C42F 
               calls direct, is not allocated
               not allocated function
    -------------------------------------------------------------------------
CODE_C
  Relative segment, address: CODE 00003463 - 00003466 (0x4 bytes), align: 0
  Segment part 12.            Intra module refs:   IsNumSD
           ENTRY                   ADDRESS         REF BY
           =====                   =======         ======
           __Constant_1cf          00003463 
    -------------------------------------------------------------------------
CODE_C
  Relative segment, address: CODE 00003467 - 0000346A (0x4 bytes), align: 0
  Segment part 13.            Intra module refs:   IsNumSQ
           ENTRY                   ADDRESS         REF BY
           =====                   =======         ======
           __Constant_1ca          00003467 
    -------------------------------------------------------------------------
CODE_C
  Relative segment, address: CODE 0000346B - 0000346E (0x4 bytes), align: 0
  Segment part 14.            Intra module refs:   IsJR
           ENTRY                   ADDRESS         REF BY
           =====                   =======         ======
           __Constant_1c8          0000346B 
    -------------------------------------------------------------------------
CODE_C
  Relative segment, address: CODE 0000346F - 00003472 (0x4 bytes), align: 0
  Segment part 15.            Intra module refs:   IsZXR
           ENTRY                   ADDRESS         REF BY
           =====                   =======         ======
           __Constant_1c4          0000346F 
    -------------------------------------------------------------------------
CODE_C
  Relative segment, address: CODE 00003473 - 00003476 (0x4 bytes), align: 0
  Segment part 16.            Intra module refs:   IsZXR
           ENTRY                   ADDRESS         REF BY
           =====                   =======         ======
           __Constant_1c5          00003473 
    -------------------------------------------------------------------------
CODE_C
  Relative segment, address: CODE 00003477 - 0000347A (0x4 bytes), align: 0
  Segment part 17.            Intra module refs:   IsValidSQ
           ENTRY                   ADDRESS         REF BY
           =====                   =======         ======
           __Constant_1c0          00003477 
    -------------------------------------------------------------------------
CODE_C
  Relative segment, address: CODE 0000347B - 0000347E (0x4 bytes), align: 0
  Segment part 18.            Intra module refs:   getTimeZone
           ENTRY                   ADDRESS         REF BY
           =====                   =======         ======
           __Constant_1c1          0000347B 
    -------------------------------------------------------------------------
CODE_C
  Relative segment, address: CODE 0000347F - 00003482 (0x4 bytes), align: 0
  Segment part 19.            Intra module refs:   getFee
           ENTRY                   ADDRESS         REF BY
           =====                   =======         ======
           __Constant_1c2          0000347F 
    -------------------------------------------------------------------------
CODE_C
  Relative segment, address: CODE 00003483 - 00003486 (0x4 bytes), align: 0
  Segment part 20.            Intra module refs:   getFee
           ENTRY                   ADDRESS         REF BY
           =====                   =======         ======
           __Constant_1c3          00003483 
    -------------------------------------------------------------------------
BANK_RELAYS
  Relative segment, address: CODE 00001372 - 00001377 (0x6 bytes), align: 0
  Segment part 22.            Intra module refs:   getTimeZone
           ENTRY                   ADDRESS         REF BY
           =====                   =======         ======
           IsNumSD::?relay         00001372 
    -------------------------------------------------------------------------
BANK_RELAYS
  Relative segment, address: CODE 00001378 - 0000137D (0x6 bytes), align: 0
  Segment part 24.            Intra module refs:   getTimeZone
           ENTRY                   ADDRESS         REF BY
           =====                   =======         ======
           IsNumSQ::?relay         00001378 
    -------------------------------------------------------------------------
BANK_RELAYS
  Relative segment, address: CODE 0000137E - 00001383 (0x6 bytes), align: 0
  Segment part 26.            Intra module refs:   getTimeZone
           ENTRY                   ADDRESS         REF BY
           =====                   =======         ======
           IsJR::?relay            0000137E 
    -------------------------------------------------------------------------
BANK_RELAYS
  Relative segment, address: CODE 00001384 - 00001389 (0x6 bytes), align: 0
  Segment part 28.            Intra module refs:   getTimeZone
           ENTRY                   ADDRESS         REF BY
           =====                   =======         ======
           IsZXR::?relay           00001384 
    -------------------------------------------------------------------------
BANK_RELAYS
  Relative segment, address: CODE 0000138A - 0000138F (0x6 bytes), align: 0
  Segment part 30.            Intra module refs:   getFee
           ENTRY                   ADDRESS         REF BY
           =====                   =======         ======
           Search_SdNum::?relay    0000138A 
    -------------------------------------------------------------------------
BANK_RELAYS
  Relative segment, address: CODE 00001390 - 00001395 (0x6 bytes), align: 0
  Segment part 32.            Intra module refs:   IsValidSQ
           ENTRY                   ADDRESS         REF BY
           =====                   =======         ======
           Search_Pos::?relay      00001390 
    -------------------------------------------------------------------------
BANK_RELAYS
  Relative segment, address: CODE 00001396 - 0000139B (0x6 bytes), align: 0
  Segment part 34.            Intra module refs:   getTimeZone
           ENTRY                   ADDRESS         REF BY
           =====                   =======         ======
           IsValidSQ::?relay       00001396 
    -------------------------------------------------------------------------
BANK_RELAYS
  Relative segment, address: CODE 0000139C - 000013A1 (0x6 bytes), align: 0
  Segment part 36.
           ENTRY                   ADDRESS         REF BY
           =====                   =======         ======
           getTimeZone::?relay     0000139C        Data_MinProc (Dataproc)
                                                   main (main)
    -------------------------------------------------------------------------
BANK_RELAYS
  Relative segment, address: CODE 000013A2 - 000013A7 (0x6 bytes), align: 0
  Segment part 38.            Intra module refs:   getTimeZone
           ENTRY                   ADDRESS         REF BY
           =====                   =======         ======
           getFee::?relay          000013A2 

    *************************************************************************

  FILE NAME : F:\SVN\06solution\Projects\农网\D105\Sw\Debug\Obj\Powmanger.r51
  PROGRAM MODULE, NAME : Powmanger

  SEGMENTS IN THE MODULE
  ======================
XDATA_AN
  Relative segment, address: XDATA 00002865 - 00002865 (0x1 bytes), align: 0
  Segment part 10. ROOT.      Intra module refs:   Pow_DnProc
                                                   main (main)
           ENTRY                   ADDRESS         REF BY
           =====                   =======         ======
           CtrlM                   00002865 
    -------------------------------------------------------------------------
XDATA_Z
  Relative segment, address: XDATA 00000951 - 00000952 (0x2 bytes), align: 0
  Segment part 17.            Intra module refs:   Pow_DnProc
           ENTRY                   ADDRESS         REF BY
           =====                   =======         ======
           gs_powerErr             00000951        RecoverEnegyData (Dataproc)
    -------------------------------------------------------------------------
XDATA_Z
  Relative segment, address: XDATA 00000953 - 00000953 (0x1 bytes), align: 0
  Segment part 18.            Intra module refs:   PowDownChk
           ENTRY                   ADDRESS         REF BY
           =====                   =======         ======
           guc_ChkPowDn            00000953 
    -------------------------------------------------------------------------
<BANKED_CODE> 3 (was BANKED_CODE)
  Relative segment, address: CODE 0001E359 - 0001E38B (0x33 bytes), align: 0
  Segment part 23.            Intra module refs:   PowDownChk::?relay
           ENTRY                   ADDRESS         REF BY
           =====                   =======         ======
           PowDownChk              0001E359 
               ISTACK = 00000000 ( 00000002 )
    -------------------------------------------------------------------------
<BANKED_CODE> 3 (was BANKED_CODE)
  Relative segment, address: CODE 0001E38C - 0001E4DF (0x154 bytes), align: 0
  Segment part 25.            Intra module refs:   Pow_DnProc::?relay
           ENTRY                   ADDRESS         REF BY
           =====                   =======         ======
           Pow_DnProc              0001E38C 
               calls direct, is not allocated
               not allocated function
    -------------------------------------------------------------------------
<BANKED_CODE> 3 (was BANKED_CODE)
  Relative segment, address: CODE 0001E4E0 - 0001E52D (0x4e bytes), align: 0
  Segment part 27.            Intra module refs:   JudgePowerDnValue::?relay
           ENTRY                   ADDRESS         REF BY
           =====                   =======         ======
           JudgePowerDnValue       0001E4E0 
               is not allocated
               not allocated function
    -------------------------------------------------------------------------
CODE_C
  Relative segment, address: CODE 00003487 - 0000348A (0x4 bytes), align: 0
  Segment part 20.            Intra module refs:   JudgePowerDnValue
           ENTRY                   ADDRESS         REF BY
           =====                   =======         ======
           __Constant_fffff961     00003487 
    -------------------------------------------------------------------------
CODE_C
  Relative segment, address: CODE 0000348B - 0000348E (0x4 bytes), align: 0
  Segment part 21.            Intra module refs:   JudgePowerDnValue
           ENTRY                   ADDRESS         REF BY
           =====                   =======         ======
           __Constant_3b1          0000348B 
    -------------------------------------------------------------------------
BANK_RELAYS
  Relative segment, address: CODE 000013A8 - 000013AD (0x6 bytes), align: 0
  Segment part 24.
           ENTRY                   ADDRESS         REF BY
           =====                   =======         ======
           PowDownChk::?relay      000013A8        Timer0Interrupt (System)
    -------------------------------------------------------------------------
BANK_RELAYS
  Relative segment, address: CODE 000013AE - 000013B3 (0x6 bytes), align: 0
  Segment part 26.
           ENTRY                   ADDRESS         REF BY
           =====                   =======         ======
           Pow_DnProc::?relay      000013AE        SysEventProc (main)
    -------------------------------------------------------------------------
BANK_RELAYS
  Relative segment, address: CODE 000013B4 - 000013B9 (0x6 bytes), align: 0
  Segment part 28.            Intra module refs:   Pow_DnProc
           ENTRY                   ADDRESS         REF BY
           =====                   =======         ======
           JudgePowerDnValue::?relay
                                   000013B4 

    *************************************************************************

  FILE NAME : F:\SVN\06solution\Projects\农网\D105\Sw\Debug\Obj\Prcfrm.r51
  PROGRAM MODULE, NAME : Prcfrm

  SEGMENTS IN THE MODULE
  ======================
XDATA_Z
  Relative segment, address: XDATA 00000954 - 00000959 (0x6 bytes), align: 0
  Segment part 6.             Intra module refs:   Encode645Frame
                                                   Judge645Addr
           ENTRY                   ADDRESS         REF BY
           =====                   =======         ======
           guc_MeteAddr            00000954        WriteMeterAddr (DLT_645_2007)
    -------------------------------------------------------------------------
XDATA_Z
  Relative segment, address: XDATA 0000095A - 0000095A (0x1 bytes), align: 0
  Segment part 7.             Intra module refs:   Decode645Frame
           ENTRY                   ADDRESS         REF BY
           =====                   =======         ======
           guc_FactoryType         0000095A        CalPowDwTm (Dataproc)
                                                   CalRMS (EnergyBottom)
                                                   ChangePassWord (DLT_645_2007)
                                                   ClearEvent (DLT_645_2007)
                                                   ClearMeter (DLT_645_2007)
                                                   ComRWE2Para (DLT_645_2007)
                                                   Data_ClearMeter (Dataproc)
                                                   FactoryWR (DLT_645_2007)
                                                   KeyPgm_DyOut (Key)
                                                   ShowStateManage (Lcdshow)
                                                   WriteMeterAddr (DLT_645_2007)
    -------------------------------------------------------------------------
XDATA_Z
  Relative segment, address: XDATA 0000095B - 00000962 (0x8 bytes), align: 0
  Segment part 8.             Intra module refs:   JudgePassword
                                                   PwBs_DyOut
           ENTRY                   ADDRESS         REF BY
           =====                   =======         ======
           gs_PassWordCtr          0000095B        CalPowDwTm (Dataproc)
                                                   Data_FactoryClr (Dataproc)
                                                   Pow_DnProc (Powmanger)
                                                   ShowStateFlashManage (Lcdshow)
    -------------------------------------------------------------------------
CODE_C
  Relative segment, address: CODE 0000348F - 000034BB (0x2d bytes), align: 0
  Segment part 9.             Intra module refs:   BD_ProcFrame
           ENTRY                   ADDRESS         REF BY
           =====                   =======         ======
           gs_CmdProc              0000348F 
    -------------------------------------------------------------------------
<BANKED_CODE> 2 (was BANKED_CODE)
  Relative segment, address: CODE 0000E2FE - 0000E3FB (0xfe bytes), align: 0
  Segment part 22.            Intra module refs:   BD_ProcFrame::?relay
           ENTRY                   ADDRESS         REF BY
           =====                   =======         ======
           BD_ProcFrame            0000E2FE 
               calls direct, is not allocated
               not allocated function
    -------------------------------------------------------------------------
<BANKED_CODE> 2 (was BANKED_CODE)
  Relative segment, address: CODE 0000E3FC - 0000E473 (0x78 bytes), align: 0
  Segment part 24.            Intra module refs:   Judge645Frm::?relay
           ENTRY                   ADDRESS         REF BY
           =====                   =======         ======
           Judge645Frm             0000E3FC 
               calls direct, is not allocated
               not allocated function
    -------------------------------------------------------------------------
<BANKED_CODE> 2 (was BANKED_CODE)
  Relative segment, address: CODE 0000E474 - 0000E4EC (0x79 bytes), align: 0
  Segment part 26.            Intra module refs:   IsValidFrame::?relay
           ENTRY                   ADDRESS         REF BY
           =====                   =======         ======
           IsValidFrame            0000E474 
               calls direct, is not allocated
               not allocated function
    -------------------------------------------------------------------------
<BANKED_CODE> 2 (was BANKED_CODE)
  Relative segment, address: CODE 0000E4ED - 0000E50F (0x23 bytes), align: 0
  Segment part 28.            Intra module refs:   DoSum::?relay
           ENTRY                   ADDRESS         REF BY
           =====                   =======         ======
           DoSum                   0000E4ED 
               is not allocated
               not allocated function
    -------------------------------------------------------------------------
<BANKED_CODE> 2 (was BANKED_CODE)
  Relative segment, address: CODE 0000E510 - 0000E7BF (0x2b0 bytes), align: 0
  Segment part 30.            Intra module refs:   Decode645Frame::?relay
           ENTRY                   ADDRESS         REF BY
           =====                   =======         ======
           Decode645Frame          0000E510 
               calls direct, is not allocated
               not allocated function
    -------------------------------------------------------------------------
<BANKED_CODE> 2 (was BANKED_CODE)
  Relative segment, address: CODE 0000E7C0 - 0000E87D (0xbe bytes), align: 0
  Segment part 32.            Intra module refs:   PwBs_DyOut::?relay
           ENTRY                   ADDRESS         REF BY
           =====                   =======         ======
           PwBs_DyOut              0000E7C0 
               calls direct, is not allocated
               not allocated function
    -------------------------------------------------------------------------
<BANKED_CODE> 2 (was BANKED_CODE)
  Relative segment, address: CODE 0000E87E - 0000EA44 (0x1c7 bytes), align: 0
  Segment part 34.            Intra module refs:   JudgePassword::?relay
           ENTRY                   ADDRESS         REF BY
           =====                   =======         ======
           JudgePassword           0000E87E 
               calls direct
               XSTACK = 00000010 ( 00000012 )
    -------------------------------------------------------------------------
<BANKED_CODE> 2 (was BANKED_CODE)
  Relative segment, address: CODE 0000EA45 - 0000EBF9 (0x1b5 bytes), align: 0
  Segment part 36.            Intra module refs:   Judge645Addr::?relay
           ENTRY                   ADDRESS         REF BY
           =====                   =======         ======
           Judge645Addr            0000EA45 
               calls direct, is not allocated
               not allocated function
    -------------------------------------------------------------------------
<BANKED_CODE> 2 (was BANKED_CODE)
  Relative segment, address: CODE 0000EBFA - 0000EF13 (0x31a bytes), align: 0
  Segment part 38.            Intra module refs:   Encode645Frame::?relay
           ENTRY                   ADDRESS         REF BY
           =====                   =======         ======
           Encode645Frame          0000EBFA 
               calls direct, is not allocated
               not allocated function
    -------------------------------------------------------------------------
<BANKED_CODE> 2 (was BANKED_CODE)
  Relative segment, address: CODE 0000EF14 - 0000EF33 (0x20 bytes), align: 0
  Segment part 40.            Intra module refs:   UnDo33::?relay
           ENTRY                   ADDRESS         REF BY
           =====                   =======         ======
           UnDo33                  0000EF14 
               is not allocated
               not allocated function
    -------------------------------------------------------------------------
<BANKED_CODE> 2 (was BANKED_CODE)
  Relative segment, address: CODE 0000EF34 - 0000EF53 (0x20 bytes), align: 0
  Segment part 42.            Intra module refs:   Do33::?relay
           ENTRY                   ADDRESS         REF BY
           =====                   =======         ======
           Do33                    0000EF34 
               is not allocated
               not allocated function
    -------------------------------------------------------------------------
CODE_C
  Relative segment, address: CODE 000034BC - 000034BF (0x4 bytes), align: 0
  Segment part 10.            Intra module refs:   BD_ProcFrame
           ENTRY                   ADDRESS         REF BY
           =====                   =======         ======
           __Constant_40           000034BC 
    -------------------------------------------------------------------------
CODE_C
  Relative segment, address: CODE 000034C0 - 000034C3 (0x4 bytes), align: 0
  Segment part 13.            Intra module refs:   Decode645Frame
           ENTRY                   ADDRESS         REF BY
           =====                   =======         ======
           __Constant_4040300      000034C0 
    -------------------------------------------------------------------------
CODE_C
  Relative segment, address: CODE 000034C4 - 000034C7 (0x4 bytes), align: 0
  Segment part 15.            Intra module refs:   JudgePassword
                                                   PwBs_DyOut
           ENTRY                   ADDRESS         REF BY
           =====                   =======         ======
           __Constant_ef7          000034C4 
    -------------------------------------------------------------------------
CODE_C
  Relative segment, address: CODE 000034C8 - 000034CB (0x4 bytes), align: 0
  Segment part 16.            Intra module refs:   JudgePassword
           ENTRY                   ADDRESS         REF BY
           =====                   =======         ======
           __Constant_92           000034C8 
    -------------------------------------------------------------------------
CODE_C
  Relative segment, address: CODE 000034CC - 000034CF (0x4 bytes), align: 0
  Segment part 17.            Intra module refs:   JudgePassword
           ENTRY                   ADDRESS         REF BY
           =====                   =======         ======
           __Constant_90           000034CC 
    -------------------------------------------------------------------------
CODE_C
  Relative segment, address: CODE 000034D0 - 000034D3 (0x4 bytes), align: 0
  Segment part 19.            Intra module refs:   Encode645Frame
           ENTRY                   ADDRESS         REF BY
           =====                   =======         ======
           __Constant_4001501      000034D0 
    -------------------------------------------------------------------------
BANK_RELAYS
  Relative segment, address: CODE 000013BA - 000013BF (0x6 bytes), align: 0
  Segment part 23.
           ENTRY                   ADDRESS         REF BY
           =====                   =======         ======
           BD_ProcFrame::?relay    000013BA        Uart_Proc (ComApplication)
    -------------------------------------------------------------------------
BANK_RELAYS
  Relative segment, address: CODE 000013C0 - 000013C5 (0x6 bytes), align: 0
  Segment part 25.            Intra module refs:   BD_ProcFrame
           ENTRY                   ADDRESS         REF BY
           =====                   =======         ======
           Judge645Frm::?relay     000013C0 
    -------------------------------------------------------------------------
BANK_RELAYS
  Relative segment, address: CODE 000013C6 - 000013CB (0x6 bytes), align: 0
  Segment part 27.            Intra module refs:   Judge645Frm
           ENTRY                   ADDRESS         REF BY
           =====                   =======         ======
           IsValidFrame::?relay    000013C6 
    -------------------------------------------------------------------------
BANK_RELAYS
  Relative segment, address: CODE 000013CC - 000013D1 (0x6 bytes), align: 0
  Segment part 29.            Intra module refs:   Encode645Frame
                                                   IsValidFrame
           ENTRY                   ADDRESS         REF BY
           =====                   =======         ======
           DoSum::?relay           000013CC        CalRTC (RtcCpt)
                                                   RtcParaFsToE2 (RtcCpt)
    -------------------------------------------------------------------------
BANK_RELAYS
  Relative segment, address: CODE 000013D2 - 000013D7 (0x6 bytes), align: 0
  Segment part 31.            Intra module refs:   BD_ProcFrame
           ENTRY                   ADDRESS         REF BY
           =====                   =======         ======
           Decode645Frame::?relay
                                   000013D2 
    -------------------------------------------------------------------------
BANK_RELAYS
  Relative segment, address: CODE 000013D8 - 000013DD (0x6 bytes), align: 0
  Segment part 33.
           ENTRY                   ADDRESS         REF BY
           =====                   =======         ======
           PwBs_DyOut::?relay      000013D8        ShowSecondProc (Lcdshow)
    -------------------------------------------------------------------------
BANK_RELAYS
  Relative segment, address: CODE 000013DE - 000013E3 (0x6 bytes), align: 0
  Segment part 35.            Intra module refs:   Decode645Frame
           ENTRY                   ADDRESS         REF BY
           =====                   =======         ======
           JudgePassword::?relay   000013DE        ChangePassWord (DLT_645_2007)
                                                   ClearEvent (DLT_645_2007)
                                                   ClearMeter (DLT_645_2007)
    -------------------------------------------------------------------------
BANK_RELAYS
  Relative segment, address: CODE 000013E4 - 000013E9 (0x6 bytes), align: 0
  Segment part 37.            Intra module refs:   Decode645Frame
           ENTRY                   ADDRESS         REF BY
           =====                   =======         ======
           Judge645Addr::?relay    000013E4 
    -------------------------------------------------------------------------
BANK_RELAYS
  Relative segment, address: CODE 000013EA - 000013EF (0x6 bytes), align: 0
  Segment part 39.            Intra module refs:   BD_ProcFrame
           ENTRY                   ADDRESS         REF BY
           =====                   =======         ======
           Encode645Frame::?relay
                                   000013EA 
    -------------------------------------------------------------------------
BANK_RELAYS
  Relative segment, address: CODE 000013F0 - 000013F5 (0x6 bytes), align: 0
  Segment part 41.            Intra module refs:   Decode645Frame
           ENTRY                   ADDRESS         REF BY
           =====                   =======         ======
           UnDo33::?relay          000013F0 
    -------------------------------------------------------------------------
BANK_RELAYS
  Relative segment, address: CODE 000013F6 - 000013FB (0x6 bytes), align: 0
  Segment part 43.            Intra module refs:   Encode645Frame
           ENTRY                   ADDRESS         REF BY
           =====                   =======         ======
           Do33::?relay            000013F6 

    *************************************************************************

  FILE NAME : F:\SVN\06solution\Projects\农网\D105\Sw\Debug\Obj\PrologFee.r51
  PROGRAM MODULE, NAME : PrologFee

  SEGMENTS IN THE MODULE
  ======================
XDATA_Z
  Relative segment, address: XDATA 00000963 - 00000981 (0x1f bytes), align: 0
  Segment part 6.             Intra module refs:   ReadRSDLogItem
           ENTRY                   ADDRESS         REF BY
           =====                   =======         ======
           RsdJLIndex              00000963 
    -------------------------------------------------------------------------
XDATA_Z
  Relative segment, address: XDATA 00000982 - 000009A0 (0x1f bytes), align: 0
  Segment part 7.             Intra module refs:   ReadSQLogItem
           ENTRY                   ADDRESS         REF BY
           =====                   =======         ======
           SQJLIndex               00000982 
    -------------------------------------------------------------------------
CODE_C
  Relative segment, address: CODE 000034D4 - 000034E5 (0x12 bytes), align: 0
  Segment part 8.             Intra module refs:   RSDJLlog
           ENTRY                   ADDRESS         REF BY
           =====                   =======         ======
           RSBJLID                 000034D4 
    -------------------------------------------------------------------------
<BANKED_CODE> 1 (was BANKED_CODE)
  Relative segment, address: CODE 00006CC7 - 00006E81 (0x1bb bytes), align: 0
  Segment part 17.            Intra module refs:   RSDJLlog::?relay
           ENTRY                   ADDRESS         REF BY
           =====                   =======         ======
           RSDJLlog                00006CC7 
               calls direct
               XSTACK = 00000000 ( 00000013 )
               ISTACK = 00000000 ( 00000001 )
    -------------------------------------------------------------------------
<BANKED_CODE> 1 (was BANKED_CODE)
  Relative segment, address: CODE 00006E82 - 00006F4D (0xcc bytes), align: 0
  Segment part 19.            Intra module refs:   ProJL::?relay
           ENTRY                   ADDRESS         REF BY
           =====                   =======         ======
           ProJL                   00006E82 
               calls direct
               XSTACK = 00000000 ( 00000012 )
    -------------------------------------------------------------------------
<BANKED_CODE> 1 (was BANKED_CODE)
  Relative segment, address: CODE 00006F4E - 000075EB (0x69e bytes), align: 0
  Segment part 21.            Intra module refs:   ReadRSDLogItem::?relay
           ENTRY                   ADDRESS         REF BY
           =====                   =======         ======
           ReadRSDLogItem          00006F4E 
               calls direct
               XSTACK = 00000000 ( 00000020 )
               ISTACK = 00000000 ( 00000001 )
    -------------------------------------------------------------------------
<BANKED_CODE> 1 (was BANKED_CODE)
  Relative segment, address: CODE 000075EC - 00007AC5 (0x4da bytes), align: 0
  Segment part 23.            Intra module refs:   ReadSQLogItem::?relay
           ENTRY                   ADDRESS         REF BY
           =====                   =======         ======
           ReadSQLogItem           000075EC 
               calls direct
               XSTACK = 00000000 ( 0000001E )
               ISTACK = 00000000 ( 00000001 )
    -------------------------------------------------------------------------
<BANKED_CODE> 1 (was BANKED_CODE)
  Relative segment, address: CODE 00007AC6 - 00007B56 (0x91 bytes), align: 0
  Segment part 25.            Intra module refs:   SeekDataID::?relay
           ENTRY                   ADDRESS         REF BY
           =====                   =======         ======
           SeekDataID              00007AC6 
               calls direct
               XSTACK = 00000004 ( 0000000E )
    -------------------------------------------------------------------------
CODE_C
  Relative segment, address: CODE 000034E6 - 000034E9 (0x4 bytes), align: 0
  Segment part 9.             Intra module refs:   RSDJLlog
                                                   ReadSQLogItem
           ENTRY                   ADDRESS         REF BY
           =====                   =======         ======
           __Constant_4203         000034E6 
    -------------------------------------------------------------------------
CODE_C
  Relative segment, address: CODE 000034EA - 000034ED (0x4 bytes), align: 0
  Segment part 10.            Intra module refs:   RSDJLlog
                                                   ReadRSDLogItem
           ENTRY                   ADDRESS         REF BY
           =====                   =======         ======
           __Constant_3fc3         000034EA 
    -------------------------------------------------------------------------
CODE_C
  Relative segment, address: CODE 000034EE - 000034F1 (0x4 bytes), align: 0
  Segment part 13.            Intra module refs:   ReadRSDLogItem
           ENTRY                   ADDRESS         REF BY
           =====                   =======         ======
           __Constant_3fc0         000034EE 
    -------------------------------------------------------------------------
CODE_C
  Relative segment, address: CODE 000034F2 - 000034F5 (0x4 bytes), align: 0
  Segment part 14.            Intra module refs:   ReadSQLogItem
           ENTRY                   ADDRESS         REF BY
           =====                   =======         ======
           __Constant_4200         000034F2 
    -------------------------------------------------------------------------
CODE_C
  Relative segment, address: CODE 000034F6 - 000034F9 (0x4 bytes), align: 0
  Segment part 16.            Intra module refs:   ReadSQLogItem
                                                   SeekDataID
           ENTRY                   ADDRESS         REF BY
           =====                   =======         ======
           __Constant_740          000034F6 
    -------------------------------------------------------------------------
BANK_RELAYS
  Relative segment, address: CODE 000013FC - 00001401 (0x6 bytes), align: 0
  Segment part 18.
           ENTRY                   ADDRESS         REF BY
           =====                   =======         ======
           RSDJLlog::?relay        000013FC        RwSqSd (DLT_645_2007)
    -------------------------------------------------------------------------
BANK_RELAYS
  Relative segment, address: CODE 00001402 - 00001407 (0x6 bytes), align: 0
  Segment part 20.
           ENTRY                   ADDRESS         REF BY
           =====                   =======         ======
           ProJL::?relay           00001402        ComRWE2Para (DLT_645_2007)
    -------------------------------------------------------------------------
BANK_RELAYS
  Relative segment, address: CODE 00001408 - 0000140D (0x6 bytes), align: 0
  Segment part 22.
           ENTRY                   ADDRESS         REF BY
           =====                   =======         ======
           ReadRSDLogItem::?relay
                                   00001408        FunList (ComCoretab)
    -------------------------------------------------------------------------
BANK_RELAYS
  Relative segment, address: CODE 0000140E - 00001413 (0x6 bytes), align: 0
  Segment part 24.
           ENTRY                   ADDRESS         REF BY
           =====                   =======         ======
           ReadSQLogItem::?relay   0000140E        FunList (ComCoretab)
    -------------------------------------------------------------------------
BANK_RELAYS
  Relative segment, address: CODE 00001414 - 00001419 (0x6 bytes), align: 0
  Segment part 26.
           ENTRY                   ADDRESS         REF BY
           =====                   =======         ======
           SeekDataID::?relay      00001414        RwSqSd (DLT_645_2007)

    *************************************************************************

  FILE NAME : F:\SVN\06solution\Projects\农网\D105\Sw\Debug\Obj\Report.r51
  PROGRAM MODULE, NAME : Report

  SEGMENTS IN THE MODULE
  ======================
XDATA_Z
  Relative segment, address: XDATA 000009A1 - 000009A8 (0x8 bytes), align: 0
  Segment part 6.             Intra module refs:   Rpt_Recover
                                                   Rpt_StaSet
           ENTRY                   ADDRESS         REF BY
           =====                   =======         ======
           gs_ReportWord           000009A1        RecoverCfg (FunCfg)
    -------------------------------------------------------------------------
XDATA_Z
  Relative segment, address: XDATA 000009A9 - 000009B4 (0xc bytes), align: 0
  Segment part 7.             Intra module refs:   Rpt_Clr
                                                   Rpt_Crc
                                                   Rpt_Recover
                                                   Rpt_StaBitClr
                                                   Rpt_StaSet
                                                   Rpt_UpdateSta
           ENTRY                   ADDRESS         REF BY
           =====                   =======         ======
           gs_ReportState          000009A9        Encode645Frame (Prcfrm)
                                                   EventOutProc (McuDrive)
                                                   ReadCurveJl (DLT_645_2007)
                                                   ReadRSDLogItem (PrologFee)
                                                   ReadSQLogItem (PrologFee)
                                                   Report (DLT_645_2007)
    -------------------------------------------------------------------------
XDATA_Z
  Relative segment, address: XDATA 000009B5 - 000009C0 (0xc bytes), align: 0
  Segment part 8.             Intra module refs:   Rpt_Clr
                                                   Rpt_Crc
                                                   Rpt_Recover
                                                   Rpt_StaBitClr
                                                   Rpt_StaSet
                                                   Rpt_UpdateClr
           ENTRY                   ADDRESS         REF BY
           =====                   =======         ======
           gs_RptStaB              000009B5        ReadCurveJl (DLT_645_2007)
                                                   Report (DLT_645_2007)
    -------------------------------------------------------------------------
XDATA_Z
  Relative segment, address: XDATA 000009C1 - 000009CC (0xc bytes), align: 0
  Segment part 9.             Intra module refs:   Rpt_Clr
                                                   Rpt_Crc
                                                   Rpt_Recover
                                                   Rpt_StaBitClr
                                                   Rpt_StaFlgClr
                                                   Rpt_StaSet
           ENTRY                   ADDRESS         REF BY
           =====                   =======         ======
           gs_ReportStateFlg       000009C1 
    -------------------------------------------------------------------------
XDATA_Z
  Relative segment, address: XDATA 000009CD - 000009E4 (0x18 bytes), align: 0
  Segment part 10.            Intra module refs:   Rpt_Clr
                                                   Rpt_Crc
                                                   Rpt_Recover
                                                   Rpt_StaBitClr
                                                   Rpt_StaSet
                                                   Rpt_UpdateSta
           ENTRY                   ADDRESS         REF BY
           =====                   =======         ======
           gs_RptCnt               000009CD        ReadCurveJl (DLT_645_2007)
                                                   Report (DLT_645_2007)
    -------------------------------------------------------------------------
XDATA_Z
  Relative segment, address: XDATA 000009E5 - 000009E5 (0x1 bytes), align: 0
  Segment part 11.            Intra module refs:   Rpt_Clr
                                                   Rpt_Crc
                                                   Rpt_Recover
                                                   Rpt_UpdateClr
                                                   Rpt_UpdateSta
           ENTRY                   ADDRESS         REF BY
           =====                   =======         ======
           guc_RptClrCnt           000009E5        ReadCurveJl (DLT_645_2007)
                                                   Report (DLT_645_2007)
    -------------------------------------------------------------------------
XDATA_Z
  Relative segment, address: XDATA 000009E6 - 000009E7 (0x2 bytes), align: 0
  Segment part 12.            Intra module refs:   Rpt_Crc
                                                   Rpt_Recover
           ENTRY                   ADDRESS         REF BY
           =====                   =======         ======
           gui_ReportCRC           000009E6 
    -------------------------------------------------------------------------
<BANKED_CODE> 3 (was BANKED_CODE)
  Relative segment, address: CODE 0001CCCB - 0001CDAF (0xe5 bytes), align: 0
  Segment part 15.            Intra module refs:   Rpt_Clr::?relay
           ENTRY                   ADDRESS         REF BY
           =====                   =======         ======
           Rpt_Clr                 0001CCCB 
               calls direct, is not allocated
               not allocated function
    -------------------------------------------------------------------------
<BANKED_CODE> 3 (was BANKED_CODE)
  Relative segment, address: CODE 0001CDB0 - 0001CDCD (0x1e bytes), align: 0
  Segment part 17.            Intra module refs:   Rpt_UpdateClr::?relay
           ENTRY                   ADDRESS         REF BY
           =====                   =======         ======
           Rpt_UpdateClr           0001CDB0 
               calls direct, is not allocated
               not allocated function
    -------------------------------------------------------------------------
CODE_C
  Relative segment, address: CODE 000034FA - 00003511 (0x18 bytes), align: 0
  Segment part 13.            Intra module refs:   Rpt_StaBitClr
                                                   Rpt_StaSet
                                                   Rpt_UpdateSta
           ENTRY                   ADDRESS         REF BY
           =====                   =======         ======
           RptBIT                  000034FA 
    -------------------------------------------------------------------------
<BANKED_CODE> 3 (was BANKED_CODE)
  Relative segment, address: CODE 0001CDCE - 0001CECF (0x102 bytes), align: 0
  Segment part 19.            Intra module refs:   Rpt_StaSet::?relay
           ENTRY                   ADDRESS         REF BY
           =====                   =======         ======
           Rpt_StaSet              0001CDCE 
               XSTACK = 0000000C ( 00000010 )
    -------------------------------------------------------------------------
<BANKED_CODE> 3 (was BANKED_CODE)
  Relative segment, address: CODE 0001CED0 - 0001CF8C (0xbd bytes), align: 0
  Segment part 21.            Intra module refs:   Rpt_StaBitClr::?relay
           ENTRY                   ADDRESS         REF BY
           =====                   =======         ======
           Rpt_StaBitClr           0001CED0 
               is not allocated
               not allocated function
    -------------------------------------------------------------------------
<BANKED_CODE> 3 (was BANKED_CODE)
  Relative segment, address: CODE 0001CF8D - 0001D001 (0x75 bytes), align: 0
  Segment part 23.            Intra module refs:   Rpt_StaFlgClr::?relay
           ENTRY                   ADDRESS         REF BY
           =====                   =======         ======
           Rpt_StaFlgClr           0001CF8D 
               XSTACK = 00000000 ( 0000000C )
    -------------------------------------------------------------------------
<BANKED_CODE> 3 (was BANKED_CODE)
  Relative segment, address: CODE 0001D002 - 0001D0BF (0xbe bytes), align: 0
  Segment part 25.            Intra module refs:   Rpt_UpdateSta::?relay
           ENTRY                   ADDRESS         REF BY
           =====                   =======         ======
           Rpt_UpdateSta           0001D002 
               XSTACK = 00000000 ( 0000000C )
               ISTACK = 00000000 ( 00000002 )
    -------------------------------------------------------------------------
<BANKED_CODE> 3 (was BANKED_CODE)
  Relative segment, address: CODE 0001D0C0 - 0001D1B5 (0xf6 bytes), align: 0
  Segment part 27.            Intra module refs:   Rpt_Recover::?relay
           ENTRY                   ADDRESS         REF BY
           =====                   =======         ======
           Rpt_Recover             0001D0C0 
               calls direct, is not allocated
               not allocated function
    -------------------------------------------------------------------------
<BANKED_CODE> 3 (was BANKED_CODE)
  Relative segment, address: CODE 0001D1B6 - 0001D236 (0x81 bytes), align: 0
  Segment part 29.            Intra module refs:   Rpt_Crc::?relay
           ENTRY                   ADDRESS         REF BY
           =====                   =======         ======
           Rpt_Crc                 0001D1B6 
               calls direct, is not allocated
               not allocated function
    -------------------------------------------------------------------------
BANK_RELAYS
  Relative segment, address: CODE 0000141A - 0000141F (0x6 bytes), align: 0
  Segment part 16.            Intra module refs:   Rpt_Recover
           ENTRY                   ADDRESS         REF BY
           =====                   =======         ======
           Rpt_Clr::?relay         0000141A        Data_ClearEvent (Event)
                                                   Data_ClearMeter (Dataproc)
    -------------------------------------------------------------------------
BANK_RELAYS
  Relative segment, address: CODE 00001420 - 00001425 (0x6 bytes), align: 0
  Segment part 18.
           ENTRY                   ADDRESS         REF BY
           =====                   =======         ======
           Rpt_UpdateClr::?relay   00001420        Data_MinProc (Dataproc)
    -------------------------------------------------------------------------
BANK_RELAYS
  Relative segment, address: CODE 00001426 - 0000142B (0x6 bytes), align: 0
  Segment part 20.            Intra module refs:   Rpt_Recover
           ENTRY                   ADDRESS         REF BY
           =====                   =======         ======
           Rpt_StaSet::?relay      00001426        BE_ReadP (BEBottom)
                                                   BE_WriteP (BEBottom)
                                                   DataProcEvCountAdd (Dataproc)
                                                   EnyB_Check_PowRev (EnergyBottom)
                                                   GetBat (McuDrive)
                                                   SleepTimeProc (Timeproc)
    -------------------------------------------------------------------------
BANK_RELAYS
  Relative segment, address: CODE 0000142C - 00001431 (0x6 bytes), align: 0
  Segment part 22.
           ENTRY                   ADDRESS         REF BY
           =====                   =======         ======
           Rpt_StaBitClr::?relay   0000142C        Data_ClearEvent (Event)
    -------------------------------------------------------------------------
BANK_RELAYS
  Relative segment, address: CODE 00001432 - 00001437 (0x6 bytes), align: 0
  Segment part 24.
           ENTRY                   ADDRESS         REF BY
           =====                   =======         ======
           Rpt_StaFlgClr::?relay   00001432        BE_ReadP (BEBottom)
                                                   BE_WriteP (BEBottom)
                                                   DataProcEvCountAdd (Dataproc)
                                                   EnyB_Check_PowRev (EnergyBottom)
                                                   GetBat (McuDrive)
                                                   SleepTimeProc (Timeproc)
    -------------------------------------------------------------------------
BANK_RELAYS
  Relative segment, address: CODE 00001438 - 0000143D (0x6 bytes), align: 0
  Segment part 26.            Intra module refs:   Rpt_UpdateClr
           ENTRY                   ADDRESS         REF BY
           =====                   =======         ======
           Rpt_UpdateSta::?relay   00001438        Report (DLT_645_2007)
    -------------------------------------------------------------------------
BANK_RELAYS
  Relative segment, address: CODE 0000143E - 00001443 (0x6 bytes), align: 0
  Segment part 28.
           ENTRY                   ADDRESS         REF BY
           =====                   =======         ======
           Rpt_Recover::?relay     0000143E        main (main)
    -------------------------------------------------------------------------
BANK_RELAYS
  Relative segment, address: CODE 00001444 - 00001449 (0x6 bytes), align: 0
  Segment part 30.
           ENTRY                   ADDRESS         REF BY
           =====                   =======         ======
           Rpt_Crc::?relay         00001444        Pow_DnProc (Powmanger)

    *************************************************************************

  FILE NAME : F:\SVN\06solution\Projects\农网\D105\Sw\Debug\Obj\RtcCpt.r51
  PROGRAM MODULE, NAME : RtcCpt

  SEGMENTS IN THE MODULE
  ======================
SFR_AN
  Relative segment, address: DATA 00000094 - 00000094 (0x1 bytes), align: 0
  Segment part 3. ROOT.       Intra module refs:   SetRTCNormal
           ENTRY                   ADDRESS         REF BY
           =====                   =======         ======
           RTCCH                   00000094 
    -------------------------------------------------------------------------
SFR_AN
  Relative segment, address: DATA 00000095 - 00000095 (0x1 bytes), align: 0
  Segment part 4. ROOT.       Intra module refs:   SetRTCNormal
           ENTRY                   ADDRESS         REF BY
           =====                   =======         ======
           RTCCL                   00000095 
    -------------------------------------------------------------------------
SFR_AN
  Relative segment, address: DATA 000000DB - 000000DB (0x1 bytes), align: 0
  Segment part 5. ROOT.       Intra module refs:   SetRTCNormal
           ENTRY                   ADDRESS         REF BY
           =====                   =======         ======
           DIVTHH                  000000DB 
    -------------------------------------------------------------------------
SFR_AN
  Relative segment, address: DATA 000000DC - 000000DC (0x1 bytes), align: 0
  Segment part 6. ROOT.       Intra module refs:   SetRTCNormal
           ENTRY                   ADDRESS         REF BY
           =====                   =======         ======
           DIVTHM                  000000DC 
    -------------------------------------------------------------------------
SFR_AN
  Relative segment, address: DATA 000000DD - 000000DD (0x1 bytes), align: 0
  Segment part 7. ROOT.       Intra module refs:   SetRTCNormal
           ENTRY                   ADDRESS         REF BY
           =====                   =======         ======
           DIVTHL                  000000DD 
    -------------------------------------------------------------------------
XDATA_Z
  Relative segment, address: XDATA 000009E8 - 000009EB (0x4 bytes), align: 0
  Segment part 14.
           ENTRY                   ADDRESS         REF BY
           =====                   =======         ======
           gul_CellVoltage         000009E8        Data_FactoryClr (Dataproc)
                                                   FactoryWR (DLT_645_2007)
                                                   GetBat (McuDrive)
                                                   ReadVar (DLT_645_2007)
    -------------------------------------------------------------------------
XDATA_Z
  Relative segment, address: XDATA 000009EC - 000009EC (0x1 bytes), align: 0
  Segment part 15.
           ENTRY                   ADDRESS         REF BY
           =====                   =======         ======
           guc_CheckBatFlg         000009EC        EnyB_SetMeterRule (EnergyBottom)
                                                   GetBat (McuDrive)
                                                   Init_Var (main)
                                                   Mcu_BatCal (McuDrive)
    -------------------------------------------------------------------------
XDATA_Z
  Relative segment, address: XDATA 000009ED - 000009EE (0x2 bytes), align: 0
  Segment part 16.            Intra module refs:   CalRTC
           ENTRY                   ADDRESS         REF BY
           =====                   =======         ======
           gi_Temprature           000009ED        FactoryRD (DLT_645_2007)
                                                   ReadVar (DLT_645_2007)
    -------------------------------------------------------------------------
XDATA_Z
  Relative segment, address: XDATA 000009EF - 000009EF (0x1 bytes), align: 0
  Segment part 17.
           ENTRY                   ADDRESS         REF BY
           =====                   =======         ======
           guc_FrsCalRTCDelay      000009EF        EnyB_Open_Cf (EnergyBottom)
                                                   Init_Var (main)
                                                   MChannelCal (McuDrive)
    -------------------------------------------------------------------------
XDATA_Z
  Relative segment, address: XDATA 000009F0 - 000009F1 (0x2 bytes), align: 0
  Segment part 18.            Intra module refs:   CalRTC
           ENTRY                   ADDRESS         REF BY
           =====                   =======         ======
           gui_Kpara               000009F0 
    -------------------------------------------------------------------------
<BANKED_CODE> 3 (was BANKED_CODE)
  Relative segment, address: CODE 0001C599 - 0001C6C6 (0x12e bytes), align: 0
  Segment part 35.            Intra module refs:   RtcParaFsToE2::?relay
           ENTRY                   ADDRESS         REF BY
           =====                   =======         ======
           RtcParaFsToE2           0001C599 
               calls direct, is not allocated
               not allocated function
    -------------------------------------------------------------------------
<BANKED_CODE> 3 (was BANKED_CODE)
  Relative segment, address: CODE 0001C6C7 - 0001C72D (0x67 bytes), align: 0
  Segment part 39.            Intra module refs:   RecoverRtcPara::?relay
           ENTRY                   ADDRESS         REF BY
           =====                   =======         ======
           RecoverRtcPara          0001C6C7 
               calls direct, is not allocated
               not allocated function
    -------------------------------------------------------------------------
<BANKED_CODE> 3 (was BANKED_CODE)
  Relative segment, address: CODE 0001C72E - 0001C86A (0x13d bytes), align: 0
  Segment part 41.            Intra module refs:   SetRTCNormal::?relay
           ENTRY                   ADDRESS         REF BY
           =====                   =======         ======
           SetRTCNormal            0001C72E 
               calls direct, is not allocated
               not allocated function
    -------------------------------------------------------------------------
<BANKED_CODE> 3 (was BANKED_CODE)
  Relative segment, address: CODE 0001C86B - 0001CCCA (0x460 bytes), align: 0
  Segment part 43.            Intra module refs:   CalRTC::?relay
           ENTRY                   ADDRESS         REF BY
           =====                   =======         ======
           CalRTC                  0001C86B 
               calls direct, is not allocated
               not allocated function
    -------------------------------------------------------------------------
CODE_C
  Relative segment, address: CODE 00003512 - 00003515 (0x4 bytes), align: 0
  Segment part 20.            Intra module refs:   SetRTCNormal
           ENTRY                   ADDRESS         REF BY
           =====                   =======         ======
           __Constant_14           00003512 
    -------------------------------------------------------------------------
CODE_C
  Relative segment, address: CODE 00003516 - 00003519 (0x4 bytes), align: 0
  Segment part 21.            Intra module refs:   SetRTCNormal
           ENTRY                   ADDRESS         REF BY
           =====                   =======         ======
           __Constant_1e           00003516 
    -------------------------------------------------------------------------
CODE_C
  Relative segment, address: CODE 0000351A - 0000351D (0x4 bytes), align: 0
  Segment part 22.            Intra module refs:   SetRTCNormal
           ENTRY                   ADDRESS         REF BY
           =====                   =======         ======
           __Constant_63ffff       0000351A 
    -------------------------------------------------------------------------
CODE_C
  Relative segment, address: CODE 0000351E - 00003521 (0x4 bytes), align: 0
  Segment part 24.            Intra module refs:   CalRTC
           ENTRY                   ADDRESS         REF BY
           =====                   =======         ======
           __Constant_42b40001     0000351E 
    -------------------------------------------------------------------------
CODE_C
  Relative segment, address: CODE 00003522 - 00003525 (0x4 bytes), align: 0
  Segment part 25.            Intra module refs:   CalRTC
           ENTRY                   ADDRESS         REF BY
           =====                   =======         ======
           __Constant_c22c0000     00003522 
    -------------------------------------------------------------------------
CODE_C
  Relative segment, address: CODE 00003526 - 00003529 (0x4 bytes), align: 0
  Segment part 26.            Intra module refs:   CalRTC
           ENTRY                   ADDRESS         REF BY
           =====                   =======         ======
           __Constant_41200000     00003526 
    -------------------------------------------------------------------------
CODE_C
  Relative segment, address: CODE 0000352A - 0000352D (0x4 bytes), align: 0
  Segment part 27.            Intra module refs:   CalRTC
           ENTRY                   ADDRESS         REF BY
           =====                   =======         ======
           __Constant_106          0000352A 
    -------------------------------------------------------------------------
CODE_C
  Relative segment, address: CODE 0000352E - 00003531 (0x4 bytes), align: 0
  Segment part 28.            Intra module refs:   CalRTC
           ENTRY                   ADDRESS         REF BY
           =====                   =======         ======
           __Constant_42480000     0000352E 
    -------------------------------------------------------------------------
CODE_C
  Relative segment, address: CODE 00003532 - 00003535 (0x4 bytes), align: 0
  Segment part 29.            Intra module refs:   CalRTC
           ENTRY                   ADDRESS         REF BY
           =====                   =======         ======
           __Constant_42200000     00003532 
    -------------------------------------------------------------------------
CODE_C
  Relative segment, address: CODE 00003536 - 00003539 (0x4 bytes), align: 0
  Segment part 31.            Intra module refs:   CalRTC
           ENTRY                   ADDRESS         REF BY
           =====                   =======         ======
           __Constant_c1a00000     00003536 
    -------------------------------------------------------------------------
CODE_C
  Relative segment, address: CODE 0000353A - 0000353D (0x4 bytes), align: 0
  Segment part 32.            Intra module refs:   CalRTC
           ENTRY                   ADDRESS         REF BY
           =====                   =======         ======
           __Constant_105          0000353A 
    -------------------------------------------------------------------------
CODE_C
  Relative segment, address: CODE 0000353E - 00003541 (0x4 bytes), align: 0
  Segment part 34.            Intra module refs:   CalRTC
           ENTRY                   ADDRESS         REF BY
           =====                   =======         ======
           __Constant_49742400     0000353E 
    -------------------------------------------------------------------------
BANK_RELAYS
  Relative segment, address: CODE 0000144A - 0000144F (0x6 bytes), align: 0
  Segment part 36.            Intra module refs:   RecoverRtcPara
           ENTRY                   ADDRESS         REF BY
           =====                   =======         ======
           RtcParaFsToE2::?relay   0000144A 
    -------------------------------------------------------------------------
BANK_RELAYS
  Relative segment, address: CODE 00001450 - 00001455 (0x6 bytes), align: 0
  Segment part 40.
           ENTRY                   ADDRESS         REF BY
           =====                   =======         ======
           RecoverRtcPara::?relay
                                   00001450        RecoverPara (Dataproc)
    -------------------------------------------------------------------------
BANK_RELAYS
  Relative segment, address: CODE 00001456 - 0000145B (0x6 bytes), align: 0
  Segment part 42.            Intra module refs:   CalRTC
           ENTRY                   ADDRESS         REF BY
           =====                   =======         ======
           SetRTCNormal::?relay    00001456 
    -------------------------------------------------------------------------
BANK_RELAYS
  Relative segment, address: CODE 0000145C - 00001461 (0x6 bytes), align: 0
  Segment part 44.
           ENTRY                   ADDRESS         REF BY
           =====                   =======         ======
           CalRTC::?relay          0000145C        EnyB_Open_Cf (EnergyBottom)
                                                   MChannelCal (McuDrive)

    *************************************************************************

  FILE NAME : F:\SVN\06solution\Projects\农网\D105\Sw\Debug\Obj\System.r51
  PROGRAM MODULE, NAME : System

  SEGMENTS IN THE MODULE
  ======================
SFR_AN
  Relative segment, address: DATA 000000C0 - 000000C0 (0x1 bytes), align: 0
  Segment part 7. ROOT.       Intra module refs:   Init_Uart1 (Uart1)
                                                   UATR1Interrupt
                                                   Uart1_Receive (Uart1)
                                                   Uart1_Transmit (Uart1)
           ENTRY                   ADDRESS         REF BY
           =====                   =======         ======
           SCON1                   000000C0 
    -------------------------------------------------------------------------
XDATA_AN
  Relative segment, address: XDATA 00002848 - 00002848 (0x1 bytes), align: 0
  Segment part 11. ROOT.      Intra module refs:   UATRAndRTCInterrupt
           ENTRY                   ADDRESS         REF BY
           =====                   =======         ======
           ExInt3IFG               00002848 
    -------------------------------------------------------------------------
XDATA_AN
  Relative segment, address: XDATA 00002850 - 00002850 (0x1 bytes), align: 0
  Segment part 13. ROOT.      Intra module refs:   PLLAndExINT3
           ENTRY                   ADDRESS         REF BY
           =====                   =======         ======
           ExInt4IFG               00002850 
    -------------------------------------------------------------------------
XDATA_AN
  Relative segment, address: XDATA 00002826 - 00002826 (0x1 bytes), align: 0
  Segment part 14. ROOT.      Intra module refs:   Init_Uart2 (Uart2)
                                                   UATRAndCFInterrupt
                                                   Uart2_Receive (Uart2)
                                                   Uart2_Transmit (Uart2)
           ENTRY                   ADDRESS         REF BY
           =====                   =======         ======
           SCON2                   00002826 
    -------------------------------------------------------------------------
XDATA_AN
  Relative segment, address: XDATA 0000282E - 0000282E (0x1 bytes), align: 0
  Segment part 15. ROOT.      Intra module refs:   UATRAndRTCInterrupt
           ENTRY                   ADDRESS         REF BY
           =====                   =======         ======
           SCON3                   0000282E 
    -------------------------------------------------------------------------
XDATA_AN
  Relative segment, address: XDATA 00002836 - 00002836 (0x1 bytes), align: 0
  Segment part 16. ROOT.      Intra module refs:   Init_Uart4 (Uart4)
                                                   UATRAndCFInterrupt
                                                   Uart4_Receive (Uart4)
                                                   Uart4_Transmit (Uart4)
           ENTRY                   ADDRESS         REF BY
           =====                   =======         ======
           SCON4                   00002836 
    -------------------------------------------------------------------------
XDATA_AN
  Relative segment, address: XDATA 00002838 - 00002838 (0x1 bytes), align: 0
  Segment part 17. ROOT.      Intra module refs:   UATRAndRTCInterrupt
           ENTRY                   ADDRESS         REF BY
           =====                   =======         ======
           TCON5                   00002838 
    -------------------------------------------------------------------------
XDATA_AN
  Relative segment, address: XDATA 0000283E - 0000283E (0x1 bytes), align: 0
  Segment part 18. ROOT.      Intra module refs:   UATRAndRTCInterrupt
           ENTRY                   ADDRESS         REF BY
           =====                   =======         ======
           SCON5                   0000283E 
    -------------------------------------------------------------------------
XDATA_AN
  Relative segment, address: XDATA 00002A04 - 00002A04 (0x1 bytes), align: 0
  Segment part 19. ROOT.      Intra module refs:   PLLAndExINT3
           ENTRY                   ADDRESS         REF BY
           =====                   =======         ======
           INFOA                   00002A04 
    -------------------------------------------------------------------------
NEAR_CODE
  Relative segment, address: CODE 0000362C - 00003633 (0x8 bytes), align: 0
  Segment part 36.            Intra module refs:   EXINT0::??INTVEC 3
           ENTRY                   ADDRESS         REF BY
           =====                   =======         ======
           EXINT0                  0000362C 
               interrupt function
               ISTACK = 00000000 ( 00000001 )
    -------------------------------------------------------------------------
NEAR_CODE
  Relative segment, address: CODE 00003634 - 00003654 (0x21 bytes), align: 0
  Segment part 37.            Intra module refs:   Timer0Interrupt::??INTVEC 11
           ENTRY                   ADDRESS         REF BY
           =====                   =======         ======
           Timer0Interrupt         00003634 
               interrupt function
               calls direct
               ISTACK = 00000000 ( 00000005 )
    -------------------------------------------------------------------------
NEAR_CODE
  Relative segment, address: CODE 00003655 - 0000365C (0x8 bytes), align: 0
  Segment part 38.            Intra module refs:   EXINT1::??INTVEC 19
           ENTRY                   ADDRESS         REF BY
           =====                   =======         ======
           EXINT1                  00003655 
               interrupt function
               ISTACK = 00000000 ( 00000001 )
    -------------------------------------------------------------------------
NEAR_CODE
  Relative segment, address: CODE 0000365D - 00003664 (0x8 bytes), align: 0
  Segment part 39.            Intra module refs:   Timer1Interrupt::??INTVEC 27
           ENTRY                   ADDRESS         REF BY
           =====                   =======         ======
           Timer1Interrupt         0000365D 
               interrupt function
               ISTACK = 00000000 ( 00000001 )
    -------------------------------------------------------------------------
NEAR_CODE
  Relative segment, address: CODE 00003665 - 000036DD (0x79 bytes), align: 0
  Segment part 40.            Intra module refs:   Timer2Interrupt::??INTVEC 43
           ENTRY                   ADDRESS         REF BY
           =====                   =======         ======
           Timer2Interrupt         00003665 
               interrupt function
               calls direct
               ISTACK = 00000000 ( 00000005 )
    -------------------------------------------------------------------------
NEAR_CODE
  Relative segment, address: CODE 000036DE - 00003707 (0x2a bytes), align: 0
  Segment part 41.            Intra module refs:   UATR1Interrupt::??INTVEC 59
           ENTRY                   ADDRESS         REF BY
           =====                   =======         ======
           UATR1Interrupt          000036DE 
               interrupt function
               calls direct
               ISTACK = 00000000 ( 00000005 )
    -------------------------------------------------------------------------
NEAR_CODE
  Relative segment, address: CODE 00003708 - 000037B8 (0xb1 bytes), align: 0
  Segment part 42.            Intra module refs:   UATRAndCFInterrupt::??INTVEC 67
           ENTRY                   ADDRESS         REF BY
           =====                   =======         ======
           UATRAndCFInterrupt      00003708 
               interrupt function
               calls direct
               ISTACK = 00000000 ( 00000006 )
    -------------------------------------------------------------------------
NEAR_CODE
  Relative segment, address: CODE 000037B9 - 00003871 (0xb9 bytes), align: 0
  Segment part 43.            Intra module refs:   UATRAndRTCInterrupt::??INTVEC 75
           ENTRY                   ADDRESS         REF BY
           =====                   =======         ======
           UATRAndRTCInterrupt     000037B9 
               interrupt function
               ISTACK = 00000000 ( 00000005 )
    -------------------------------------------------------------------------
NEAR_CODE
  Relative segment, address: CODE 00003872 - 000038B2 (0x41 bytes), align: 0
  Segment part 44.            Intra module refs:   PLLAndExINT3::??INTVEC 83
           ENTRY                   ADDRESS         REF BY
           =====                   =======         ======
           PLLAndExINT3            00003872 
               interrupt function
               ISTACK = 00000000 ( 00000004 )
    -------------------------------------------------------------------------
NEAR_CODE
  Relative segment, address: CODE 000038B3 - 000038BA (0x8 bytes), align: 0
  Segment part 45.            Intra module refs:   TimerA::??INTVEC 91
           ENTRY                   ADDRESS         REF BY
           =====                   =======         ======
           TimerA                  000038B3 
               interrupt function
               ISTACK = 00000000 ( 00000001 )
    -------------------------------------------------------------------------
NEAR_CODE
  Relative segment, address: CODE 000038BB - 000038C2 (0x8 bytes), align: 0
  Segment part 46.            Intra module refs:   PowerOffInterrupt::??INTVEC 99
           ENTRY                   ADDRESS         REF BY
           =====                   =======         ======
           PowerOffInterrupt       000038BB 
               interrupt function
               ISTACK = 00000000 ( 00000001 )
    -------------------------------------------------------------------------
INTVEC
  Common segment, address: CODE 00000000 - 00000005 (0x6 bytes), align: 0
  Segment part 20. ROOT.
           ENTRY                   ADDRESS         REF BY
           =====                   =======         ======
           EXINT0::??INTVEC 3      00000003 
    -------------------------------------------------------------------------
INTVEC
  Common segment, address: CODE 00000000 - 0000000D (0xe bytes), align: 0
  Segment part 21. ROOT.
           ENTRY                   ADDRESS         REF BY
           =====                   =======         ======
           Timer0Interrupt::??INTVEC 11
                                   0000000B 
    -------------------------------------------------------------------------
INTVEC
  Common segment, address: CODE 00000000 - 00000015 (0x16 bytes), align: 0
  Segment part 22. ROOT.
           ENTRY                   ADDRESS         REF BY
           =====                   =======         ======
           EXINT1::??INTVEC 19     00000013 
    -------------------------------------------------------------------------
INTVEC
  Common segment, address: CODE 00000000 - 0000001D (0x1e bytes), align: 0
  Segment part 23. ROOT.
           ENTRY                   ADDRESS         REF BY
           =====                   =======         ======
           Timer1Interrupt::??INTVEC 27
                                   0000001B 
    -------------------------------------------------------------------------
INTVEC
  Common segment, address: CODE 00000000 - 0000002D (0x2e bytes), align: 0
  Segment part 24. ROOT.
           ENTRY                   ADDRESS         REF BY
           =====                   =======         ======
           Timer2Interrupt::??INTVEC 43
                                   0000002B 
    -------------------------------------------------------------------------
INTVEC
  Common segment, address: CODE 00000000 - 0000003D (0x3e bytes), align: 0
  Segment part 25. ROOT.
           ENTRY                   ADDRESS         REF BY
           =====                   =======         ======
           UATR1Interrupt::??INTVEC 59
                                   0000003B 
    -------------------------------------------------------------------------
INTVEC
  Common segment, address: CODE 00000000 - 00000045 (0x46 bytes), align: 0
  Segment part 26. ROOT.
           ENTRY                   ADDRESS         REF BY
           =====                   =======         ======
           UATRAndCFInterrupt::??INTVEC 67
                                   00000043 
    -------------------------------------------------------------------------
INTVEC
  Common segment, address: CODE 00000000 - 0000004D (0x4e bytes), align: 0
  Segment part 27. ROOT.
           ENTRY                   ADDRESS         REF BY
           =====                   =======         ======
           UATRAndRTCInterrupt::??INTVEC 75
                                   0000004B 
    -------------------------------------------------------------------------
INTVEC
  Common segment, address: CODE 00000000 - 00000055 (0x56 bytes), align: 0
  Segment part 28. ROOT.
           ENTRY                   ADDRESS         REF BY
           =====                   =======         ======
           PLLAndExINT3::??INTVEC 83
                                   00000053 
    -------------------------------------------------------------------------
INTVEC
  Common segment, address: CODE 00000000 - 0000005D (0x5e bytes), align: 0
  Segment part 29. ROOT.
           ENTRY                   ADDRESS         REF BY
           =====                   =======         ======
           TimerA::??INTVEC 91     0000005B 
    -------------------------------------------------------------------------
INTVEC
  Common segment, address: CODE 00000000 - 00000065 (0x66 bytes), align: 0
  Segment part 30. ROOT.
           ENTRY                   ADDRESS         REF BY
           =====                   =======         ======
           PowerOffInterrupt::??INTVEC 99
                                   00000063 

    *************************************************************************

  FILE NAME : F:\SVN\06solution\Projects\农网\D105\Sw\Debug\Obj\Timeproc.r51
  PROGRAM MODULE, NAME : Timeproc

  SEGMENTS IN THE MODULE
  ======================
XDATA_Z
  Relative segment, address: XDATA 000009F2 - 000009FA (0x9 bytes), align: 0
  Segment part 6.             Intra module refs:   CheckTime
                                                   ClockBAK_E2
                                                   ClockBAK_RAM
                                                   GetSysClock
                                                   SetSysClock
                                                   SleepTimeProc
                                                   SoftClockCheck
                                                   TimerProc
           ENTRY                   ADDRESS         REF BY
           =====                   =======         ======
           gs_DateTime             000009F2        BroadcastTime (DLT_645_2007)
                                                   CalPowDwTm (Dataproc)
                                                   ComRWE2Para (DLT_645_2007)
                                                   Com_ClearEventJL (Event)
                                                   Com_ClearMeterJL (Event)
                                                   Com_JSJL (Event)
                                                   CoverCloseLog (Event)
                                                   CoverOpenLog (Event)
                                                   E2ParaCheck (DataProtect)
                                                   EnergyCBRManage (Energy)
                                                   EnyB_Check_OC (EnergyBottom)
                                                   IsValidSQ (Multariff)
                                                   IsZXR (Multariff)
                                                   Ldc_DataProc (LoadCurve)
                                                   Ldc_GetSeqRecord (LoadCurve)
                                                   Ldc_ZoneChk (LoadCurve)
                                                   LoadCurveCheck (LoadCurve)
                                                   MChannelCal (McuDrive)
                                                   MonthLYDL (Energy)
                                                   Pow_DnProc (Powmanger)
                                                   ProJL (PrologFee)
                                                   RSDJLlog (PrologFee)
                                                   RecoverDayDjData (Dataproc)
                                                   RecoverJSRData (Dataproc)
                                                   RwSysTime (DLT_645_2007)
                                                   SaveProgramLog (Event)
                                                   SetExtRTC (McuDrive)
                                                   StructFreezeDate (Event)
                                                   getFee (Multariff)
    -------------------------------------------------------------------------
XDATA_Z
  Relative segment, address: XDATA 000009FB - 00000A03 (0x9 bytes), align: 0
  Segment part 7.             Intra module refs:   ClockBAK_RAM
                                                   SoftClockCheck
                                                   TimerProc
           ENTRY                   ADDRESS         REF BY
           =====                   =======         ======
           gs_LastDateTime         000009FB 
    -------------------------------------------------------------------------
XDATA_Z
  Relative segment, address: XDATA 00000A04 - 00000A0C (0x9 bytes), align: 0
  Segment part 8.             Intra module refs:   CheckTime
                                                   SleepTimeProc
           ENTRY                   ADDRESS         REF BY
           =====                   =======         ======
           gs_ClkTmp               00000A04        GetExtRTC (McuDrive)
    -------------------------------------------------------------------------
XDATA_Z
  Relative segment, address: XDATA 00000A0D - 00000A0D (0x1 bytes), align: 0
  Segment part 9.             Intra module refs:   CheckTime
           ENTRY                   ADDRESS         REF BY
           =====                   =======         ======
           guc_ExtRtcErrCnt        00000A0D 
    -------------------------------------------------------------------------
XDATA_Z
  Relative segment, address: XDATA 00000A0E - 00000A0E (0x1 bytes), align: 0
  Segment part 10.            Intra module refs:   SleepTimeProc
           ENTRY                   ADDRESS         REF BY
           =====                   =======         ======
           guc_ClockErr            00000A0E        RecoverPara (Dataproc)
    -------------------------------------------------------------------------
CODE_C
  Relative segment, address: CODE 00003542 - 0000354F (0xe bytes), align: 0
  Segment part 14.            Intra module refs:   RTCCheck
           ENTRY                   ADDRESS         REF BY
           =====                   =======         ======
           gCs_ClkChkTab           00003542 
    -------------------------------------------------------------------------
CODE_C
  Relative segment, address: CODE 00003550 - 0000355C (0xd bytes), align: 0
  Segment part 15.            Intra module refs:   CalcWeek
           ENTRY                   ADDRESS         REF BY
           =====                   =======         ======
           Tab_Week_2K             00003550 
    -------------------------------------------------------------------------
CODE_C
  Relative segment, address: CODE 0000355D - 0000356F (0x13 bytes), align: 0
  Segment part 16.            Intra module refs:   TimerProc
                                                   ValidTime
           ENTRY                   ADDRESS         REF BY
           =====                   =======         ======
           MonthDays               0000355D        CalDayBack (Dataproc)
                                                   CalRDJCount (Api)
                                                   Ldc_TimeAdd (LoadCurve)
    -------------------------------------------------------------------------
CODE_C
  Relative segment, address: CODE 00003570 - 00003587 (0x18 bytes), align: 0
  Segment part 17.            Intra module refs:   CalcAbsDay
           ENTRY                   ADDRESS         REF BY
           =====                   =======         ======
           gui_MonthBeginDay       00003570        Ldc_TmMinCal (LoadCurve)
    -------------------------------------------------------------------------
<BANKED_CODE> 3 (was BANKED_CODE)
  Relative segment, address: CODE 0001B480 - 0001B5E9 (0x16a bytes), align: 0
  Segment part 24.            Intra module refs:   TimerProc::?relay
           ENTRY                   ADDRESS         REF BY
           =====                   =======         ======
           TimerProc               0001B480 
               calls direct, is not allocated
               not allocated function
    -------------------------------------------------------------------------
<BANKED_CODE> 3 (was BANKED_CODE)
  Relative segment, address: CODE 0001B5EA - 0001B677 (0x8e bytes), align: 0
  Segment part 26.            Intra module refs:   CalcAbsDay::?relay
           ENTRY                   ADDRESS         REF BY
           =====                   =======         ======
           CalcAbsDay              0001B5EA 
               calls direct
               XSTACK = 00000010 ( 0000000C )
    -------------------------------------------------------------------------
<BANKED_CODE> 3 (was BANKED_CODE)
  Relative segment, address: CODE 0001B678 - 0001B6F6 (0x7f bytes), align: 0
  Segment part 28.            Intra module refs:   CalcAbsSecond::?relay
           ENTRY                   ADDRESS         REF BY
           =====                   =======         ======
           CalcAbsSecond           0001B678 
               calls direct
               XSTACK = 00000010 ( 00000010 )
               ISTACK = 00000000 ( 00000004 )
    -------------------------------------------------------------------------
<BANKED_CODE> 3 (was BANKED_CODE)
  Relative segment, address: CODE 0001B6F7 - 0001B73D (0x47 bytes), align: 0
  Segment part 30.            Intra module refs:   CalcAbsTime::?relay
           ENTRY                   ADDRESS         REF BY
           =====                   =======         ======
           CalcAbsTime             0001B6F7 
               calls direct
               XSTACK = 00000010 ( 00000010 )
    -------------------------------------------------------------------------
<BANKED_CODE> 3 (was BANKED_CODE)
  Relative segment, address: CODE 0001B73E - 0001B783 (0x46 bytes), align: 0
  Segment part 32.            Intra module refs:   CalcTimeGap::?relay
           ENTRY                   ADDRESS         REF BY
           =====                   =======         ======
           CalcTimeGap             0001B73E 
               calls direct
               XSTACK = 0000000C ( 00000010 )
    -------------------------------------------------------------------------
<BANKED_CODE> 3 (was BANKED_CODE)
  Relative segment, address: CODE 0001B784 - 0001B7BB (0x38 bytes), align: 0
  Segment part 34.            Intra module refs:   ClockCheck::?relay
           ENTRY                   ADDRESS         REF BY
           =====                   =======         ======
           ClockCheck              0001B784 
               calls direct, is not allocated
               not allocated function
    -------------------------------------------------------------------------
<BANKED_CODE> 3 (was BANKED_CODE)
  Relative segment, address: CODE 0001B7BC - 0001B84C (0x91 bytes), align: 0
  Segment part 36.            Intra module refs:   SoftClockCheck::?relay
           ENTRY                   ADDRESS         REF BY
           =====                   =======         ======
           SoftClockCheck          0001B7BC 
               calls direct, is not allocated
               not allocated function
    -------------------------------------------------------------------------
<BANKED_CODE> 3 (was BANKED_CODE)
  Relative segment, address: CODE 0001B84D - 0001B917 (0xcb bytes), align: 0
  Segment part 38.            Intra module refs:   CheckTime::?relay
           ENTRY                   ADDRESS         REF BY
           =====                   =======         ======
           CheckTime               0001B84D 
               calls direct, is not allocated
               not allocated function
    -------------------------------------------------------------------------
<BANKED_CODE> 3 (was BANKED_CODE)
  Relative segment, address: CODE 0001B918 - 0001B96B (0x54 bytes), align: 0
  Segment part 40.            Intra module refs:   CalcWeek::?relay
           ENTRY                   ADDRESS         REF BY
           =====                   =======         ======
           CalcWeek                0001B918 
               calls direct
               XSTACK = 00000009 ( 0000000C )
    -------------------------------------------------------------------------
<BANKED_CODE> 3 (was BANKED_CODE)
  Relative segment, address: CODE 0001B96C - 0001BA41 (0xd6 bytes), align: 0
  Segment part 42.            Intra module refs:   GetSysClock::?relay
           ENTRY                   ADDRESS         REF BY
           =====                   =======         ======
           GetSysClock             0001B96C 
               ISTACK = 00000000 ( 00000003 )
    -------------------------------------------------------------------------
<BANKED_CODE> 3 (was BANKED_CODE)
  Relative segment, address: CODE 0001BA42 - 0001BB3A (0xf9 bytes), align: 0
  Segment part 44.            Intra module refs:   SetSysClock::?relay
           ENTRY                   ADDRESS         REF BY
           =====                   =======         ======
           SetSysClock             0001BA42 
               calls direct
               XSTACK = 00000000 ( 00000009 )
    -------------------------------------------------------------------------
<BANKED_CODE> 3 (was BANKED_CODE)
  Relative segment, address: CODE 0001BB3B - 0001BB61 (0x27 bytes), align: 0
  Segment part 48.            Intra module refs:   RTCCheck::?relay
           ENTRY                   ADDRESS         REF BY
           =====                   =======         ======
           RTCCheck                0001BB3B 
               calls direct, is not allocated
               not allocated function
    -------------------------------------------------------------------------
<BANKED_CODE> 3 (was BANKED_CODE)
  Relative segment, address: CODE 0001BB62 - 0001BB8A (0x29 bytes), align: 0
  Segment part 50.            Intra module refs:   ClockBAK_RAM::?relay
           ENTRY                   ADDRESS         REF BY
           =====                   =======         ======
           ClockBAK_RAM            0001BB62 
               calls direct
               XSTACK = 0000000C ( 00000000 )
               ISTACK = 00000000 ( 00000002 )
    -------------------------------------------------------------------------
<BANKED_CODE> 3 (was BANKED_CODE)
  Relative segment, address: CODE 0001BB8B - 0001BBDE (0x54 bytes), align: 0
  Segment part 52.            Intra module refs:   ClockBAK_E2::?relay
           ENTRY                   ADDRESS         REF BY
           =====                   =======         ======
           ClockBAK_E2             0001BB8B 
               calls direct
               XSTACK = 0000000C ( 0000000E )
    -------------------------------------------------------------------------
<BANKED_CODE> 3 (was BANKED_CODE)
  Relative segment, address: CODE 0001BBDF - 0001BBF2 (0x14 bytes), align: 0
  Segment part 54.            Intra module refs:   ClockBAK_All::?relay
           ENTRY                   ADDRESS         REF BY
           =====                   =======         ======
           ClockBAK_All            0001BBDF 
               calls direct
               XSTACK = 00000009 ( 00000000 )
               ISTACK = 00000000 ( 00000002 )
    -------------------------------------------------------------------------
<BANKED_CODE> 3 (was BANKED_CODE)
  Relative segment, address: CODE 0001BBF3 - 0001BCDF (0xed bytes), align: 0
  Segment part 58.            Intra module refs:   ValidTime::?relay
           ENTRY                   ADDRESS         REF BY
           =====                   =======         ======
           ValidTime               0001BBF3 
               calls direct
               XSTACK = 00000000 ( 0000000E )
    -------------------------------------------------------------------------
<BANKED_CODE> 3 (was BANKED_CODE)
  Relative segment, address: CODE 0001BCE0 - 0001BD62 (0x83 bytes), align: 0
  Segment part 60.            Intra module refs:   SleepTimeProc::?relay
           ENTRY                   ADDRESS         REF BY
           =====                   =======         ======
           SleepTimeProc           0001BCE0 
               calls direct, is not allocated
               not allocated function
    -------------------------------------------------------------------------
CODE_C
  Relative segment, address: CODE 00003588 - 0000358B (0x4 bytes), align: 0
  Segment part 18.            Intra module refs:   CalcAbsSecond
           ENTRY                   ADDRESS         REF BY
           =====                   =======         ======
           __Constant_e10          00003588 
    -------------------------------------------------------------------------
CODE_C
  Relative segment, address: CODE 0000358C - 0000358F (0x4 bytes), align: 0
  Segment part 19.            Intra module refs:   CalcAbsTime
           ENTRY                   ADDRESS         REF BY
           =====                   =======         ======
           __Constant_15180        0000358C 
    -------------------------------------------------------------------------
CODE_C
  Relative segment, address: CODE 00003590 - 00003593 (0x4 bytes), align: 0
  Segment part 21.            Intra module refs:   ClockBAK_E2
                                                   SleepTimeProc
                                                   SoftClockCheck
           ENTRY                   ADDRESS         REF BY
           =====                   =======         ======
           __Constant_180          00003590 
    -------------------------------------------------------------------------
BANK_RELAYS
  Relative segment, address: CODE 00001462 - 00001467 (0x6 bytes), align: 0
  Segment part 25.
           ENTRY                   ADDRESS         REF BY
           =====                   =======         ======
           TimerProc::?relay       00001462        TimeEventProc (main)
    -------------------------------------------------------------------------
BANK_RELAYS
  Relative segment, address: CODE 00001468 - 0000146D (0x6 bytes), align: 0
  Segment part 27.            Intra module refs:   CalcAbsTime
           ENTRY                   ADDRESS         REF BY
           =====                   =======         ======
           CalcAbsDay::?relay      00001468        Ldc_DataProc (LoadCurve)
    -------------------------------------------------------------------------
BANK_RELAYS
  Relative segment, address: CODE 0000146E - 00001473 (0x6 bytes), align: 0
  Segment part 29.            Intra module refs:   CalcAbsTime
           ENTRY                   ADDRESS         REF BY
           =====                   =======         ======
           CalcAbsSecond::?relay   0000146E 
    -------------------------------------------------------------------------
BANK_RELAYS
  Relative segment, address: CODE 00001474 - 00001479 (0x6 bytes), align: 0
  Segment part 31.            Intra module refs:   CalcTimeGap
           ENTRY                   ADDRESS         REF BY
           =====                   =======         ======
           CalcAbsTime::?relay     00001474 
    -------------------------------------------------------------------------
BANK_RELAYS
  Relative segment, address: CODE 0000147A - 0000147F (0x6 bytes), align: 0
  Segment part 33.            Intra module refs:   CheckTime
           ENTRY                   ADDRESS         REF BY
           =====                   =======         ======
           CalcTimeGap::?relay     0000147A        BroadcastTime (DLT_645_2007)
                                                   CalPowDwTm (Dataproc)
    -------------------------------------------------------------------------
BANK_RELAYS
  Relative segment, address: CODE 00001480 - 00001485 (0x6 bytes), align: 0
  Segment part 35.            Intra module refs:   SoftClockCheck
           ENTRY                   ADDRESS         REF BY
           =====                   =======         ======
           ClockCheck::?relay      00001480 
    -------------------------------------------------------------------------
BANK_RELAYS
  Relative segment, address: CODE 00001486 - 0000148B (0x6 bytes), align: 0
  Segment part 37.            Intra module refs:   CheckTime
           ENTRY                   ADDRESS         REF BY
           =====                   =======         ======
           SoftClockCheck::?relay
                                   00001486 
    -------------------------------------------------------------------------
BANK_RELAYS
  Relative segment, address: CODE 0000148C - 00001491 (0x6 bytes), align: 0
  Segment part 39.            Intra module refs:   TimerProc
           ENTRY                   ADDRESS         REF BY
           =====                   =======         ======
           CheckTime::?relay       0000148C 
    -------------------------------------------------------------------------
BANK_RELAYS
  Relative segment, address: CODE 00001492 - 00001497 (0x6 bytes), align: 0
  Segment part 41.            Intra module refs:   SetSysClock
           ENTRY                   ADDRESS         REF BY
           =====                   =======         ======
           CalcWeek::?relay        00001492 
    -------------------------------------------------------------------------
BANK_RELAYS
  Relative segment, address: CODE 00001498 - 0000149D (0x6 bytes), align: 0
  Segment part 43.
           ENTRY                   ADDRESS         REF BY
           =====                   =======         ======
           GetSysClock::?relay     00001498        IsJR (Multariff)
                                                   IsNumSD (Multariff)
                                                   IsNumSQ (Multariff)
                                                   RwSysTime (DLT_645_2007)
                                                   ShowRefreshTime (Lcdshow)
    -------------------------------------------------------------------------
BANK_RELAYS
  Relative segment, address: CODE 0000149E - 000014A3 (0x6 bytes), align: 0
  Segment part 45.
           ENTRY                   ADDRESS         REF BY
           =====                   =======         ======
           SetSysClock::?relay     0000149E        BroadcastTime (DLT_645_2007)
                                                   RwSysTime (DLT_645_2007)
    -------------------------------------------------------------------------
BANK_RELAYS
  Relative segment, address: CODE 000014A4 - 000014A9 (0x6 bytes), align: 0
  Segment part 49.            Intra module refs:   CheckTime
                                                   ClockCheck
                                                   SleepTimeProc
           ENTRY                   ADDRESS         REF BY
           =====                   =======         ======
           RTCCheck::?relay        000014A4 
    -------------------------------------------------------------------------
BANK_RELAYS
  Relative segment, address: CODE 000014AA - 000014AF (0x6 bytes), align: 0
  Segment part 51.            Intra module refs:   ClockBAK_All
                                                   SleepTimeProc
                                                   TimerProc
           ENTRY                   ADDRESS         REF BY
           =====                   =======         ======
           ClockBAK_RAM::?relay    000014AA 
    -------------------------------------------------------------------------
BANK_RELAYS
  Relative segment, address: CODE 000014B0 - 000014B5 (0x6 bytes), align: 0
  Segment part 53.            Intra module refs:   CheckTime
                                                   ClockBAK_All
           ENTRY                   ADDRESS         REF BY
           =====                   =======         ======
           ClockBAK_E2::?relay     000014B0 
    -------------------------------------------------------------------------
BANK_RELAYS
  Relative segment, address: CODE 000014B6 - 000014BB (0x6 bytes), align: 0
  Segment part 55.            Intra module refs:   SetSysClock
           ENTRY                   ADDRESS         REF BY
           =====                   =======         ======
           ClockBAK_All::?relay    000014B6 
    -------------------------------------------------------------------------
BANK_RELAYS
  Relative segment, address: CODE 000014BC - 000014C1 (0x6 bytes), align: 0
  Segment part 59.
           ENTRY                   ADDRESS         REF BY
           =====                   =======         ======
           ValidTime::?relay       000014BC        BroadcastTime (DLT_645_2007)
                                                   ComCheckFormat (DataProtect)
                                                   RwSysTime (DLT_645_2007)
    -------------------------------------------------------------------------
BANK_RELAYS
  Relative segment, address: CODE 000014C2 - 000014C7 (0x6 bytes), align: 0
  Segment part 61.
           ENTRY                   ADDRESS         REF BY
           =====                   =======         ======
           SleepTimeProc::?relay   000014C2        CoverCloseLog (Event)
                                                   CoverOpenLog (Event)
                                                   Data_ClearMeter (Dataproc)
                                                   main (main)

    *************************************************************************

  FILE NAME : F:\SVN\06solution\Projects\农网\D105\Sw\Debug\Obj\Uart1.r51
  PROGRAM MODULE, NAME : Uart1

  SEGMENTS IN THE MODULE
  ======================
SFR_AN
  Relative segment, address: DATA 000000E0 - 000000E0 (0x1 bytes), align: 0
  Segment part 1. ROOT.       Intra module refs:   Uart1_Receive
                                                   Uart1_Transmit
                                                   Uart2_Receive (Uart2)
                                                   Uart2_Transmit (Uart2)
                                                   Uart4_Receive (Uart4)
                                                   Uart4_Transmit (Uart4)
           ENTRY                   ADDRESS         REF BY
           =====                   =======         ======
           _A_ACC                  000000E0 
           LOCAL                   ADDRESS         
           =====                   =======         
           ACC                     000000E0 
           ACC_bit                 000000E0 
    -------------------------------------------------------------------------
SFR_AN
  Relative segment, address: DATA 000000D0 - 000000D0 (0x1 bytes), align: 0
  Segment part 2. ROOT.       Intra module refs:   Uart1_Receive
                                                   Uart1_Transmit
                                                   Uart2_Receive (Uart2)
                                                   Uart2_Transmit (Uart2)
                                                   Uart4_Receive (Uart4)
                                                   Uart4_Transmit (Uart4)
           ENTRY                   ADDRESS         REF BY
           =====                   =======         ======
           _A_PSW                  000000D0 
           LOCAL                   ADDRESS         
           =====                   =======         
           PSW                     000000D0 
           PSW_bit                 000000D0 
    -------------------------------------------------------------------------
SFR_AN
  Relative segment, address: DATA 000000D8 - 000000D8 (0x1 bytes), align: 0
  Segment part 9. ROOT.       Intra module refs:   Init_Uart1
           ENTRY                   ADDRESS         REF BY
           =====                   =======         ======
           EICON                   000000D8 
    -------------------------------------------------------------------------
SFR_AN
  Relative segment, address: DATA 000000C1 - 000000C1 (0x1 bytes), align: 0
  Segment part 11. ROOT.      Intra module refs:   Uart1_Receive
                                                   Uart1_Transmit
           ENTRY                   ADDRESS         REF BY
           =====                   =======         ======
           SBUF1                   000000C1 
    -------------------------------------------------------------------------
XDATA_Z
  Relative segment, address: XDATA 00000A0F - 00000A0F (0x1 bytes), align: 0
  Segment part 21.            Intra module refs:   Uart1_Dy10ms
                                                   Uart1_Receive
                                                   Uart1_Transmit
           ENTRY                   ADDRESS         REF BY
           =====                   =======         ======
           guc_DyUart1Over         00000A0F 
    -------------------------------------------------------------------------
<BANKED_CODE> 3 (was BANKED_CODE)
  Relative segment, address: CODE 0001E52E - 0001E572 (0x45 bytes), align: 0
  Segment part 22.            Intra module refs:   Init_Uart1::?relay
           ENTRY                   ADDRESS         REF BY
           =====                   =======         ======
           Init_Uart1              0001E52E 
               ISTACK = 00000000 ( 00000002 )
    -------------------------------------------------------------------------
<BANKED_CODE> 3 (was BANKED_CODE)
  Relative segment, address: CODE 0001E573 - 0001E5A1 (0x2f bytes), align: 0
  Segment part 24.            Intra module refs:   Uart1_Dy10ms::?relay
           ENTRY                   ADDRESS         REF BY
           =====                   =======         ======
           Uart1_Dy10ms            0001E573 
               calls direct
               ISTACK = 00000000 ( 00000002 )
    -------------------------------------------------------------------------
<BANKED_CODE> 3 (was BANKED_CODE)
  Relative segment, address: CODE 0001E5A2 - 0001E656 (0xb5 bytes), align: 0
  Segment part 26.            Intra module refs:   Uart1_Receive::?relay
           ENTRY                   ADDRESS         REF BY
           =====                   =======         ======
           Uart1_Receive           0001E5A2 
               XSTACK = 00000000 ( 0000000A )
               ISTACK = 00000000 ( 00000001 )
    -------------------------------------------------------------------------
<BANKED_CODE> 3 (was BANKED_CODE)
  Relative segment, address: CODE 0001E657 - 0001E6BC (0x66 bytes), align: 0
  Segment part 28.            Intra module refs:   Uart1_Transmit::?relay
           ENTRY                   ADDRESS         REF BY
           =====                   =======         ======
           Uart1_Transmit          0001E657 
               calls direct
               XSTACK = 00000000 ( 0000000A )
    -------------------------------------------------------------------------
BANK_RELAYS
  Relative segment, address: CODE 000014C8 - 000014CD (0x6 bytes), align: 0
  Segment part 23.            Intra module refs:   Uart1_Dy10ms
           ENTRY                   ADDRESS         REF BY
           =====                   =======         ======
           Init_Uart1::?relay      000014C8        CPUInit (McuDrive)
    -------------------------------------------------------------------------
BANK_RELAYS
  Relative segment, address: CODE 000014CE - 000014D3 (0x6 bytes), align: 0
  Segment part 25.
           ENTRY                   ADDRESS         REF BY
           =====                   =======         ======
           Uart1_Dy10ms::?relay    000014CE        Timer2Interrupt (System)
    -------------------------------------------------------------------------
BANK_RELAYS
  Relative segment, address: CODE 000014D4 - 000014D9 (0x6 bytes), align: 0
  Segment part 27.
           ENTRY                   ADDRESS         REF BY
           =====                   =======         ======
           Uart1_Receive::?relay   000014D4        UATR1Interrupt (System)
    -------------------------------------------------------------------------
BANK_RELAYS
  Relative segment, address: CODE 000014DA - 000014DF (0x6 bytes), align: 0
  Segment part 29.
           ENTRY                   ADDRESS         REF BY
           =====                   =======         ======
           Uart1_Transmit::?relay
                                   000014DA        ComBom_StartSend (ComBottom)
                                                   UATR1Interrupt (System)

    *************************************************************************

  FILE NAME : F:\SVN\06solution\Projects\农网\D105\Sw\Debug\Obj\Uart2.r51
  PROGRAM MODULE, NAME : Uart2

  SEGMENTS IN THE MODULE
  ======================
XDATA_AN
  Relative segment, address: XDATA 00002821 - 00002821 (0x1 bytes), align: 0
  Segment part 6. ROOT.       Intra module refs:   Init_Uart2
           ENTRY                   ADDRESS         REF BY
           =====                   =======         ======
           TMOD2                   00002821 
    -------------------------------------------------------------------------
XDATA_AN
  Relative segment, address: XDATA 00002823 - 00002823 (0x1 bytes), align: 0
  Segment part 7. ROOT.       Intra module refs:   Init_Uart2
           ENTRY                   ADDRESS         REF BY
           =====                   =======         ======
           TH21                    00002823 
    -------------------------------------------------------------------------
XDATA_AN
  Relative segment, address: XDATA 00002825 - 00002825 (0x1 bytes), align: 0
  Segment part 8. ROOT.       Intra module refs:   Init_Uart2
           ENTRY                   ADDRESS         REF BY
           =====                   =======         ======
           TL21                    00002825 
    -------------------------------------------------------------------------
XDATA_AN
  Relative segment, address: XDATA 00002827 - 00002827 (0x1 bytes), align: 0
  Segment part 10. ROOT.      Intra module refs:   Uart2_Receive
                                                   Uart2_Transmit
           ENTRY                   ADDRESS         REF BY
           =====                   =======         ======
           SBUF2                   00002827 
    -------------------------------------------------------------------------
XDATA_AN
  Relative segment, address: XDATA 00002898 - 00002898 (0x1 bytes), align: 0
  Segment part 11. ROOT.      Intra module refs:   Init_Uart2
           ENTRY                   ADDRESS         REF BY
           =====                   =======         ======
           CARRHH                  00002898 
    -------------------------------------------------------------------------
XDATA_AN
  Relative segment, address: XDATA 00002899 - 00002899 (0x1 bytes), align: 0
  Segment part 12. ROOT.      Intra module refs:   Init_Uart2
           ENTRY                   ADDRESS         REF BY
           =====                   =======         ======
           CARRHL                  00002899 
    -------------------------------------------------------------------------
XDATA_AN
  Relative segment, address: XDATA 0000289A - 0000289A (0x1 bytes), align: 0
  Segment part 13. ROOT.      Intra module refs:   Init_Uart2
           ENTRY                   ADDRESS         REF BY
           =====                   =======         ======
           CARRLH                  0000289A 
    -------------------------------------------------------------------------
XDATA_AN
  Relative segment, address: XDATA 0000289B - 0000289B (0x1 bytes), align: 0
  Segment part 14. ROOT.      Intra module refs:   Init_Uart2
           ENTRY                   ADDRESS         REF BY
           =====                   =======         ======
           CARRLL                  0000289B 
    -------------------------------------------------------------------------
XDATA_AN
  Relative segment, address: XDATA 000028CF - 000028CF (0x1 bytes), align: 0
  Segment part 20. ROOT.      Intra module refs:   Init_Uart2
           ENTRY                   ADDRESS         REF BY
           =====                   =======         ======
           Txd2FS                  000028CF 
    -------------------------------------------------------------------------
XDATA_Z
  Relative segment, address: XDATA 00000A10 - 00000A10 (0x1 bytes), align: 0
  Segment part 28.            Intra module refs:   Uart2_Dy10ms
                                                   Uart2_Receive
                                                   Uart2_Transmit
           ENTRY                   ADDRESS         REF BY
           =====                   =======         ======
           guc_DyUart2Over         00000A10 
    -------------------------------------------------------------------------
<BANKED_CODE> 3 (was BANKED_CODE)
  Relative segment, address: CODE 0001DCEC - 0001DD5D (0x72 bytes), align: 0
  Segment part 31.            Intra module refs:   Init_Uart2::?relay
           ENTRY                   ADDRESS         REF BY
           =====                   =======         ======
           Init_Uart2              0001DCEC 
               ISTACK = 00000000 ( 00000002 )
    -------------------------------------------------------------------------
<BANKED_CODE> 3 (was BANKED_CODE)
  Relative segment, address: CODE 0001DD5E - 0001DD79 (0x1c bytes), align: 0
  Segment part 33.            Intra module refs:   Uart2_Dy10ms::?relay
           ENTRY                   ADDRESS         REF BY
           =====                   =======         ======
           Uart2_Dy10ms            0001DD5E 
               calls direct
               ISTACK = 00000000 ( 00000002 )
    -------------------------------------------------------------------------
<BANKED_CODE> 3 (was BANKED_CODE)
  Relative segment, address: CODE 0001DD7A - 0001DEB0 (0x137 bytes), align: 0
  Segment part 35.            Intra module refs:   Uart2_Receive::?relay
           ENTRY                   ADDRESS         REF BY
           =====                   =======         ======
           Uart2_Receive           0001DD7A 
               calls direct
               XSTACK = 00000000 ( 0000000C )
               ISTACK = 00000000 ( 00000002 )
    -------------------------------------------------------------------------
<BANKED_CODE> 3 (was BANKED_CODE)
  Relative segment, address: CODE 0001DEB1 - 0001DF26 (0x76 bytes), align: 0
  Segment part 37.            Intra module refs:   Uart2_Transmit::?relay
           ENTRY                   ADDRESS         REF BY
           =====                   =======         ======
           Uart2_Transmit          0001DEB1 
               calls direct
               XSTACK = 00000000 ( 0000000A )
    -------------------------------------------------------------------------
BANK_RELAYS
  Relative segment, address: CODE 000014E0 - 000014E5 (0x6 bytes), align: 0
  Segment part 32.            Intra module refs:   Uart2_Dy10ms
           ENTRY                   ADDRESS         REF BY
           =====                   =======         ======
           Init_Uart2::?relay      000014E0        CPUInit (McuDrive)
    -------------------------------------------------------------------------
BANK_RELAYS
  Relative segment, address: CODE 000014E6 - 000014EB (0x6 bytes), align: 0
  Segment part 34.
           ENTRY                   ADDRESS         REF BY
           =====                   =======         ======
           Uart2_Dy10ms::?relay    000014E6        Timer2Interrupt (System)
    -------------------------------------------------------------------------
BANK_RELAYS
  Relative segment, address: CODE 000014EC - 000014F1 (0x6 bytes), align: 0
  Segment part 36.
           ENTRY                   ADDRESS         REF BY
           =====                   =======         ======
           Uart2_Receive::?relay   000014EC        UATRAndCFInterrupt (System)
    -------------------------------------------------------------------------
BANK_RELAYS
  Relative segment, address: CODE 000014F2 - 000014F7 (0x6 bytes), align: 0
  Segment part 38.
           ENTRY                   ADDRESS         REF BY
           =====                   =======         ======
           Uart2_Transmit::?relay
                                   000014F2        UATRAndCFInterrupt (System)

    *************************************************************************

  FILE NAME : F:\SVN\06solution\Projects\农网\D105\Sw\Debug\Obj\Uart4.r51
  PROGRAM MODULE, NAME : Uart4

  SEGMENTS IN THE MODULE
  ======================
XDATA_AN
  Relative segment, address: XDATA 00002831 - 00002831 (0x1 bytes), align: 0
  Segment part 9. ROOT.       Intra module refs:   Init_Uart4
           ENTRY                   ADDRESS         REF BY
           =====                   =======         ======
           TMOD4                   00002831 
    -------------------------------------------------------------------------
XDATA_AN
  Relative segment, address: XDATA 00002833 - 00002833 (0x1 bytes), align: 0
  Segment part 10. ROOT.      Intra module refs:   Init_Uart4
           ENTRY                   ADDRESS         REF BY
           =====                   =======         ======
           TH41                    00002833 
    -------------------------------------------------------------------------
XDATA_AN
  Relative segment, address: XDATA 00002835 - 00002835 (0x1 bytes), align: 0
  Segment part 11. ROOT.      Intra module refs:   Init_Uart4
           ENTRY                   ADDRESS         REF BY
           =====                   =======         ======
           TL41                    00002835 
    -------------------------------------------------------------------------
XDATA_AN
  Relative segment, address: XDATA 00002837 - 00002837 (0x1 bytes), align: 0
  Segment part 13. ROOT.      Intra module refs:   Uart4_Receive
                                                   Uart4_Transmit
           ENTRY                   ADDRESS         REF BY
           =====                   =======         ======
           SBUF4                   00002837 
    -------------------------------------------------------------------------
XDATA_Z
  Relative segment, address: XDATA 00000A11 - 00000A11 (0x1 bytes), align: 0
  Segment part 23.            Intra module refs:   Uart4_Dy10ms
                                                   Uart4_Receive
                                                   Uart4_Transmit
           ENTRY                   ADDRESS         REF BY
           =====                   =======         ======
           guc_DyUart4Over         00000A11 
    -------------------------------------------------------------------------
<BANKED_CODE> 3 (was BANKED_CODE)
  Relative segment, address: CODE 0001E153 - 0001E1CD (0x7b bytes), align: 0
  Segment part 24.            Intra module refs:   Init_Uart4::?relay
           ENTRY                   ADDRESS         REF BY
           =====                   =======         ======
           Init_Uart4              0001E153 
               ISTACK = 00000000 ( 00000002 )
    -------------------------------------------------------------------------
<BANKED_CODE> 3 (was BANKED_CODE)
  Relative segment, address: CODE 0001E1CE - 0001E201 (0x34 bytes), align: 0
  Segment part 26.            Intra module refs:   Uart4_Dy10ms::?relay
           ENTRY                   ADDRESS         REF BY
           =====                   =======         ======
           Uart4_Dy10ms            0001E1CE 
               calls direct
               ISTACK = 00000000 ( 00000002 )
    -------------------------------------------------------------------------
<BANKED_CODE> 3 (was BANKED_CODE)
  Relative segment, address: CODE 0001E202 - 0001E2C8 (0xc7 bytes), align: 0
  Segment part 28.            Intra module refs:   Uart4_Receive::?relay
           ENTRY                   ADDRESS         REF BY
           =====                   =======         ======
           Uart4_Receive           0001E202 
               XSTACK = 00000000 ( 0000000A )
               ISTACK = 00000000 ( 00000001 )
    -------------------------------------------------------------------------
<BANKED_CODE> 3 (was BANKED_CODE)
  Relative segment, address: CODE 0001E2C9 - 0001E358 (0x90 bytes), align: 0
  Segment part 30.            Intra module refs:   Uart4_Transmit::?relay
           ENTRY                   ADDRESS         REF BY
           =====                   =======         ======
           Uart4_Transmit          0001E2C9 
               calls direct
               XSTACK = 00000000 ( 0000000A )
    -------------------------------------------------------------------------
BANK_RELAYS
  Relative segment, address: CODE 000014F8 - 000014FD (0x6 bytes), align: 0
  Segment part 25.            Intra module refs:   Uart4_Dy10ms
           ENTRY                   ADDRESS         REF BY
           =====                   =======         ======
           Init_Uart4::?relay      000014F8        ChangeBodeProc (McuDrive)
    -------------------------------------------------------------------------
BANK_RELAYS
  Relative segment, address: CODE 000014FE - 00001503 (0x6 bytes), align: 0
  Segment part 27.
           ENTRY                   ADDRESS         REF BY
           =====                   =======         ======
           Uart4_Dy10ms::?relay    000014FE        Timer2Interrupt (System)
    -------------------------------------------------------------------------
BANK_RELAYS
  Relative segment, address: CODE 00001504 - 00001509 (0x6 bytes), align: 0
  Segment part 29.
           ENTRY                   ADDRESS         REF BY
           =====                   =======         ======
           Uart4_Receive::?relay   00001504        UATRAndCFInterrupt (System)
    -------------------------------------------------------------------------
BANK_RELAYS
  Relative segment, address: CODE 0000150A - 0000150F (0x6 bytes), align: 0
  Segment part 31.
           ENTRY                   ADDRESS         REF BY
           =====                   =======         ======
           Uart4_Transmit::?relay
                                   0000150A        ComBom_StartSend (ComBottom)
                                                   UATRAndCFInterrupt (System)

    *************************************************************************

  FILE NAME : F:\SVN\06solution\Projects\农网\D105\Sw\Debug\Obj\Version.r51
  PROGRAM MODULE, NAME : Version

  SEGMENTS IN THE MODULE
  ======================
CODE_AC
  Relative segment, address: CODE 00000E00 - 00000E09 (0xa bytes), align: 0
  Segment part 1. ROOT.
           ENTRY                   ADDRESS         REF BY
           =====                   =======         ======
           gCuc_VerSoft            00000E00        ReadSwVersion (DLT_645_2007)
    -------------------------------------------------------------------------
CODE_AC
  Relative segment, address: CODE 00000E0D - 00000E0D (0x1 bytes), align: 0
  Segment part 2. ROOT.
           ENTRY                   ADDRESS         REF BY
           =====                   =======         ======
           gCuc_VerHard            00000E0D 

    *************************************************************************

  FILE NAME : F:\SVN\06solution\Projects\农网\D105\Sw\Debug\Obj\cstartup.r51
  LIBRARY MODULE, NAME : CSTARTUP

  SEGMENTS IN THE MODULE
  ======================
REGISTERS
  Relative segment, address: DATA 00000000, align: 0
  Segment part 0.             Intra module refs:   Segment part 6
           ENTRY                   ADDRESS         REF BY
           =====                   =======         ======
           ?REGISTERS              00000000 
    -------------------------------------------------------------------------
ISTACK
  Relative segment, address: IDATA 000000A0, align: 0
  Segment part 1.             Intra module refs:   Segment part 6
           ENTRY                   ADDRESS         REF BY
           =====                   =======         ======
           ?ISTACK_START           000000A0 
    -------------------------------------------------------------------------
XSTACK
  Relative segment, address: XDATA 00000001, align: 0
  Segment part 3.             Intra module refs:   ?RESET_XSP
           ENTRY                   ADDRESS         REF BY
           =====                   =======         ======
           ?XSTACK_START           00000001 
    -------------------------------------------------------------------------
INTVEC
  Common segment, address: CODE 00000000 - 00000002 (0x3 bytes), align: 0
  Segment part 5. ROOT.       Intra module refs:   Segment part 6
           LOCAL                   ADDRESS         
           =====                   =======         
           ?reset_vector           00000000 
    -------------------------------------------------------------------------
CSTART
  Relative segment, address: CODE 00000066 - 0000006B (0x6 bytes), align: 0
  Segment part 6. ROOT.       Intra module refs:   ?reset_vector
           ENTRY                   ADDRESS         REF BY
           =====                   =======         ======
           __program_start         00000066        Absolute parts (?ABS_ENTRY_MOD)
           ?RESET_SP               00000069 
    -------------------------------------------------------------------------
CSTART
  Relative segment, address: CODE 0000006C - 00000071 (0x6 bytes), align: 0
  Segment part 8.
           ENTRY                   ADDRESS         REF BY
           =====                   =======         ======
           ?RESET_XSP              0000006C        ?XSP (VIRTUAL_REGISTERS)
    -------------------------------------------------------------------------
CSTART
  Relative segment, address: CODE 00000072 - 00000074 (0x3 bytes), align: 0
  Segment part 9.
           ENTRY                   ADDRESS         REF BY
           =====                   =======         ======
           ?RESET_CODE_BANK        00000072        Absolute parts (?BANKED_CODE_SUPPORT)
    -------------------------------------------------------------------------
CSTART
  Relative segment, address: CODE 00000075 - 00000077 (0x3 bytes), align: 0
  Segment part 12.            Intra module refs:   Absolute parts
           LOCAL                   ADDRESS         
           =====                   =======         
           __call_main             00000075 

    -------------------------------------------------------------------------
  LIBRARY MODULE, NAME : REGISTER_BANK2

  SEGMENTS IN THE MODULE
  ======================
__REG_BANK2
  Relative segment, address: DATA 00000010 - 00000017 (0x8 bytes), align: 0
  Segment part 0. ROOT.
           ENTRY                   ADDRESS         REF BY
           =====                   =======         ======
           __REG_BANK_2            00000010        EXINT0 (System)
                                                   EXINT1 (System)
                                                   PLLAndExINT3 (System)
                                                   PowerOffInterrupt (System)
                                                   Timer0Interrupt (System)
                                                   Timer1Interrupt (System)
                                                   Timer2Interrupt (System)
                                                   TimerA (System)
                                                   UATR1Interrupt (System)
                                                   UATRAndCFInterrupt (System)
                                                   UATRAndRTCInterrupt (System)

    *************************************************************************

  FILE NAME : F:\SVN\06solution\Projects\农网\D105\Sw\Debug\Obj\iar_banked_code_support.r51
  LIBRARY MODULE, NAME : ?BANKED_CODE_SUPPORT

  SEGMENTS IN THE MODULE
  ======================
CSTART
  Relative segment, address: CODE 00000078 - 000000D0 (0x59 bytes), align: 0
  Segment part 0.
           ENTRY                   ADDRESS         REF BY
           =====                   =======         ======
           ?BCALL_03               00000078 
           ?BRET_03                00000093        ?BANKED_LEAVE_XDATA (?BANKED_LEAVE_XDATA)
                                                   ADCInit (EnergyBottom)
                                                   BE_I_ACK (BEBottom)
                                                   BE_I_NAK (BEBottom)
                                                   BE_I_ReadB (BEBottom)
                                                   BE_I_Start (BEBottom)
                                                   BE_I_Stop (BEBottom)
                                                   BE_I_WriteB (BEBottom)
                                                   CPUInit (McuDrive)
                                                   ChangeBodeProc (McuDrive)
                                                   Check_Sfr (McuDrive)
                                                   ClockBAK_All (Timeproc)
                                                   ClockBAK_RAM (Timeproc)
                                                   ComBom_10msDy (ComBottom)
                                                   ComBom_Init (ComBottom)
                                                   CoverKeyScan (Key)
                                                   Data_DayProc (Dataproc)
                                                   Data_HourProc (Dataproc)
                                                   Data_MinProc (Dataproc)
                                                   Delay1OSC (McuDrive)
                                                   DelayXms (Api)
                                                   Disp_Clear (LcdBottom)
                                                   Disp_Full (LcdBottom)
                                                   EnyB_AutoCheck (EnergyBottom)
                                                   EnyB_InitCFInt (EnergyBottom)
                                                   EnyB_IntCF (EnergyBottom)
                                                   EnyB_JbPm_Init (EnergyBottom)
                                                   EnyB_PurInit (EnergyBottom)
                                                   EnyB_SetMeterRule (EnergyBottom)
                                                   Eny_JbPm_UpdateRam (Energy)
                                                   EventOutProc (McuDrive)
                                                   FCpyTMem (Api)
                                                   FCpyTMem1 (Api)
                                                   FCpyTMem2 (Api)
                                                   FunToBeDef (DLT_645_2007)
                                                   GetE2Type (DataProtect)
                                                   GetExtRTC (McuDrive)
                                                   GetSysClock (Timeproc)
                                                   IOOFF (McuDrive)
                                                   InitLCD (LcdBottom)
                                                   Init_Port (McuDrive)
                                                   Init_Timer0 (McuDrive)
                                                   Init_Timer2 (McuDrive)
                                                   Init_Uart1 (Uart1)
                                                   Init_Uart2 (Uart2)
                                                   Init_Uart4 (Uart4)
                                                   IntOFF (McuDrive)
                                                   JudgeCurTime (Dataproc)
                                                   KeyInit (Key)
                                                   LCD_Off (LcdBottom)
                                                   LCD_RAMUpdata (LcdBottom)
                                                   Ldc_ReadType (DLT_645_2007)
                                                   MChannelCal (McuDrive)
                                                   MemCpy (Api)
                                                   MemSet (Api)
                                                   PowDownChk (Powmanger)
                                                   RAMInit (McuDrive)
                                                   RSDFrez (Event)
                                                   RecoverCfg (FunCfg)
                                                   RecoverPara (Dataproc)
                                                   Rpt_UpdateClr (Report)
                                                   SQFrez (Event)
                                                   SaveJSTime (Energy)
                                                   SetExtRTC (McuDrive)
                                                   SetPLL13M (McuDrive)
                                                   SetPLL800K (McuDrive)
                                                   ShowInitial (Lcdshow)
                                                   ShowRefreshTime (Lcdshow)
                                                   Sleep (McuDrive)
                                                   Stop_Delay (BEBottom)
                                                   SwichPluseOutType (McuDrive)
                                                   SysEventProc (main)
                                                   TimeEventProc (main)
                                                   UARTOFF (McuDrive)
                                                   Uart1_Dy10ms (Uart1)
                                                   Uart2_Dy10ms (Uart2)
                                                   Uart4_Dy10ms (Uart4)
                                                   Uint16_To_Uint8 (Api)
                                                   Uint8_To_Uint16 (Api)
                                                   Uint8_To_Uint32 (Api)
                                                   WriLastDJTime (Dataproc)
           ?BDISPATCH_03           000000A6        ADCInit::?relay (EnergyBottom)
                                                   APIByteBCD2HEX::?relay (Api)
                                                   APIByteHEX2BCD::?relay (Api)
                                                   ApiBufCmp::?relay (Api)
                                                   ApiRevBufCmp::?relay (Api)
                                                   ApiReverseData::?relay (Api)
                                                   BCD2Hex::?relay (Api)
                                                   BD_ProcFrame::?relay (Prcfrm)
                                                   BE_I_ACK::?relay (BEBottom)
                                                   BE_I_NAK::?relay (BEBottom)
                                                   BE_I_ReadB::?relay (BEBottom)
                                                   BE_I_Start::?relay (BEBottom)
                                                   BE_I_Stop::?relay (BEBottom)
                                                   BE_I_WriteB::?relay (BEBottom)
                                                   BE_ReadB::?relay (BEBottom)
                                                   BE_ReadP::?relay (BEBottom)
                                                   BE_ReadW::?relay (BEBottom)
                                                   BE_WriteP::?relay (BEBottom)
                                                   BgCtrFun::?relay (McuDrive)
                                                   BroadcastTime::?relay (DLT_645_2007)
                                                   CPUInit::?relay (McuDrive)
                                                   CalCBRCount::?relay (Api)
                                                   CalCos::?relay (EnergyBottom)
                                                   CalDayBack::?relay (Dataproc)
                                                   CalPowDwTm::?relay (Dataproc)
                                                   CalRDJCount::?relay (Api)
                                                   CalRMS::?relay (EnergyBottom)
                                                   CalRTC::?relay (RtcCpt)
                                                   CalcAbsDay::?relay (Timeproc)
                                                   CalcAbsSecond::?relay (Timeproc)
                                                   CalcAbsTime::?relay (Timeproc)
                                                   CalcTimeGap::?relay (Timeproc)
                                                   CalcWeek::?relay (Timeproc)
                                                   CalculateAC::?relay (EnergyBottom)
                                                   CalculateSC::?relay (EnergyBottom)
                                                   CfgCheck::?relay (FunCfg)
                                                   ChangeBode::?relay (DLT_645_2007)
                                                   ChangeBodeProc::?relay (McuDrive)
                                                   ChangePassWord::?relay (DLT_645_2007)
                                                   CheckCRCWord::?relay (Dataproc)
                                                   CheckSdFormat::?relay (DataProtect)
                                                   CheckSqFormat::?relay (DataProtect)
                                                   CheckTime::?relay (Timeproc)
                                                   Check_Sfr::?relay (McuDrive)
                                                   ClRCRCWord::?relay (Dataproc)
                                                   ClearEvent::?relay (DLT_645_2007)
                                                   ClearMeter::?relay (DLT_645_2007)
                                                   ClockBAK_All::?relay (Timeproc)
                                                   ClockBAK_E2::?relay (Timeproc)
                                                   ClockBAK_RAM::?relay (Timeproc)
                                                   ClockCheck::?relay (Timeproc)
                                                   CmpCode::?relay (DLT_645_2007)
                                                   CmpTm::?relay (LoadCurve)
                                                   CodeEncrypt::?relay (CmpCode)
                                                   ComApp_Proc::?relay (ComApplication)
                                                   ComBom_10msDy::?relay (ComBottom)
                                                   ComBom_Init::?relay (ComBottom)
                                                   ComBom_InitAll::?relay (ComBottom)
                                                   ComBom_StartSend::?relay (ComBottom)
                                                   ComCheckFormat::?relay (DataProtect)
                                                   ComMeterConst::?relay (DLT_645_2007)
                                                   ComRWE2Para::?relay (DLT_645_2007)
                                                   ComRdEvCnt::?relay (DLT_645_2007)
                                                   ComReadRunCode::?relay (DLT_645_2007)
                                                   Com_ClearEventJL::?relay (Event)
                                                   Com_ClearMeterJL::?relay (Event)
                                                   Com_JSJL::?relay (Event)
                                                   CoverCloseLog::?relay (Event)
                                                   CoverKeyScan::?relay (Key)
                                                   CoverOpenLog::?relay (Event)
                                                   DataCheck::?relay (DataProtect)
                                                   DataProcEvCountAdd::?relay (Dataproc)
                                                   DataProcRead2Slice::?relay (Dataproc)
                                                   DataProcWriteRound2::?relay (Dataproc)
                                                   DataSecurityInit::?relay (DataProtect)
                                                   Data_ClearEvent::?relay (Event)
                                                   Data_ClearMeter::?relay (Dataproc)
                                                   Data_DayProc::?relay (Dataproc)
                                                   Data_FactoryClr::?relay (Dataproc)
                                                   Data_HourProc::?relay (Dataproc)
                                                   Data_MinProc::?relay (Dataproc)
                                                   Decode645Frame::?relay (Prcfrm)
                                                   Delay1OSC::?relay (McuDrive)
                                                   DelayOSC::?relay (McuDrive)
                                                   DelayXms::?relay (Api)
                                                   Disp_Clear::?relay (LcdBottom)
                                                   Disp_Full::?relay (LcdBottom)
                                                   Disp_Numb::?relay (Lcdmiddle)
                                                   Disp_State::?relay (Lcdmiddle)
                                                   Disp_String::?relay (Lcdmiddle)
                                                   Disp_UnitPoint::?relay (Lcdmiddle)
                                                   Do33::?relay (Prcfrm)
                                                   DoSum::?relay (Prcfrm)
                                                   E2ParaCheck::?relay (DataProtect)
                                                   Encode645Frame::?relay (Prcfrm)
                                                   EnergyCBRManage::?relay (Energy)
                                                   EnyB_AutoCheck::?relay (EnergyBottom)
                                                   EnyB_AutoChkAngle::?relay (EnergyBottom)
                                                   EnyB_AutoChkIrms::?relay (EnergyBottom)
                                                   EnyB_AutoChkPW::?relay (EnergyBottom)
                                                   EnyB_AutoChkUrms::?relay (EnergyBottom)
                                                   EnyB_Check_OC::?relay (EnergyBottom)
                                                   EnyB_Check_PowRev::?relay (EnergyBottom)
                                                   EnyB_InitCFInt::?relay (EnergyBottom)
                                                   EnyB_IntCF::?relay (EnergyBottom)
                                                   EnyB_JbPm_Init::?relay (EnergyBottom)
                                                   EnyB_JbPm_Updata::?relay (EnergyBottom)
                                                   EnyB_Open_Cf::?relay (EnergyBottom)
                                                   EnyB_PurInit::?relay (EnergyBottom)
                                                   EnyB_ReadMeterParaACK::?relay (EnergyBottom)
                                                   EnyB_SetMeterCfgACK::?relay (EnergyBottom)
                                                   EnyB_SetMeterRule::?relay (EnergyBottom)
                                                   Eny_CheckEnergy::?relay (Energy)
                                                   Eny_CheckEnergyActiveRAM::?relay (Energy)
                                                   Eny_EnergyActiveSave::?relay (Energy)
                                                   Eny_EnergyClrCur::?relay (Energy)
                                                   Eny_EnergyProc::?relay (Energy)
                                                   Eny_GetEp1::?relay (Energy)
                                                   Eny_JbPm_GetE2::?relay (Energy)
                                                   Eny_JbPm_MeterConst::?relay (Energy)
                                                   Eny_JbPm_UpdateRam::?relay (Energy)
                                                   Eny_PurCheckRAMEny::?relay (Energy)
                                                   Eny_RefCalcType::?relay (Energy)
                                                   Eny_RefVar::?relay (Energy)
                                                   EventOutProc::?relay (McuDrive)
                                                   FCpyTMem1::?relay (Api)
                                                   FCpyTMem2::?relay (Api)
                                                   FCpyTMem::?relay (Api)
                                                   FactoryRD::?relay (DLT_645_2007)
                                                   FactoryWR::?relay (DLT_645_2007)
                                                   Freeze::?relay (DLT_645_2007)
                                                   FunToBeDef::?relay (DLT_645_2007)
                                                   GetBat::?relay (McuDrive)
                                                   GetE2Type::?relay (DataProtect)
                                                   GetExtRTC::?relay (McuDrive)
                                                   GetFactor::?relay (CmpCode)
                                                   GetSysClock::?relay (Timeproc)
                                                   Hex2BCD::?relay (Api)
                                                   HourAndMinToMin::?relay (Api)
                                                   IOOFF::?relay (McuDrive)
                                                   InitLCD::?relay (LcdBottom)
                                                   Init_Port::?relay (McuDrive)
                                                   Init_Timer0::?relay (McuDrive)
                                                   Init_Timer2::?relay (McuDrive)
                                                   Init_Uart1::?relay (Uart1)
                                                   Init_Uart2::?relay (Uart2)
                                                   Init_Uart4::?relay (Uart4)
                                                   Init_Var::?relay (main)
                                                   IntBCD2Hex::?relay (Api)
                                                   IntHex2BCD::?relay (Api)
                                                   IntOFF::?relay (McuDrive)
                                                   IrShowLcd::?relay (DLT_645_2007)
                                                   IsJR::?relay (Multariff)
                                                   IsNumSD::?relay (Multariff)
                                                   IsNumSQ::?relay (Multariff)
                                                   IsValidFrame::?relay (Prcfrm)
                                                   IsValidSQ::?relay (Multariff)
                                                   IsZXR::?relay (Multariff)
                                                   Judge645Addr::?relay (Prcfrm)
                                                   Judge645Frm::?relay (Prcfrm)
                                                   JudgeCurTime::?relay (Dataproc)
                                                   JudgeIsNum::?relay (Api)
                                                   JudgeJSR::?relay (Dataproc)
                                                   JudgePassword::?relay (Prcfrm)
                                                   JudgePowerDnValue::?relay (Powmanger)
                                                   KeyInit::?relay (Key)
                                                   KeyPgm_DyOut::?relay (Key)
                                                   KeyScan::?relay (Key)
                                                   LCD_Off::?relay (LcdBottom)
                                                   LCD_RAMUpdata::?relay (LcdBottom)
                                                   Ldc_BuildFakeFrm::?relay (LoadCurve)
                                                   Ldc_BuildFrame::?relay (LoadCurve)
                                                   Ldc_DataProc::?relay (LoadCurve)
                                                   Ldc_Get1stRecord::?relay (LoadCurve)
                                                   Ldc_GetSeqRecord::?relay (LoadCurve)
                                                   Ldc_ReadType::?relay (DLT_645_2007)
                                                   Ldc_TimeAdd::?relay (LoadCurve)
                                                   Ldc_TimeCal::?relay (LoadCurve)
                                                   Ldc_TimeSub::?relay (LoadCurve)
                                                   Ldc_TmMinCal::?relay (LoadCurve)
                                                   Ldc_ZoneChk::?relay (LoadCurve)
                                                   LoadCurveCheck::?relay (LoadCurve)
                                                   MCUForPowerOff::?relay (McuDrive)
                                                   MChannelCal::?relay (McuDrive)
                                                   Mcu_BatCal::?relay (McuDrive)
                                                   MemCpy::?relay (Api)
                                                   MemInvertCpy::?relay (Api)
                                                   MemSet::?relay (Api)
                                                   MidFindID::?relay (DLT_645_2007)
                                                   MonthLYDL::?relay (Energy)
                                                   MoveBuffer::?relay (Api)
                                                   PMDspInit::?relay (EnergyBottom)
                                                   PowDownChk::?relay (Powmanger)
                                                   PowUpLedCtl::?relay (McuDrive)
                                                   Pow_DnProc::?relay (Powmanger)
                                                   PowerJL::?relay (Event)
                                                   ProJL::?relay (PrologFee)
                                                   PwBs_DyOut::?relay (Prcfrm)
                                                   RAMInit::?relay (McuDrive)
                                                   RSDFrez::?relay (Event)
                                                   RSDJLlog::?relay (PrologFee)
                                                   RTCCheck::?relay (Timeproc)
                                                   RTCWakeUpTm::?relay (McuDrive)
                                                   RWData::?relay (DLT_645_2007)
                                                   ReadAccuEgy::?relay (DLT_645_2007)
                                                   ReadCurEgy::?relay (DLT_645_2007)
                                                   ReadCurveJl::?relay (DLT_645_2007)
                                                   ReadEnyD0Block::?relay (DLT_645_2007)
                                                   ReadFlash::?relay (CmpCode)
                                                   ReadHisEgy::?relay (DLT_645_2007)
                                                   ReadHisJSTime::?relay (DLT_645_2007)
                                                   ReadJL::?relay (DLT_645_2007)
                                                   ReadMeterAddr::?relay (DLT_645_2007)
                                                   ReadRSDLogItem::?relay (PrologFee)
                                                   ReadSQLogItem::?relay (PrologFee)
                                                   ReadSwVersion::?relay (DLT_645_2007)
                                                   ReadVar::?relay (DLT_645_2007)
                                                   ReadZHLYEgy::?relay (DLT_645_2007)
                                                   RecoverCfg::?relay (FunCfg)
                                                   RecoverDayDjData::?relay (Dataproc)
                                                   RecoverEnegyData::?relay (Dataproc)
                                                   RecoverJSRData::?relay (Dataproc)
                                                   RecoverPara::?relay (Dataproc)
                                                   RecoverRtcPara::?relay (RtcCpt)
                                                   RecoverRunPara::?relay (Dataproc)
                                                   RefreshLCDRAM::?relay (LcdBottom)
                                                   Report::?relay (DLT_645_2007)
                                                   Rpt_Clr::?relay (Report)
                                                   Rpt_Crc::?relay (Report)
                                                   Rpt_Recover::?relay (Report)
                                                   Rpt_StaBitClr::?relay (Report)
                                                   Rpt_StaFlgClr::?relay (Report)
                                                   Rpt_StaSet::?relay (Report)
                                                   Rpt_UpdateClr::?relay (Report)
                                                   Rpt_UpdateSta::?relay (Report)
                                                   RtcParaFsToE2::?relay (RtcCpt)
                                                   RwDjData::?relay (DLT_645_2007)
                                                   RwGGJR::?relay (DLT_645_2007)
                                                   RwLcdData::?relay (DLT_645_2007)
                                                   RwRamE2::?relay (DLT_645_2007)
                                                   RwSqSd::?relay (DLT_645_2007)
                                                   RwSysTime::?relay (DLT_645_2007)
                                                   SQFrez::?relay (Event)
                                                   SaveJSTime::?relay (Energy)
                                                   SaveProgramLog::?relay (Event)
                                                   Search1stEqualItem::?relay (LoadCurve)
                                                   SearchDispNO::?relay (Lcdshow)
                                                   SearchEqualItem::?relay (LoadCurve)
                                                   Search_Pos::?relay (Multariff)
                                                   Search_SdNum::?relay (Multariff)
                                                   SecPulsCtrl::?relay (DLT_645_2007)
                                                   SeekDataID::?relay (PrologFee)
                                                   SetCRCWord::?relay (Dataproc)
                                                   SetExtRTC::?relay (McuDrive)
                                                   SetPLL13M::?relay (McuDrive)
                                                   SetPLL800K::?relay (McuDrive)
                                                   SetRTCNormal::?relay (RtcCpt)
                                                   SetSysClock::?relay (Timeproc)
                                                   ShowDataProc::?relay (Lcdshow)
                                                   ShowInitial::?relay (Lcdshow)
                                                   ShowNumManage::?relay (Lcdshow)
                                                   ShowRefresh::?relay (Lcdshow)
                                                   ShowRefreshTime::?relay (Lcdshow)
                                                   ShowSecondProc::?relay (Lcdshow)
                                                   ShowStateFlashManage::?relay (Lcdshow)
                                                   ShowStateManage::?relay (Lcdshow)
                                                   ShowSysStart::?relay (Lcdshow)
                                                   Sleep::?relay (McuDrive)
                                                   SleepTimeProc::?relay (Timeproc)
                                                   SoftClockCheck::?relay (Timeproc)
                                                   Stop_Delay::?relay (BEBottom)
                                                   StructFreezeDate::?relay (Event)
                                                   SwichPluseOutType::?relay (McuDrive)
                                                   SysE2ParaSetManage::?relay (DataProtect)
                                                   SysE2ReadData::?relay (DataProtect)
                                                   SysEventProc::?relay (main)
                                                   TimeEventProc::?relay (main)
                                                   TimerProc::?relay (Timeproc)
                                                   UARTOFF::?relay (McuDrive)
                                                   Uart1_Dy10ms::?relay (Uart1)
                                                   Uart1_Receive::?relay (Uart1)
                                                   Uart1_Transmit::?relay (Uart1)
                                                   Uart2_Dy10ms::?relay (Uart2)
                                                   Uart2_Receive::?relay (Uart2)
                                                   Uart2_Transmit::?relay (Uart2)
                                                   Uart4_Dy10ms::?relay (Uart4)
                                                   Uart4_Receive::?relay (Uart4)
                                                   Uart4_Transmit::?relay (Uart4)
                                                   Uart_Proc::?relay (ComApplication)
                                                   Uint16_To_Uint8::?relay (Api)
                                                   Uint8_To_Uint16::?relay (Api)
                                                   Uint8_To_Uint32::?relay (Api)
                                                   UnDo33::?relay (Prcfrm)
                                                   Up_FunCfg::?relay (FunCfg)
                                                   ValidTime::?relay (Timeproc)
                                                   WrPassWord::?relay (DLT_645_2007)
                                                   WriLastDJTime::?relay (Dataproc)
                                                   WriteHisEP::?relay (Energy)
                                                   WriteMeterAddr::?relay (DLT_645_2007)
                                                   do_CRC::?relay (Api)
                                                   frexp::?relay (?frexp)
                                                   getFee::?relay (Multariff)
                                                   getTimeZone::?relay (Multariff)
                                                   sqrt::?relay (?sqrt)

    *************************************************************************

  FILE NAME : F:\SVN\06solution\Projects\农网\D105\Sw\Debug\Obj\main.r51
  PROGRAM MODULE, NAME : main

  SEGMENTS IN THE MODULE
  ======================
CODE_C
  Relative segment, address: CODE 00003594 - 0000359B (0x8 bytes), align: 0
  Segment part 12.
           ENTRY                   ADDRESS         REF BY
           =====                   =======         ======
           BIT8MAP                 00003594        ChangeBode (DLT_645_2007)
                                                   ComCheckFormat (DataProtect)
                                                   Disp_State (Lcdmiddle)
                                                   Disp_String (Lcdmiddle)
                                                   Disp_UnitPoint (Lcdmiddle)
                                                   IsZXR (Multariff)
                                                   Ldc_DataProc (LoadCurve)
                                                   ShowStateManage (Lcdshow)
    -------------------------------------------------------------------------
CODE_C
  Relative segment, address: CODE 0000359C - 0000361B (0x80 bytes), align: 0
  Segment part 13.
           ENTRY                   ADDRESS         REF BY
           =====                   =======         ======
           BIT32MAP                0000359C        E2ParaCheck (DataProtect)
                                                   Report (DLT_645_2007)
                                                   Rpt_StaBitClr (Report)
                                                   Rpt_StaFlgClr (Report)
                                                   Rpt_StaSet (Report)
                                                   Rpt_UpdateSta (Report)
                                                   SysE2ReadData (DataProtect)
    -------------------------------------------------------------------------
XDATA_Z
  Relative segment, address: XDATA 00000A12 - 00000A13 (0x2 bytes), align: 0
  Segment part 14.            Intra module refs:   Init_Var
                                                   SysEventProc
                                                   main
           ENTRY                   ADDRESS         REF BY
           =====                   =======         ======
           gui_SystemEvent         00000A12        ClearEvent (DLT_645_2007)
                                                   ClearMeter (DLT_645_2007)
                                                   ComBom_10msDy (ComBottom)
                                                   EnyB_IntCF (EnergyBottom)
                                                   PowDownChk (Powmanger)
                                                   ShowSecondProc (Lcdshow)
                                                   Uart1_Receive (Uart1)
                                                   Uart2_Receive (Uart2)
                                                   Uart4_Receive (Uart4)
    -------------------------------------------------------------------------
XDATA_Z
  Relative segment, address: XDATA 00000A14 - 00000A14 (0x1 bytes), align: 0
  Segment part 15.            Intra module refs:   Init_Var
                                                   TimeEventProc
                                                   main
           ENTRY                   ADDRESS         REF BY
           =====                   =======         ======
           guc_TimeEvent           00000A14        Timer2Interrupt (System)
                                                   TimerProc (Timeproc)
    -------------------------------------------------------------------------
XDATA_Z
  Relative segment, address: XDATA 00000A15 - 00000A15 (0x1 bytes), align: 0
  Segment part 16.            Intra module refs:   Init_Var
           ENTRY                   ADDRESS         REF BY
           =====                   =======         ======
           guc_KeyEvent            00000A15        KeyScan (Key)
    -------------------------------------------------------------------------
XDATA_Z
  Relative segment, address: XDATA 00000A16 - 00000A17 (0x2 bytes), align: 0
  Segment part 17.            Intra module refs:   Init_Var
           ENTRY                   ADDRESS         REF BY
           =====                   =======         ======
           gui_RefreshEvent        00000A16        BroadcastTime (DLT_645_2007)
                                                   ComRWE2Para (DLT_645_2007)
                                                   DataSecurityInit (DataProtect)
                                                   Data_FactoryClr (Dataproc)
                                                   EnyB_Open_Cf (EnergyBottom)
                                                   FactoryWR (DLT_645_2007)
                                                   RwGGJR (DLT_645_2007)
                                                   RwSqSd (DLT_645_2007)
                                                   RwSysTime (DLT_645_2007)
                                                   Uart1_Dy10ms (Uart1)
                                                   Uart4_Dy10ms (Uart4)
    -------------------------------------------------------------------------
XDATA_Z
  Relative segment, address: XDATA 00000A18 - 00000A18 (0x1 bytes), align: 0
  Segment part 18.            Intra module refs:   Init_Var
           ENTRY                   ADDRESS         REF BY
           =====                   =======         ======
           guc_DjCheckFlg          00000A18        Data_MinProc (Dataproc)
                                                   Freeze (DLT_645_2007)
    -------------------------------------------------------------------------
XDATA_Z
  Relative segment, address: XDATA 00000A19 - 00000A19 (0x1 bytes), align: 0
  Segment part 19.
           ENTRY                   ADDRESS         REF BY
           =====                   =======         ======
           guc_PowOffRuning        00000A19        Pow_DnProc (Powmanger)
    -------------------------------------------------------------------------
XDATA_Z
  Relative segment, address: XDATA 00000A1A - 00000A1A (0x1 bytes), align: 0
  Segment part 21.            Intra module refs:   Init_Var
           ENTRY                   ADDRESS         REF BY
           =====                   =======         ======
           guc_SecCnt              00000A1A        Timer2Interrupt (System)
    -------------------------------------------------------------------------
XDATA_Z
  Relative segment, address: XDATA 00000A1B - 00000A1B (0x1 bytes), align: 0
  Segment part 22.            Intra module refs:   Init_Var
           ENTRY                   ADDRESS         REF BY
           =====                   =======         ======
           guc_wdtCnt              00000A1B        Timer2Interrupt (System)
    -------------------------------------------------------------------------
XDATA_Z
  Relative segment, address: XDATA 00000A1C - 00000A1C (0x1 bytes), align: 0
  Segment part 23.            Intra module refs:   Init_Var
                                                   main
           ENTRY                   ADDRESS         REF BY
           =====                   =======         ======
           guc_wdtFlg              00000A1C        Timer2Interrupt (System)
    -------------------------------------------------------------------------
XDATA_Z
  Relative segment, address: XDATA 00000A1D - 00000A1E (0x2 bytes), align: 0
  Segment part 24.
           ENTRY                   ADDRESS         REF BY
           =====                   =======         ======
           gui_SystemState         00000A1D        BroadcastTime (DLT_645_2007)
                                                   CalPowDwTm (Dataproc)
                                                   ChangePassWord (DLT_645_2007)
                                                   CheckTime (Timeproc)
                                                   ClearEvent (DLT_645_2007)
                                                   ClearMeter (DLT_645_2007)
                                                   Com_JSJL (Event)
                                                   CoverCloseLog (Event)
                                                   CoverOpenLog (Event)
                                                   Data_DayProc (Dataproc)
                                                   Data_FactoryClr (Dataproc)
                                                   Decode645Frame (Prcfrm)
                                                   EnyB_Check_OC (EnergyBottom)
                                                   FactoryWR (DLT_645_2007)
                                                   JudgePassword (Prcfrm)
                                                   KeyPgm_DyOut (Key)
                                                   PowDownChk (Powmanger)
                                                   Pow_DnProc (Powmanger)
                                                   RecoverEnegyData (Dataproc)
                                                   SaveProgramLog (Event)
                                                   ShowRefresh (Lcdshow)
                                                   ShowStateManage (Lcdshow)
                                                   Sleep (McuDrive)
                                                   WriteMeterAddr (DLT_645_2007)
    -------------------------------------------------------------------------
XDATA_Z
  Relative segment, address: XDATA 00000A1F - 00000A20 (0x2 bytes), align: 0
  Segment part 25.            Intra module refs:   Init_Var
                                                   SysEventProc
                                                   main
           ENTRY                   ADDRESS         REF BY
           =====                   =======         ======
           gui_SystemSleepState    00000A1F 
    -------------------------------------------------------------------------
CODE_AC
  Relative segment, address: CODE 00000400 - 000007FF (0x400 bytes), align: 0
  Segment part 6. ROOT.
           ENTRY                   ADDRESS         REF BY
           =====                   =======         ======
           codepsword              00000400 
    -------------------------------------------------------------------------
<BANKED_CODE> 3 (was BANKED_CODE)
  Relative segment, address: CODE 0001DA97 - 0001DBF6 (0x160 bytes), align: 0
  Segment part 27.            Intra module refs:   Init_Var::?relay
           ENTRY                   ADDRESS         REF BY
           =====                   =======         ======
           Init_Var                0001DA97 
               calls direct, is not allocated
               not allocated function
    -------------------------------------------------------------------------
<BANKED_CODE> 3 (was BANKED_CODE)
  Relative segment, address: CODE 0001DBF7 - 0001DC72 (0x7c bytes), align: 0
  Segment part 29.            Intra module refs:   SysEventProc::?relay
           ENTRY                   ADDRESS         REF BY
           =====                   =======         ======
           SysEventProc            0001DBF7 
               calls direct, is not allocated
               not allocated function
    -------------------------------------------------------------------------
<BANKED_CODE> 3 (was BANKED_CODE)
  Relative segment, address: CODE 0001DC73 - 0001DCEB (0x79 bytes), align: 0
  Segment part 31.            Intra module refs:   TimeEventProc::?relay
           ENTRY                   ADDRESS         REF BY
           =====                   =======         ======
           TimeEventProc           0001DC73 
               calls direct, is not allocated
               not allocated function
    -------------------------------------------------------------------------
NEAR_CODE
  Relative segment, address: CODE 000038C3 - 00003989 (0xc7 bytes), align: 0
  Segment part 33.
           ENTRY                   ADDRESS         REF BY
           =====                   =======         ======
           main                    000038C3        __call_main (CSTARTUP)
               calls direct, is not allocated
               not allocated function
    -------------------------------------------------------------------------
BANK_RELAYS
  Relative segment, address: CODE 00001510 - 00001515 (0x6 bytes), align: 0
  Segment part 28.            Intra module refs:   main
           ENTRY                   ADDRESS         REF BY
           =====                   =======         ======
           Init_Var::?relay        00001510 
    -------------------------------------------------------------------------
BANK_RELAYS
  Relative segment, address: CODE 00001516 - 0000151B (0x6 bytes), align: 0
  Segment part 30.            Intra module refs:   main
           ENTRY                   ADDRESS         REF BY
           =====                   =======         ======
           SysEventProc::?relay    00001516 
    -------------------------------------------------------------------------
BANK_RELAYS
  Relative segment, address: CODE 0000151C - 00001521 (0x6 bytes), align: 0
  Segment part 32.            Intra module refs:   main
           ENTRY                   ADDRESS         REF BY
           =====                   =======         ======
           TimeEventProc::?relay   0000151C 

    *************************************************************************

  FILE NAME : F:\SVN\06solution\Projects\农网\D105\Sw\Debug\Obj\workaround.r51
  PROGRAM MODULE, NAME : VIRTUAL_REGISTERS

  SEGMENTS IN THE MODULE
  ======================
BREG
  Relative segment, address: BIT 00000020.0 - 00000020.7 (0x8 bits), align: 0
  Segment part 0.
           ENTRY                   ADDRESS         REF BY
           =====                   =======         ======
           ?B0                     00000020.0      Absolute parts (CSTARTUP)
    -------------------------------------------------------------------------
VREG
  Relative segment, address: DATA 00000021 - 00000028 (0x8 bytes), align: 0
  Segment part 1.
           ENTRY                   ADDRESS         REF BY
           =====                   =======         ======
           ?V0                     00000021        ?BANKED_ENTER_XDATA (?BANKED_ENTER_XDATA)
                                                   ?BANKED_LEAVE_XDATA (?BANKED_LEAVE_XDATA)
                                                   ?SL_GE_C (?SL_GE_C)
                                                   ?UL_GE_C (?UL_GE_C)
                                                   ?UL_GE_X (?UL_GE_X)
                                                   APIByteBCD2HEX (Api)
                                                   APIByteHEX2BCD (Api)
                                                   ApiReverseData (Api)
                                                   BCD2Hex (Api)
                                                   BD_ProcFrame (Prcfrm)
                                                   BE_ReadB (BEBottom)
                                                   BE_ReadP (BEBottom)
                                                   BE_ReadW (BEBottom)
                                                   BE_WriteP (BEBottom)
                                                   BgCtrFun (McuDrive)
                                                   BroadcastTime (DLT_645_2007)
                                                   CalCBRCount (Api)
                                                   CalCos (EnergyBottom)
                                                   CalDayBack (Dataproc)
                                                   CalPowDwTm (Dataproc)
                                                   CalRDJCount (Api)
                                                   CalRMS (EnergyBottom)
                                                   CalRTC (RtcCpt)
                                                   CalcAbsDay (Timeproc)
                                                   CalcAbsSecond (Timeproc)
                                                   CalcAbsTime (Timeproc)
                                                   CalcTimeGap (Timeproc)
                                                   CalcWeek (Timeproc)
                                                   CalculateAC (EnergyBottom)
                                                   CalculateSC (EnergyBottom)
                                                   CfgCheck (FunCfg)
                                                   ChangeBode (DLT_645_2007)
                                                   ChangePassWord (DLT_645_2007)
                                                   CheckCRCWord (Dataproc)
                                                   CheckSdFormat (DataProtect)
                                                   CheckSqFormat (DataProtect)
                                                   CheckTime (Timeproc)
                                                   ClRCRCWord (Dataproc)
                                                   ClearEvent (DLT_645_2007)
                                                   ClearMeter (DLT_645_2007)
                                                   ClockBAK_E2 (Timeproc)
                                                   ClockCheck (Timeproc)
                                                   CmpCode (DLT_645_2007)
                                                   CmpTm (LoadCurve)
                                                   CodeEncrypt (CmpCode)
                                                   ComCheckFormat (DataProtect)
                                                   ComMeterConst (DLT_645_2007)
                                                   ComRWE2Para (DLT_645_2007)
                                                   ComRdEvCnt (DLT_645_2007)
                                                   ComReadRunCode (DLT_645_2007)
                                                   Com_ClearMeterJL (Event)
                                                   CoverCloseLog (Event)
                                                   CoverOpenLog (Event)
                                                   DataProcEvCountAdd (Dataproc)
                                                   DataProcRead2Slice (Dataproc)
                                                   DataProcWriteRound2 (Dataproc)
                                                   Data_ClearEvent (Event)
                                                   Data_ClearMeter (Dataproc)
                                                   Data_FactoryClr (Dataproc)
                                                   Decode645Frame (Prcfrm)
                                                   Disp_Numb (Lcdmiddle)
                                                   Disp_State (Lcdmiddle)
                                                   Disp_String (Lcdmiddle)
                                                   Disp_UnitPoint (Lcdmiddle)
                                                   Do33 (Prcfrm)
                                                   DoSum (Prcfrm)
                                                   E2ParaCheck (DataProtect)
                                                   Encode645Frame (Prcfrm)
                                                   EnergyCBRManage (Energy)
                                                   EnyB_AutoChkAngle (EnergyBottom)
                                                   EnyB_AutoChkIrms (EnergyBottom)
                                                   EnyB_AutoChkPW (EnergyBottom)
                                                   EnyB_AutoChkUrms (EnergyBottom)
                                                   EnyB_Check_OC (EnergyBottom)
                                                   EnyB_Check_PowRev (EnergyBottom)
                                                   EnyB_JbPm_Updata (EnergyBottom)
                                                   EnyB_Open_Cf (EnergyBottom)
                                                   EnyB_ReadMeterParaACK (EnergyBottom)
                                                   EnyB_SetMeterCfgACK (EnergyBottom)
                                                   Eny_CheckEnergy (Energy)
                                                   Eny_CheckEnergyActiveRAM (Energy)
                                                   Eny_EnergyActiveSave (Energy)
                                                   Eny_EnergyClrCur (Energy)
                                                   Eny_EnergyProc (Energy)
                                                   Eny_GetEp1 (Energy)
                                                   Eny_JbPm_GetE2 (Energy)
                                                   Eny_JbPm_MeterConst (Energy)
                                                   Eny_PurCheckRAMEny (Energy)
                                                   Eny_RefCalcType (Energy)
                                                   Eny_RefVar (Energy)
                                                   FactoryRD (DLT_645_2007)
                                                   FactoryWR (DLT_645_2007)
                                                   Freeze (DLT_645_2007)
                                                   GetBat (McuDrive)
                                                   GetE2Type (DataProtect)
                                                   GetFactor (CmpCode)
                                                   Hex2BCD (Api)
                                                   HourAndMinToMin (Api)
                                                   Init_Var (main)
                                                   IrShowLcd (DLT_645_2007)
                                                   IsJR (Multariff)
                                                   IsNumSD (Multariff)
                                                   IsNumSQ (Multariff)
                                                   IsValidFrame (Prcfrm)
                                                   IsValidSQ (Multariff)
                                                   IsZXR (Multariff)
                                                   Judge645Addr (Prcfrm)
                                                   Judge645Frm (Prcfrm)
                                                   JudgeIsNum (Api)
                                                   JudgeJSR (Dataproc)
                                                   JudgePassword (Prcfrm)
                                                   JudgePowerDnValue (Powmanger)
                                                   KeyPgm_DyOut (Key)
                                                   KeyScan (Key)
                                                   Ldc_BuildFrame (LoadCurve)
                                                   Ldc_DataProc (LoadCurve)
                                                   Ldc_Get1stRecord (LoadCurve)
                                                   Ldc_GetSeqRecord (LoadCurve)
                                                   Ldc_TimeAdd (LoadCurve)
                                                   Ldc_TimeCal (LoadCurve)
                                                   Ldc_TimeSub (LoadCurve)
                                                   Ldc_TmMinCal (LoadCurve)
                                                   Ldc_ZoneChk (LoadCurve)
                                                   LoadCurveCheck (LoadCurve)
                                                   MCUForPowerOff (McuDrive)
                                                   Mcu_BatCal (McuDrive)
                                                   MemInvertCpy (Api)
                                                   MidFindID (DLT_645_2007)
                                                   MonthLYDL (Energy)
                                                   MoveBuffer (Api)
                                                   PMDspInit (EnergyBottom)
                                                   PowUpLedCtl (McuDrive)
                                                   Pow_DnProc (Powmanger)
                                                   PowerJL (Event)
                                                   ProJL (PrologFee)
                                                   PwBs_DyOut (Prcfrm)
                                                   RSDJLlog (PrologFee)
                                                   RWData (DLT_645_2007)
                                                   ReadAccuEgy (DLT_645_2007)
                                                   ReadCurEgy (DLT_645_2007)
                                                   ReadCurveJl (DLT_645_2007)
                                                   ReadEnyD0Block (DLT_645_2007)
                                                   ReadFlash (CmpCode)
                                                   ReadHisEgy (DLT_645_2007)
                                                   ReadHisJSTime (DLT_645_2007)
                                                   ReadJL (DLT_645_2007)
                                                   ReadRSDLogItem (PrologFee)
                                                   ReadSQLogItem (PrologFee)
                                                   ReadSwVersion (DLT_645_2007)
                                                   ReadVar (DLT_645_2007)
                                                   ReadZHLYEgy (DLT_645_2007)
                                                   RecoverDayDjData (Dataproc)
                                                   RecoverEnegyData (Dataproc)
                                                   RecoverJSRData (Dataproc)
                                                   RecoverRtcPara (RtcCpt)
                                                   RecoverRunPara (Dataproc)
                                                   RefreshLCDRAM (LcdBottom)
                                                   Report (DLT_645_2007)
                                                   Rpt_Clr (Report)
                                                   Rpt_Crc (Report)
                                                   Rpt_Recover (Report)
                                                   Rpt_StaBitClr (Report)
                                                   Rpt_StaFlgClr (Report)
                                                   Rpt_StaSet (Report)
                                                   Rpt_UpdateSta (Report)
                                                   RtcParaFsToE2 (RtcCpt)
                                                   RwDjData (DLT_645_2007)
                                                   RwGGJR (DLT_645_2007)
                                                   RwLcdData (DLT_645_2007)
                                                   RwRamE2 (DLT_645_2007)
                                                   RwSqSd (DLT_645_2007)
                                                   RwSysTime (DLT_645_2007)
                                                   SaveProgramLog (Event)
                                                   Search1stEqualItem (LoadCurve)
                                                   SearchDispNO (Lcdshow)
                                                   SearchEqualItem (LoadCurve)
                                                   Search_Pos (Multariff)
                                                   Search_SdNum (Multariff)
                                                   SecPulsCtrl (DLT_645_2007)
                                                   SeekDataID (PrologFee)
                                                   SetCRCWord (Dataproc)
                                                   SetRTCNormal (RtcCpt)
                                                   ShowDataProc (Lcdshow)
                                                   ShowNumManage (Lcdshow)
                                                   ShowSecondProc (Lcdshow)
                                                   ShowStateFlashManage (Lcdshow)
                                                   ShowStateManage (Lcdshow)
                                                   SleepTimeProc (Timeproc)
                                                   SoftClockCheck (Timeproc)
                                                   StructFreezeDate (Event)
                                                   SysE2ParaSetManage (DataProtect)
                                                   SysE2ReadData (DataProtect)
                                                   TimerProc (Timeproc)
                                                   UATRAndCFInterrupt (System)
                                                   UATRAndRTCInterrupt (System)
                                                   Uart1_Receive (Uart1)
                                                   Uart1_Transmit (Uart1)
                                                   Uart2_Receive (Uart2)
                                                   Uart2_Transmit (Uart2)
                                                   Uart4_Receive (Uart4)
                                                   Uart4_Transmit (Uart4)
                                                   UnDo33 (Prcfrm)
                                                   Up_FunCfg (FunCfg)
                                                   ValidTime (Timeproc)
                                                   WrPassWord (DLT_645_2007)
                                                   WriteHisEP (Energy)
                                                   WriteMeterAddr (DLT_645_2007)
                                                   do_CRC (Api)
                                                   frexp (?frexp)
                                                   getFee (Multariff)
                                                   getTimeZone (Multariff)
                                                   sqrt (?sqrt)
           ?V1                     00000022        APIByteBCD2HEX (Api)
                                                   APIByteHEX2BCD (Api)
                                                   ApiReverseData (Api)
                                                   BCD2Hex (Api)
                                                   BD_ProcFrame (Prcfrm)
                                                   BE_ReadB (BEBottom)
                                                   BE_ReadP (BEBottom)
                                                   BE_ReadW (BEBottom)
                                                   BE_WriteP (BEBottom)
                                                   BgCtrFun (McuDrive)
                                                   BroadcastTime (DLT_645_2007)
                                                   CalCBRCount (Api)
                                                   CalCos (EnergyBottom)
                                                   CalDayBack (Dataproc)
                                                   CalPowDwTm (Dataproc)
                                                   CalRDJCount (Api)
                                                   CalRMS (EnergyBottom)
                                                   CalRTC (RtcCpt)
                                                   CalcAbsDay (Timeproc)
                                                   CalcAbsSecond (Timeproc)
                                                   CalcAbsTime (Timeproc)
                                                   CalcTimeGap (Timeproc)
                                                   CalcWeek (Timeproc)
                                                   CalculateAC (EnergyBottom)
                                                   CalculateSC (EnergyBottom)
                                                   CfgCheck (FunCfg)
                                                   ChangeBode (DLT_645_2007)
                                                   ChangePassWord (DLT_645_2007)
                                                   CheckCRCWord (Dataproc)
                                                   CheckSqFormat (DataProtect)
                                                   CheckTime (Timeproc)
                                                   ClRCRCWord (Dataproc)
                                                   ClearEvent (DLT_645_2007)
                                                   ClearMeter (DLT_645_2007)
                                                   ClockBAK_E2 (Timeproc)
                                                   ClockCheck (Timeproc)
                                                   CmpCode (DLT_645_2007)
                                                   CmpTm (LoadCurve)
                                                   CodeEncrypt (CmpCode)
                                                   ComCheckFormat (DataProtect)
                                                   ComMeterConst (DLT_645_2007)
                                                   ComRWE2Para (DLT_645_2007)
                                                   ComRdEvCnt (DLT_645_2007)
                                                   ComReadRunCode (DLT_645_2007)
                                                   Com_ClearMeterJL (Event)
                                                   CoverCloseLog (Event)
                                                   CoverOpenLog (Event)
                                                   DataProcEvCountAdd (Dataproc)
                                                   DataProcRead2Slice (Dataproc)
                                                   DataProcWriteRound2 (Dataproc)
                                                   Data_ClearEvent (Event)
                                                   Data_ClearMeter (Dataproc)
                                                   Data_FactoryClr (Dataproc)
                                                   Decode645Frame (Prcfrm)
                                                   Disp_Numb (Lcdmiddle)
                                                   Disp_State (Lcdmiddle)
                                                   Disp_String (Lcdmiddle)
                                                   Disp_UnitPoint (Lcdmiddle)
                                                   Do33 (Prcfrm)
                                                   DoSum (Prcfrm)
                                                   E2ParaCheck (DataProtect)
                                                   Encode645Frame (Prcfrm)
                                                   EnergyCBRManage (Energy)
                                                   EnyB_AutoChkAngle (EnergyBottom)
                                                   EnyB_AutoChkIrms (EnergyBottom)
                                                   EnyB_AutoChkPW (EnergyBottom)
                                                   EnyB_AutoChkUrms (EnergyBottom)
                                                   EnyB_Check_OC (EnergyBottom)
                                                   EnyB_Check_PowRev (EnergyBottom)
                                                   EnyB_JbPm_Updata (EnergyBottom)
                                                   EnyB_Open_Cf (EnergyBottom)
                                                   EnyB_ReadMeterParaACK (EnergyBottom)
                                                   EnyB_SetMeterCfgACK (EnergyBottom)
                                                   Eny_CheckEnergy (Energy)
                                                   Eny_CheckEnergyActiveRAM (Energy)
                                                   Eny_EnergyActiveSave (Energy)
                                                   Eny_EnergyClrCur (Energy)
                                                   Eny_EnergyProc (Energy)
                                                   Eny_GetEp1 (Energy)
                                                   Eny_JbPm_GetE2 (Energy)
                                                   Eny_JbPm_MeterConst (Energy)
                                                   Eny_PurCheckRAMEny (Energy)
                                                   Eny_RefCalcType (Energy)
                                                   Eny_RefVar (Energy)
                                                   FactoryRD (DLT_645_2007)
                                                   FactoryWR (DLT_645_2007)
                                                   Freeze (DLT_645_2007)
                                                   GetBat (McuDrive)
                                                   GetE2Type (DataProtect)
                                                   GetFactor (CmpCode)
                                                   Hex2BCD (Api)
                                                   HourAndMinToMin (Api)
                                                   Init_Var (main)
                                                   IrShowLcd (DLT_645_2007)
                                                   IsJR (Multariff)
                                                   IsNumSD (Multariff)
                                                   IsNumSQ (Multariff)
                                                   IsValidFrame (Prcfrm)
                                                   IsValidSQ (Multariff)
                                                   IsZXR (Multariff)
                                                   Judge645Addr (Prcfrm)
                                                   Judge645Frm (Prcfrm)
                                                   JudgeIsNum (Api)
                                                   JudgeJSR (Dataproc)
                                                   JudgePassword (Prcfrm)
                                                   JudgePowerDnValue (Powmanger)
                                                   KeyPgm_DyOut (Key)
                                                   KeyScan (Key)
                                                   Ldc_BuildFrame (LoadCurve)
                                                   Ldc_DataProc (LoadCurve)
                                                   Ldc_Get1stRecord (LoadCurve)
                                                   Ldc_GetSeqRecord (LoadCurve)
                                                   Ldc_TimeAdd (LoadCurve)
                                                   Ldc_TimeCal (LoadCurve)
                                                   Ldc_TimeSub (LoadCurve)
                                                   Ldc_TmMinCal (LoadCurve)
                                                   Ldc_ZoneChk (LoadCurve)
                                                   LoadCurveCheck (LoadCurve)
                                                   MCUForPowerOff (McuDrive)
                                                   Mcu_BatCal (McuDrive)
                                                   MemInvertCpy (Api)
                                                   MidFindID (DLT_645_2007)
                                                   MonthLYDL (Energy)
                                                   MoveBuffer (Api)
                                                   PMDspInit (EnergyBottom)
                                                   PowUpLedCtl (McuDrive)
                                                   Pow_DnProc (Powmanger)
                                                   ProJL (PrologFee)
                                                   PwBs_DyOut (Prcfrm)
                                                   RSDJLlog (PrologFee)
                                                   RWData (DLT_645_2007)
                                                   ReadAccuEgy (DLT_645_2007)
                                                   ReadCurEgy (DLT_645_2007)
                                                   ReadCurveJl (DLT_645_2007)
                                                   ReadEnyD0Block (DLT_645_2007)
                                                   ReadFlash (CmpCode)
                                                   ReadHisEgy (DLT_645_2007)
                                                   ReadHisJSTime (DLT_645_2007)
                                                   ReadJL (DLT_645_2007)
                                                   ReadRSDLogItem (PrologFee)
                                                   ReadSQLogItem (PrologFee)
                                                   ReadSwVersion (DLT_645_2007)
                                                   ReadVar (DLT_645_2007)
                                                   ReadZHLYEgy (DLT_645_2007)
                                                   RecoverDayDjData (Dataproc)
                                                   RecoverEnegyData (Dataproc)
                                                   RecoverJSRData (Dataproc)
                                                   RecoverRtcPara (RtcCpt)
                                                   RecoverRunPara (Dataproc)
                                                   RefreshLCDRAM (LcdBottom)
                                                   Report (DLT_645_2007)
                                                   Rpt_Clr (Report)
                                                   Rpt_Crc (Report)
                                                   Rpt_Recover (Report)
                                                   Rpt_StaBitClr (Report)
                                                   Rpt_StaFlgClr (Report)
                                                   Rpt_StaSet (Report)
                                                   Rpt_UpdateSta (Report)
                                                   RtcParaFsToE2 (RtcCpt)
                                                   RwDjData (DLT_645_2007)
                                                   RwGGJR (DLT_645_2007)
                                                   RwLcdData (DLT_645_2007)
                                                   RwRamE2 (DLT_645_2007)
                                                   RwSqSd (DLT_645_2007)
                                                   RwSysTime (DLT_645_2007)
                                                   SaveProgramLog (Event)
                                                   Search1stEqualItem (LoadCurve)
                                                   SearchDispNO (Lcdshow)
                                                   SearchEqualItem (LoadCurve)
                                                   Search_Pos (Multariff)
                                                   Search_SdNum (Multariff)
                                                   SecPulsCtrl (DLT_645_2007)
                                                   SeekDataID (PrologFee)
                                                   SetCRCWord (Dataproc)
                                                   SetRTCNormal (RtcCpt)
                                                   ShowDataProc (Lcdshow)
                                                   ShowNumManage (Lcdshow)
                                                   ShowSecondProc (Lcdshow)
                                                   ShowStateFlashManage (Lcdshow)
                                                   ShowStateManage (Lcdshow)
                                                   SleepTimeProc (Timeproc)
                                                   SoftClockCheck (Timeproc)
                                                   StructFreezeDate (Event)
                                                   SysE2ParaSetManage (DataProtect)
                                                   SysE2ReadData (DataProtect)
                                                   TimerProc (Timeproc)
                                                   Uart1_Receive (Uart1)
                                                   Uart1_Transmit (Uart1)
                                                   Uart2_Receive (Uart2)
                                                   Uart2_Transmit (Uart2)
                                                   Uart4_Receive (Uart4)
                                                   Uart4_Transmit (Uart4)
                                                   UnDo33 (Prcfrm)
                                                   Up_FunCfg (FunCfg)
                                                   ValidTime (Timeproc)
                                                   WrPassWord (DLT_645_2007)
                                                   WriteHisEP (Energy)
                                                   WriteMeterAddr (DLT_645_2007)
                                                   do_CRC (Api)
                                                   frexp (?frexp)
                                                   getFee (Multariff)
                                                   getTimeZone (Multariff)
                                                   sqrt (?sqrt)
           ?V2                     00000023        ApiReverseData (Api)
                                                   BCD2Hex (Api)
                                                   BD_ProcFrame (Prcfrm)
                                                   BE_ReadB (BEBottom)
                                                   BE_ReadP (BEBottom)
                                                   BE_ReadW (BEBottom)
                                                   BE_WriteP (BEBottom)
                                                   BgCtrFun (McuDrive)
                                                   BroadcastTime (DLT_645_2007)
                                                   CalCBRCount (Api)
                                                   CalCos (EnergyBottom)
                                                   CalDayBack (Dataproc)
                                                   CalPowDwTm (Dataproc)
                                                   CalRDJCount (Api)
                                                   CalRMS (EnergyBottom)
                                                   CalRTC (RtcCpt)
                                                   CalcAbsDay (Timeproc)
                                                   CalcAbsSecond (Timeproc)
                                                   CalcAbsTime (Timeproc)
                                                   CalcTimeGap (Timeproc)
                                                   CalcWeek (Timeproc)
                                                   CalculateAC (EnergyBottom)
                                                   CalculateSC (EnergyBottom)
                                                   ChangePassWord (DLT_645_2007)
                                                   CheckSqFormat (DataProtect)
                                                   CheckTime (Timeproc)
                                                   ClearEvent (DLT_645_2007)
                                                   ClockBAK_E2 (Timeproc)
                                                   CmpCode (DLT_645_2007)
                                                   CodeEncrypt (CmpCode)
                                                   ComCheckFormat (DataProtect)
                                                   ComMeterConst (DLT_645_2007)
                                                   ComRWE2Para (DLT_645_2007)
                                                   ComRdEvCnt (DLT_645_2007)
                                                   ComReadRunCode (DLT_645_2007)
                                                   Com_ClearMeterJL (Event)
                                                   CoverCloseLog (Event)
                                                   CoverOpenLog (Event)
                                                   DataProcEvCountAdd (Dataproc)
                                                   DataProcRead2Slice (Dataproc)
                                                   DataProcWriteRound2 (Dataproc)
                                                   Data_ClearMeter (Dataproc)
                                                   Data_FactoryClr (Dataproc)
                                                   Decode645Frame (Prcfrm)
                                                   Disp_Numb (Lcdmiddle)
                                                   Disp_State (Lcdmiddle)
                                                   Disp_String (Lcdmiddle)
                                                   Disp_UnitPoint (Lcdmiddle)
                                                   E2ParaCheck (DataProtect)
                                                   Encode645Frame (Prcfrm)
                                                   EnergyCBRManage (Energy)
                                                   EnyB_AutoChkAngle (EnergyBottom)
                                                   EnyB_AutoChkIrms (EnergyBottom)
                                                   EnyB_AutoChkPW (EnergyBottom)
                                                   EnyB_AutoChkUrms (EnergyBottom)
                                                   EnyB_Check_OC (EnergyBottom)
                                                   EnyB_Check_PowRev (EnergyBottom)
                                                   EnyB_JbPm_Updata (EnergyBottom)
                                                   EnyB_Open_Cf (EnergyBottom)
                                                   EnyB_ReadMeterParaACK (EnergyBottom)
                                                   EnyB_SetMeterCfgACK (EnergyBottom)
                                                   Eny_EnergyActiveSave (Energy)
                                                   Eny_EnergyClrCur (Energy)
                                                   Eny_EnergyProc (Energy)
                                                   Eny_GetEp1 (Energy)
                                                   Eny_JbPm_GetE2 (Energy)
                                                   Eny_PurCheckRAMEny (Energy)
                                                   Eny_RefCalcType (Energy)
                                                   Eny_RefVar (Energy)
                                                   FactoryRD (DLT_645_2007)
                                                   FactoryWR (DLT_645_2007)
                                                   Freeze (DLT_645_2007)
                                                   GetBat (McuDrive)
                                                   GetFactor (CmpCode)
                                                   Hex2BCD (Api)
                                                   Init_Var (main)
                                                   IrShowLcd (DLT_645_2007)
                                                   IsJR (Multariff)
                                                   IsNumSD (Multariff)
                                                   IsNumSQ (Multariff)
                                                   IsValidFrame (Prcfrm)
                                                   IsValidSQ (Multariff)
                                                   IsZXR (Multariff)
                                                   Judge645Addr (Prcfrm)
                                                   Judge645Frm (Prcfrm)
                                                   JudgePassword (Prcfrm)
                                                   JudgePowerDnValue (Powmanger)
                                                   KeyPgm_DyOut (Key)
                                                   KeyScan (Key)
                                                   Ldc_DataProc (LoadCurve)
                                                   Ldc_Get1stRecord (LoadCurve)
                                                   Ldc_GetSeqRecord (LoadCurve)
                                                   Ldc_TimeAdd (LoadCurve)
                                                   Ldc_TimeCal (LoadCurve)
                                                   Ldc_TimeSub (LoadCurve)
                                                   Ldc_TmMinCal (LoadCurve)
                                                   Ldc_ZoneChk (LoadCurve)
                                                   LoadCurveCheck (LoadCurve)
                                                   MCUForPowerOff (McuDrive)
                                                   Mcu_BatCal (McuDrive)
                                                   MidFindID (DLT_645_2007)
                                                   MonthLYDL (Energy)
                                                   PMDspInit (EnergyBottom)
                                                   PowUpLedCtl (McuDrive)
                                                   Pow_DnProc (Powmanger)
                                                   PowerJL (Event)
                                                   ProJL (PrologFee)
                                                   PwBs_DyOut (Prcfrm)
                                                   RSDJLlog (PrologFee)
                                                   RWData (DLT_645_2007)
                                                   ReadAccuEgy (DLT_645_2007)
                                                   ReadCurEgy (DLT_645_2007)
                                                   ReadCurveJl (DLT_645_2007)
                                                   ReadEnyD0Block (DLT_645_2007)
                                                   ReadFlash (CmpCode)
                                                   ReadHisEgy (DLT_645_2007)
                                                   ReadHisJSTime (DLT_645_2007)
                                                   ReadJL (DLT_645_2007)
                                                   ReadRSDLogItem (PrologFee)
                                                   ReadSQLogItem (PrologFee)
                                                   ReadVar (DLT_645_2007)
                                                   ReadZHLYEgy (DLT_645_2007)
                                                   RecoverDayDjData (Dataproc)
                                                   RecoverEnegyData (Dataproc)
                                                   RecoverJSRData (Dataproc)
                                                   RecoverRtcPara (RtcCpt)
                                                   Report (DLT_645_2007)
                                                   Rpt_Crc (Report)
                                                   Rpt_Recover (Report)
                                                   Rpt_StaBitClr (Report)
                                                   Rpt_StaFlgClr (Report)
                                                   Rpt_StaSet (Report)
                                                   Rpt_UpdateSta (Report)
                                                   RtcParaFsToE2 (RtcCpt)
                                                   RwDjData (DLT_645_2007)
                                                   RwGGJR (DLT_645_2007)
                                                   RwLcdData (DLT_645_2007)
                                                   RwRamE2 (DLT_645_2007)
                                                   RwSqSd (DLT_645_2007)
                                                   RwSysTime (DLT_645_2007)
                                                   Search1stEqualItem (LoadCurve)
                                                   SearchDispNO (Lcdshow)
                                                   SearchEqualItem (LoadCurve)
                                                   SeekDataID (PrologFee)
                                                   SetRTCNormal (RtcCpt)
                                                   ShowDataProc (Lcdshow)
                                                   ShowNumManage (Lcdshow)
                                                   ShowSecondProc (Lcdshow)
                                                   ShowStateFlashManage (Lcdshow)
                                                   ShowStateManage (Lcdshow)
                                                   SleepTimeProc (Timeproc)
                                                   SoftClockCheck (Timeproc)
                                                   StructFreezeDate (Event)
                                                   SysE2ParaSetManage (DataProtect)
                                                   SysE2ReadData (DataProtect)
                                                   Uart2_Receive (Uart2)
                                                   Up_FunCfg (FunCfg)
                                                   ValidTime (Timeproc)
                                                   WrPassWord (DLT_645_2007)
                                                   WriteHisEP (Energy)
                                                   WriteMeterAddr (DLT_645_2007)
                                                   frexp (?frexp)
                                                   getFee (Multariff)
                                                   getTimeZone (Multariff)
                                                   sqrt (?sqrt)
           ?V3                     00000024        BCD2Hex (Api)
                                                   BD_ProcFrame (Prcfrm)
                                                   BE_ReadB (BEBottom)
                                                   BE_ReadP (BEBottom)
                                                   BE_ReadW (BEBottom)
                                                   BE_WriteP (BEBottom)
                                                   BgCtrFun (McuDrive)
                                                   BroadcastTime (DLT_645_2007)
                                                   CalCos (EnergyBottom)
                                                   CalDayBack (Dataproc)
                                                   CalPowDwTm (Dataproc)
                                                   CalRMS (EnergyBottom)
                                                   CalRTC (RtcCpt)
                                                   CalcAbsDay (Timeproc)
                                                   CalcAbsSecond (Timeproc)
                                                   CalcAbsTime (Timeproc)
                                                   CalcTimeGap (Timeproc)
                                                   CalcWeek (Timeproc)
                                                   CalculateAC (EnergyBottom)
                                                   CalculateSC (EnergyBottom)
                                                   ChangePassWord (DLT_645_2007)
                                                   CheckSqFormat (DataProtect)
                                                   CheckTime (Timeproc)
                                                   ClearEvent (DLT_645_2007)
                                                   ClockBAK_E2 (Timeproc)
                                                   CmpCode (DLT_645_2007)
                                                   CodeEncrypt (CmpCode)
                                                   ComCheckFormat (DataProtect)
                                                   ComMeterConst (DLT_645_2007)
                                                   ComRWE2Para (DLT_645_2007)
                                                   ComRdEvCnt (DLT_645_2007)
                                                   ComReadRunCode (DLT_645_2007)
                                                   Com_ClearMeterJL (Event)
                                                   CoverCloseLog (Event)
                                                   CoverOpenLog (Event)
                                                   DataProcEvCountAdd (Dataproc)
                                                   DataProcRead2Slice (Dataproc)
                                                   DataProcWriteRound2 (Dataproc)
                                                   Data_ClearMeter (Dataproc)
                                                   Data_FactoryClr (Dataproc)
                                                   Decode645Frame (Prcfrm)
                                                   Disp_Numb (Lcdmiddle)
                                                   Disp_State (Lcdmiddle)
                                                   Disp_String (Lcdmiddle)
                                                   E2ParaCheck (DataProtect)
                                                   Encode645Frame (Prcfrm)
                                                   EnergyCBRManage (Energy)
                                                   EnyB_AutoChkAngle (EnergyBottom)
                                                   EnyB_AutoChkIrms (EnergyBottom)
                                                   EnyB_AutoChkPW (EnergyBottom)
                                                   EnyB_AutoChkUrms (EnergyBottom)
                                                   EnyB_Check_OC (EnergyBottom)
                                                   EnyB_Check_PowRev (EnergyBottom)
                                                   EnyB_JbPm_Updata (EnergyBottom)
                                                   EnyB_Open_Cf (EnergyBottom)
                                                   EnyB_ReadMeterParaACK (EnergyBottom)
                                                   EnyB_SetMeterCfgACK (EnergyBottom)
                                                   Eny_EnergyActiveSave (Energy)
                                                   Eny_EnergyClrCur (Energy)
                                                   Eny_EnergyProc (Energy)
                                                   Eny_GetEp1 (Energy)
                                                   Eny_JbPm_GetE2 (Energy)
                                                   Eny_PurCheckRAMEny (Energy)
                                                   Eny_RefCalcType (Energy)
                                                   Eny_RefVar (Energy)
                                                   FactoryRD (DLT_645_2007)
                                                   FactoryWR (DLT_645_2007)
                                                   Freeze (DLT_645_2007)
                                                   GetBat (McuDrive)
                                                   GetFactor (CmpCode)
                                                   Hex2BCD (Api)
                                                   Init_Var (main)
                                                   IrShowLcd (DLT_645_2007)
                                                   IsJR (Multariff)
                                                   IsNumSD (Multariff)
                                                   IsNumSQ (Multariff)
                                                   IsValidFrame (Prcfrm)
                                                   IsValidSQ (Multariff)
                                                   IsZXR (Multariff)
                                                   Judge645Addr (Prcfrm)
                                                   JudgePassword (Prcfrm)
                                                   JudgePowerDnValue (Powmanger)
                                                   KeyPgm_DyOut (Key)
                                                   KeyScan (Key)
                                                   Ldc_DataProc (LoadCurve)
                                                   Ldc_Get1stRecord (LoadCurve)
                                                   Ldc_GetSeqRecord (LoadCurve)
                                                   Ldc_TimeAdd (LoadCurve)
                                                   Ldc_TimeCal (LoadCurve)
                                                   Ldc_TimeSub (LoadCurve)
                                                   Ldc_TmMinCal (LoadCurve)
                                                   Ldc_ZoneChk (LoadCurve)
                                                   LoadCurveCheck (LoadCurve)
                                                   MCUForPowerOff (McuDrive)
                                                   Mcu_BatCal (McuDrive)
                                                   MidFindID (DLT_645_2007)
                                                   MonthLYDL (Energy)
                                                   PMDspInit (EnergyBottom)
                                                   PowUpLedCtl (McuDrive)
                                                   Pow_DnProc (Powmanger)
                                                   PowerJL (Event)
                                                   ProJL (PrologFee)
                                                   PwBs_DyOut (Prcfrm)
                                                   RSDJLlog (PrologFee)
                                                   RWData (DLT_645_2007)
                                                   ReadAccuEgy (DLT_645_2007)
                                                   ReadCurEgy (DLT_645_2007)
                                                   ReadCurveJl (DLT_645_2007)
                                                   ReadEnyD0Block (DLT_645_2007)
                                                   ReadFlash (CmpCode)
                                                   ReadHisEgy (DLT_645_2007)
                                                   ReadHisJSTime (DLT_645_2007)
                                                   ReadJL (DLT_645_2007)
                                                   ReadRSDLogItem (PrologFee)
                                                   ReadSQLogItem (PrologFee)
                                                   ReadVar (DLT_645_2007)
                                                   ReadZHLYEgy (DLT_645_2007)
                                                   RecoverDayDjData (Dataproc)
                                                   RecoverEnegyData (Dataproc)
                                                   RecoverJSRData (Dataproc)
                                                   RecoverRtcPara (RtcCpt)
                                                   Report (DLT_645_2007)
                                                   Rpt_Crc (Report)
                                                   Rpt_Recover (Report)
                                                   Rpt_StaBitClr (Report)
                                                   Rpt_StaFlgClr (Report)
                                                   Rpt_StaSet (Report)
                                                   Rpt_UpdateSta (Report)
                                                   RtcParaFsToE2 (RtcCpt)
                                                   RwDjData (DLT_645_2007)
                                                   RwGGJR (DLT_645_2007)
                                                   RwLcdData (DLT_645_2007)
                                                   RwRamE2 (DLT_645_2007)
                                                   RwSqSd (DLT_645_2007)
                                                   RwSysTime (DLT_645_2007)
                                                   Search1stEqualItem (LoadCurve)
                                                   SearchDispNO (Lcdshow)
                                                   SearchEqualItem (LoadCurve)
                                                   SeekDataID (PrologFee)
                                                   SetRTCNormal (RtcCpt)
                                                   ShowDataProc (Lcdshow)
                                                   ShowNumManage (Lcdshow)
                                                   ShowSecondProc (Lcdshow)
                                                   ShowStateFlashManage (Lcdshow)
                                                   ShowStateManage (Lcdshow)
                                                   SleepTimeProc (Timeproc)
                                                   SoftClockCheck (Timeproc)
                                                   StructFreezeDate (Event)
                                                   SysE2ParaSetManage (DataProtect)
                                                   SysE2ReadData (DataProtect)
                                                   Uart2_Receive (Uart2)
                                                   Up_FunCfg (FunCfg)
                                                   ValidTime (Timeproc)
                                                   WrPassWord (DLT_645_2007)
                                                   WriteHisEP (Energy)
                                                   WriteMeterAddr (DLT_645_2007)
                                                   frexp (?frexp)
                                                   getFee (Multariff)
                                                   getTimeZone (Multariff)
                                                   sqrt (?sqrt)
           ?V4                     00000025        BCD2Hex (Api)
                                                   BD_ProcFrame (Prcfrm)
                                                   BE_ReadP (BEBottom)
                                                   BE_WriteP (BEBottom)
                                                   BroadcastTime (DLT_645_2007)
                                                   CalCBRCount (Api)
                                                   CalCos (EnergyBottom)
                                                   CalDayBack (Dataproc)
                                                   CalPowDwTm (Dataproc)
                                                   CalRDJCount (Api)
                                                   CalRMS (EnergyBottom)
                                                   CalRTC (RtcCpt)
                                                   CalcAbsSecond (Timeproc)
                                                   CalcAbsTime (Timeproc)
                                                   CalcTimeGap (Timeproc)
                                                   CalculateAC (EnergyBottom)
                                                   CalculateSC (EnergyBottom)
                                                   ChangePassWord (DLT_645_2007)
                                                   CheckSqFormat (DataProtect)
                                                   CmpCode (DLT_645_2007)
                                                   CodeEncrypt (CmpCode)
                                                   ComCheckFormat (DataProtect)
                                                   ComRWE2Para (DLT_645_2007)
                                                   ComRdEvCnt (DLT_645_2007)
                                                   ComReadRunCode (DLT_645_2007)
                                                   Com_ClearMeterJL (Event)
                                                   CoverCloseLog (Event)
                                                   CoverOpenLog (Event)
                                                   DataProcEvCountAdd (Dataproc)
                                                   DataProcRead2Slice (Dataproc)
                                                   DataProcWriteRound2 (Dataproc)
                                                   Decode645Frame (Prcfrm)
                                                   Disp_Numb (Lcdmiddle)
                                                   Disp_State (Lcdmiddle)
                                                   Disp_String (Lcdmiddle)
                                                   E2ParaCheck (DataProtect)
                                                   Encode645Frame (Prcfrm)
                                                   EnyB_AutoChkAngle (EnergyBottom)
                                                   EnyB_AutoChkIrms (EnergyBottom)
                                                   EnyB_AutoChkPW (EnergyBottom)
                                                   EnyB_AutoChkUrms (EnergyBottom)
                                                   EnyB_Check_OC (EnergyBottom)
                                                   EnyB_Check_PowRev (EnergyBottom)
                                                   EnyB_ReadMeterParaACK (EnergyBottom)
                                                   EnyB_SetMeterCfgACK (EnergyBottom)
                                                   Eny_EnergyActiveSave (Energy)
                                                   Eny_EnergyProc (Energy)
                                                   FactoryRD (DLT_645_2007)
                                                   FactoryWR (DLT_645_2007)
                                                   GetBat (McuDrive)
                                                   Hex2BCD (Api)
                                                   IsValidFrame (Prcfrm)
                                                   IsValidSQ (Multariff)
                                                   Judge645Addr (Prcfrm)
                                                   Judge645Frm (Prcfrm)
                                                   JudgePowerDnValue (Powmanger)
                                                   Ldc_DataProc (LoadCurve)
                                                   Ldc_Get1stRecord (LoadCurve)
                                                   Ldc_GetSeqRecord (LoadCurve)
                                                   Ldc_TimeAdd (LoadCurve)
                                                   Ldc_TimeCal (LoadCurve)
                                                   Ldc_TimeSub (LoadCurve)
                                                   Ldc_TmMinCal (LoadCurve)
                                                   Ldc_ZoneChk (LoadCurve)
                                                   LoadCurveCheck (LoadCurve)
                                                   Mcu_BatCal (McuDrive)
                                                   MonthLYDL (Energy)
                                                   RWData (DLT_645_2007)
                                                   ReadAccuEgy (DLT_645_2007)
                                                   ReadCurEgy (DLT_645_2007)
                                                   ReadCurveJl (DLT_645_2007)
                                                   ReadEnyD0Block (DLT_645_2007)
                                                   ReadFlash (CmpCode)
                                                   ReadHisEgy (DLT_645_2007)
                                                   ReadJL (DLT_645_2007)
                                                   ReadRSDLogItem (PrologFee)
                                                   ReadSQLogItem (PrologFee)
                                                   ReadVar (DLT_645_2007)
                                                   ReadZHLYEgy (DLT_645_2007)
                                                   RecoverDayDjData (Dataproc)
                                                   RecoverEnegyData (Dataproc)
                                                   RecoverJSRData (Dataproc)
                                                   Report (DLT_645_2007)
                                                   Rpt_StaSet (Report)
                                                   RwDjData (DLT_645_2007)
                                                   RwGGJR (DLT_645_2007)
                                                   RwLcdData (DLT_645_2007)
                                                   RwSqSd (DLT_645_2007)
                                                   RwSysTime (DLT_645_2007)
                                                   Search1stEqualItem (LoadCurve)
                                                   SearchEqualItem (LoadCurve)
                                                   SetRTCNormal (RtcCpt)
                                                   ShowNumManage (Lcdshow)
                                                   ShowStateManage (Lcdshow)
                                                   StructFreezeDate (Event)
                                                   SysE2ParaSetManage (DataProtect)
                                                   SysE2ReadData (DataProtect)
                                                   Up_FunCfg (FunCfg)
                                                   ValidTime (Timeproc)
                                                   frexp (?frexp)
                                                   getFee (Multariff)
                                                   sqrt (?sqrt)
           ?V5                     00000026        BCD2Hex (Api)
                                                   BD_ProcFrame (Prcfrm)
                                                   BE_ReadP (BEBottom)
                                                   BE_WriteP (BEBottom)
                                                   BroadcastTime (DLT_645_2007)
                                                   CalCBRCount (Api)
                                                   CalCos (EnergyBottom)
                                                   CalPowDwTm (Dataproc)
                                                   CalRDJCount (Api)
                                                   CalRMS (EnergyBottom)
                                                   CalRTC (RtcCpt)
                                                   CalcAbsSecond (Timeproc)
                                                   CalcAbsTime (Timeproc)
                                                   CalcTimeGap (Timeproc)
                                                   CalculateAC (EnergyBottom)
                                                   CalculateSC (EnergyBottom)
                                                   ChangePassWord (DLT_645_2007)
                                                   CheckSqFormat (DataProtect)
                                                   CmpCode (DLT_645_2007)
                                                   CodeEncrypt (CmpCode)
                                                   ComCheckFormat (DataProtect)
                                                   ComRWE2Para (DLT_645_2007)
                                                   ComRdEvCnt (DLT_645_2007)
                                                   ComReadRunCode (DLT_645_2007)
                                                   Com_ClearMeterJL (Event)
                                                   CoverCloseLog (Event)
                                                   CoverOpenLog (Event)
                                                   DataProcEvCountAdd (Dataproc)
                                                   DataProcRead2Slice (Dataproc)
                                                   DataProcWriteRound2 (Dataproc)
                                                   Decode645Frame (Prcfrm)
                                                   Disp_Numb (Lcdmiddle)
                                                   Disp_State (Lcdmiddle)
                                                   Disp_String (Lcdmiddle)
                                                   E2ParaCheck (DataProtect)
                                                   Encode645Frame (Prcfrm)
                                                   EnyB_AutoChkAngle (EnergyBottom)
                                                   EnyB_AutoChkIrms (EnergyBottom)
                                                   EnyB_AutoChkPW (EnergyBottom)
                                                   EnyB_AutoChkUrms (EnergyBottom)
                                                   EnyB_Check_OC (EnergyBottom)
                                                   EnyB_Check_PowRev (EnergyBottom)
                                                   EnyB_ReadMeterParaACK (EnergyBottom)
                                                   EnyB_SetMeterCfgACK (EnergyBottom)
                                                   Eny_EnergyActiveSave (Energy)
                                                   Eny_EnergyProc (Energy)
                                                   FactoryRD (DLT_645_2007)
                                                   FactoryWR (DLT_645_2007)
                                                   GetBat (McuDrive)
                                                   Hex2BCD (Api)
                                                   IsValidSQ (Multariff)
                                                   Judge645Addr (Prcfrm)
                                                   Judge645Frm (Prcfrm)
                                                   JudgePowerDnValue (Powmanger)
                                                   Ldc_DataProc (LoadCurve)
                                                   Ldc_Get1stRecord (LoadCurve)
                                                   Ldc_GetSeqRecord (LoadCurve)
                                                   Ldc_TimeAdd (LoadCurve)
                                                   Ldc_TimeCal (LoadCurve)
                                                   Ldc_TimeSub (LoadCurve)
                                                   Ldc_TmMinCal (LoadCurve)
                                                   Ldc_ZoneChk (LoadCurve)
                                                   LoadCurveCheck (LoadCurve)
                                                   Mcu_BatCal (McuDrive)
                                                   MonthLYDL (Energy)
                                                   RWData (DLT_645_2007)
                                                   ReadAccuEgy (DLT_645_2007)
                                                   ReadCurEgy (DLT_645_2007)
                                                   ReadCurveJl (DLT_645_2007)
                                                   ReadEnyD0Block (DLT_645_2007)
                                                   ReadFlash (CmpCode)
                                                   ReadHisEgy (DLT_645_2007)
                                                   ReadRSDLogItem (PrologFee)
                                                   ReadSQLogItem (PrologFee)
                                                   ReadVar (DLT_645_2007)
                                                   ReadZHLYEgy (DLT_645_2007)
                                                   RecoverDayDjData (Dataproc)
                                                   RecoverEnegyData (Dataproc)
                                                   RecoverJSRData (Dataproc)
                                                   Report (DLT_645_2007)
                                                   Rpt_StaSet (Report)
                                                   RwDjData (DLT_645_2007)
                                                   RwGGJR (DLT_645_2007)
                                                   RwLcdData (DLT_645_2007)
                                                   RwSqSd (DLT_645_2007)
                                                   RwSysTime (DLT_645_2007)
                                                   Search1stEqualItem (LoadCurve)
                                                   SearchEqualItem (LoadCurve)
                                                   SetRTCNormal (RtcCpt)
                                                   ShowStateManage (Lcdshow)
                                                   StructFreezeDate (Event)
                                                   SysE2ParaSetManage (DataProtect)
                                                   SysE2ReadData (DataProtect)
                                                   Up_FunCfg (FunCfg)
                                                   ValidTime (Timeproc)
                                                   frexp (?frexp)
                                                   getFee (Multariff)
                                                   sqrt (?sqrt)
           ?V6                     00000027        BCD2Hex (Api)
                                                   BD_ProcFrame (Prcfrm)
                                                   BE_ReadP (BEBottom)
                                                   BE_WriteP (BEBottom)
                                                   BroadcastTime (DLT_645_2007)
                                                   CalCBRCount (Api)
                                                   CalCos (EnergyBottom)
                                                   CalPowDwTm (Dataproc)
                                                   CalRDJCount (Api)
                                                   CalRMS (EnergyBottom)
                                                   CalRTC (RtcCpt)
                                                   CalcAbsSecond (Timeproc)
                                                   CalcAbsTime (Timeproc)
                                                   CalcTimeGap (Timeproc)
                                                   CalculateAC (EnergyBottom)
                                                   CalculateSC (EnergyBottom)
                                                   ChangePassWord (DLT_645_2007)
                                                   CheckSqFormat (DataProtect)
                                                   CmpCode (DLT_645_2007)
                                                   CodeEncrypt (CmpCode)
                                                   ComCheckFormat (DataProtect)
                                                   ComRWE2Para (DLT_645_2007)
                                                   ComReadRunCode (DLT_645_2007)
                                                   Com_ClearMeterJL (Event)
                                                   CoverCloseLog (Event)
                                                   CoverOpenLog (Event)
                                                   DataProcEvCountAdd (Dataproc)
                                                   DataProcRead2Slice (Dataproc)
                                                   DataProcWriteRound2 (Dataproc)
                                                   Decode645Frame (Prcfrm)
                                                   Disp_Numb (Lcdmiddle)
                                                   E2ParaCheck (DataProtect)
                                                   Encode645Frame (Prcfrm)
                                                   EnyB_AutoChkAngle (EnergyBottom)
                                                   EnyB_AutoChkIrms (EnergyBottom)
                                                   EnyB_AutoChkPW (EnergyBottom)
                                                   EnyB_AutoChkUrms (EnergyBottom)
                                                   EnyB_Check_OC (EnergyBottom)
                                                   EnyB_Check_PowRev (EnergyBottom)
                                                   EnyB_ReadMeterParaACK (EnergyBottom)
                                                   EnyB_SetMeterCfgACK (EnergyBottom)
                                                   Eny_EnergyActiveSave (Energy)
                                                   FactoryRD (DLT_645_2007)
                                                   FactoryWR (DLT_645_2007)
                                                   GetBat (McuDrive)
                                                   Hex2BCD (Api)
                                                   IsValidSQ (Multariff)
                                                   JudgePowerDnValue (Powmanger)
                                                   Ldc_DataProc (LoadCurve)
                                                   Ldc_Get1stRecord (LoadCurve)
                                                   Ldc_TimeAdd (LoadCurve)
                                                   Ldc_TimeCal (LoadCurve)
                                                   Ldc_TimeSub (LoadCurve)
                                                   Ldc_TmMinCal (LoadCurve)
                                                   Ldc_ZoneChk (LoadCurve)
                                                   LoadCurveCheck (LoadCurve)
                                                   Mcu_BatCal (McuDrive)
                                                   MonthLYDL (Energy)
                                                   RWData (DLT_645_2007)
                                                   ReadAccuEgy (DLT_645_2007)
                                                   ReadCurEgy (DLT_645_2007)
                                                   ReadCurveJl (DLT_645_2007)
                                                   ReadEnyD0Block (DLT_645_2007)
                                                   ReadHisEgy (DLT_645_2007)
                                                   ReadJL (DLT_645_2007)
                                                   ReadRSDLogItem (PrologFee)
                                                   ReadSQLogItem (PrologFee)
                                                   ReadVar (DLT_645_2007)
                                                   ReadZHLYEgy (DLT_645_2007)
                                                   RecoverDayDjData (Dataproc)
                                                   RecoverEnegyData (Dataproc)
                                                   RecoverJSRData (Dataproc)
                                                   Report (DLT_645_2007)
                                                   Rpt_StaSet (Report)
                                                   RwDjData (DLT_645_2007)
                                                   RwGGJR (DLT_645_2007)
                                                   RwSqSd (DLT_645_2007)
                                                   Search1stEqualItem (LoadCurve)
                                                   SearchEqualItem (LoadCurve)
                                                   SetRTCNormal (RtcCpt)
                                                   ShowStateManage (Lcdshow)
                                                   StructFreezeDate (Event)
                                                   SysE2ParaSetManage (DataProtect)
                                                   SysE2ReadData (DataProtect)
                                                   frexp (?frexp)
                                                   getFee (Multariff)
                                                   sqrt (?sqrt)
           ?V7                     00000028        BCD2Hex (Api)
                                                   BD_ProcFrame (Prcfrm)
                                                   BE_ReadP (BEBottom)
                                                   BE_WriteP (BEBottom)
                                                   BroadcastTime (DLT_645_2007)
                                                   CalCBRCount (Api)
                                                   CalCos (EnergyBottom)
                                                   CalPowDwTm (Dataproc)
                                                   CalRDJCount (Api)
                                                   CalRMS (EnergyBottom)
                                                   CalRTC (RtcCpt)
                                                   CalcAbsSecond (Timeproc)
                                                   CalcAbsTime (Timeproc)
                                                   CalcTimeGap (Timeproc)
                                                   CalculateAC (EnergyBottom)
                                                   CalculateSC (EnergyBottom)
                                                   ChangePassWord (DLT_645_2007)
                                                   CheckSqFormat (DataProtect)
                                                   CmpCode (DLT_645_2007)
                                                   ComCheckFormat (DataProtect)
                                                   ComRWE2Para (DLT_645_2007)
                                                   ComReadRunCode (DLT_645_2007)
                                                   Com_ClearMeterJL (Event)
                                                   CoverCloseLog (Event)
                                                   CoverOpenLog (Event)
                                                   DataProcEvCountAdd (Dataproc)
                                                   DataProcRead2Slice (Dataproc)
                                                   DataProcWriteRound2 (Dataproc)
                                                   Decode645Frame (Prcfrm)
                                                   Disp_Numb (Lcdmiddle)
                                                   E2ParaCheck (DataProtect)
                                                   Encode645Frame (Prcfrm)
                                                   EnyB_AutoChkAngle (EnergyBottom)
                                                   EnyB_AutoChkIrms (EnergyBottom)
                                                   EnyB_AutoChkPW (EnergyBottom)
                                                   EnyB_AutoChkUrms (EnergyBottom)
                                                   EnyB_Check_OC (EnergyBottom)
                                                   EnyB_Check_PowRev (EnergyBottom)
                                                   EnyB_ReadMeterParaACK (EnergyBottom)
                                                   EnyB_SetMeterCfgACK (EnergyBottom)
                                                   Eny_EnergyActiveSave (Energy)
                                                   FactoryRD (DLT_645_2007)
                                                   FactoryWR (DLT_645_2007)
                                                   GetBat (McuDrive)
                                                   Hex2BCD (Api)
                                                   IsValidSQ (Multariff)
                                                   JudgePowerDnValue (Powmanger)
                                                   Ldc_DataProc (LoadCurve)
                                                   Ldc_Get1stRecord (LoadCurve)
                                                   Ldc_TimeAdd (LoadCurve)
                                                   Ldc_TimeCal (LoadCurve)
                                                   Ldc_TimeSub (LoadCurve)
                                                   Ldc_TmMinCal (LoadCurve)
                                                   Ldc_ZoneChk (LoadCurve)
                                                   LoadCurveCheck (LoadCurve)
                                                   Mcu_BatCal (McuDrive)
                                                   MonthLYDL (Energy)
                                                   RWData (DLT_645_2007)
                                                   ReadAccuEgy (DLT_645_2007)
                                                   ReadCurEgy (DLT_645_2007)
                                                   ReadCurveJl (DLT_645_2007)
                                                   ReadEnyD0Block (DLT_645_2007)
                                                   ReadHisEgy (DLT_645_2007)
                                                   ReadJL (DLT_645_2007)
                                                   ReadRSDLogItem (PrologFee)
                                                   ReadSQLogItem (PrologFee)
                                                   ReadVar (DLT_645_2007)
                                                   ReadZHLYEgy (DLT_645_2007)
                                                   RecoverDayDjData (Dataproc)
                                                   RecoverEnegyData (Dataproc)
                                                   RecoverJSRData (Dataproc)
                                                   Report (DLT_645_2007)
                                                   Rpt_StaSet (Report)
                                                   RwDjData (DLT_645_2007)
                                                   RwGGJR (DLT_645_2007)
                                                   RwSqSd (DLT_645_2007)
                                                   Search1stEqualItem (LoadCurve)
                                                   SearchEqualItem (LoadCurve)
                                                   SetRTCNormal (RtcCpt)
                                                   ShowStateManage (Lcdshow)
                                                   StructFreezeDate (Event)
                                                   SysE2ParaSetManage (DataProtect)
                                                   frexp (?frexp)
                                                   getFee (Multariff)
                                                   sqrt (?sqrt)
    -------------------------------------------------------------------------
XSP
  Relative segment, address: DATA 00000031 - 00000032 (0x2 bytes), align: 0
  Segment part 27.
           ENTRY                   ADDRESS         REF BY
           =====                   =======         ======
           ?XSP                    00000031        ?ADD_XSTACK_DISP0_8 (?ADD_XSTACK_DISP8)
                                                   ?ALLOC_XSTACK8 (?ALLOC_XSTACK8)
                                                   ?BANKED_ENTER_XDATA (?BANKED_ENTER_XDATA)
                                                   ?BANKED_LEAVE_XDATA (?BANKED_LEAVE_XDATA)
                                                   ?DEALLOC_XSTACK8 (?DEALLOC_XSTACK8)
                                                   ?PUSH_XSTACK8_X (?PUSH_XSTACK8_X)
                                                   ?RESET_XSP (CSTARTUP)
                                                   ?XSTACK_DISP0_8 (?XSTACK_DISP8)
                                                   ?XSTACK_DISP100_8 (?XSTACK_DISP8_RP)
                                                   ?XSTACK_DISP101_8 (?XSTACK_DISP8_RP)
                                                   ?XSTACK_DISP102_8 (?XSTACK_DISP8_RP)
                                                   BCD2Hex (Api)
                                                   BD_ProcFrame (Prcfrm)
                                                   BE_ReadP (BEBottom)
                                                   BroadcastTime (DLT_645_2007)
                                                   CalCBRCount (Api)
                                                   CalCos (EnergyBottom)
                                                   CalRDJCount (Api)
                                                   CalRMS (EnergyBottom)
                                                   CalRTC (RtcCpt)
                                                   ChangeBode (DLT_645_2007)
                                                   ChangeBodeProc (McuDrive)
                                                   CheckCRCWord (Dataproc)
                                                   ClearEvent (DLT_645_2007)
                                                   CmpCode (DLT_645_2007)
                                                   ComCheckFormat (DataProtect)
                                                   ComMeterConst (DLT_645_2007)
                                                   ComRWE2Para (DLT_645_2007)
                                                   ComRdEvCnt (DLT_645_2007)
                                                   Com_ClearMeterJL (Event)
                                                   Com_JSJL (Event)
                                                   CoverCloseLog (Event)
                                                   CoverOpenLog (Event)
                                                   DataProcEvCountAdd (Dataproc)
                                                   DataProcRead2Slice (Dataproc)
                                                   DataProcWriteRound2 (Dataproc)
                                                   Data_FactoryClr (Dataproc)
                                                   Disp_Numb (Lcdmiddle)
                                                   E2ParaCheck (DataProtect)
                                                   EnergyCBRManage (Energy)
                                                   EnyB_AutoChkAngle (EnergyBottom)
                                                   EnyB_AutoChkIrms (EnergyBottom)
                                                   EnyB_AutoChkPW (EnergyBottom)
                                                   EnyB_AutoChkUrms (EnergyBottom)
                                                   Eny_EnergyActiveSave (Energy)
                                                   Eny_JbPm_GetE2 (Energy)
                                                   Eny_PurCheckRAMEny (Energy)
                                                   Eny_RefVar (Energy)
                                                   FactoryWR (DLT_645_2007)
                                                   GetBat (McuDrive)
                                                   GetExtRTC (McuDrive)
                                                   Hex2BCD (Api)
                                                   IntBCD2Hex (Api)
                                                   IrShowLcd (DLT_645_2007)
                                                   IsJR (Multariff)
                                                   IsNumSD (Multariff)
                                                   IsNumSQ (Multariff)
                                                   IsValidSQ (Multariff)
                                                   IsZXR (Multariff)
                                                   JudgePassword (Prcfrm)
                                                   Ldc_DataProc (LoadCurve)
                                                   Ldc_Get1stRecord (LoadCurve)
                                                   Ldc_TimeAdd (LoadCurve)
                                                   Ldc_TimeSub (LoadCurve)
                                                   Ldc_TmMinCal (LoadCurve)
                                                   Ldc_ZoneChk (LoadCurve)
                                                   LoadCurveCheck (LoadCurve)
                                                   Mcu_BatCal (McuDrive)
                                                   MonthLYDL (Energy)
                                                   Pow_DnProc (Powmanger)
                                                   ProJL (PrologFee)
                                                   RSDJLlog (PrologFee)
                                                   RWData (DLT_645_2007)
                                                   ReadAccuEgy (DLT_645_2007)
                                                   ReadCurEgy (DLT_645_2007)
                                                   ReadCurveJl (DLT_645_2007)
                                                   ReadEnyD0Block (DLT_645_2007)
                                                   ReadFlash (CmpCode)
                                                   ReadHisEgy (DLT_645_2007)
                                                   ReadHisJSTime (DLT_645_2007)
                                                   ReadJL (DLT_645_2007)
                                                   ReadRSDLogItem (PrologFee)
                                                   ReadSQLogItem (PrologFee)
                                                   ReadVar (DLT_645_2007)
                                                   ReadZHLYEgy (DLT_645_2007)
                                                   RecoverDayDjData (Dataproc)
                                                   RecoverEnegyData (Dataproc)
                                                   RecoverJSRData (Dataproc)
                                                   RecoverRtcPara (RtcCpt)
                                                   Report (DLT_645_2007)
                                                   Rpt_Clr (Report)
                                                   RtcParaFsToE2 (RtcCpt)
                                                   RwDjData (DLT_645_2007)
                                                   RwLcdData (DLT_645_2007)
                                                   RwRamE2 (DLT_645_2007)
                                                   RwSqSd (DLT_645_2007)
                                                   RwSysTime (DLT_645_2007)
                                                   SaveJSTime (Energy)
                                                   Search1stEqualItem (LoadCurve)
                                                   SearchEqualItem (LoadCurve)
                                                   SetCRCWord (Dataproc)
                                                   SetRTCNormal (RtcCpt)
                                                   ShowDataProc (Lcdshow)
                                                   ShowNumManage (Lcdshow)
                                                   StructFreezeDate (Event)
                                                   SysE2ParaSetManage (DataProtect)
                                                   SysE2ReadData (DataProtect)
                                                   Uint8_To_Uint32 (Api)
                                                   WriLastDJTime (Dataproc)
                                                   getFee (Multariff)
                                                   getTimeZone (Multariff)
                                                   sqrt (?sqrt)

    *************************************************************************

  FILE NAME : E:\IAR for 8051 8303\8051\LIB\CLIB\cl-pli-blxc-1e16x01.r51
  LIBRARY MODULE, NAME : ?cmain

  SEGMENTS IN THE MODULE
  ======================
CSTART
  Relative segment, address: CODE 000000D1 - 000000DE (0xe bytes), align: 0
  Segment part 12.
           ENTRY                   ADDRESS         REF BY
           =====                   =======         ======
           __INIT_IDATA_Z          000000D1        gs_KeyCtr (Key)
    -------------------------------------------------------------------------
CSTART
  Relative segment, address: CODE 000000DF - 000000EE (0x10 bytes), align: 0
  Segment part 16.
           ENTRY                   ADDRESS         REF BY
           =====                   =======         ======
           __INIT_XDATA_Z          000000DF        RsdJLIndex (PrologFee)
                                                   SQJLIndex (PrologFee)
                                                   XDATA_RAMZONE (Dataproc)
                                                   XDATA_RAMZONE1 (Dataproc)
                                                   errno (?errno)
                                                   gi_BatCal (McuDrive)
                                                   gi_Temprature (RtcCpt)
                                                   gs_ClkTmp (Timeproc)
                                                   gs_ComGroup (ComBottom)
                                                   gs_DateTime (Timeproc)
                                                   gs_DispCont (Lcdshow)
                                                   gs_DispStt (Lcdshow)
                                                   gs_Energy (Energy)
                                                   gs_EnergyA (Energy)
                                                   gs_EnergyData (Energy)
                                                   gs_EnergyData_bak (Energy)
                                                   gs_FREventOut (Dataproc)
                                                   gs_FeeData (Multariff)
                                                   gs_FunCfg (FunCfg)
                                                   gs_GiantSCP (EnergyBottom)
                                                   gs_JbPm (EnergyBottom)
                                                   gs_LastDateTime (Timeproc)
                                                   gs_LcdDisp (Lcdshow)
                                                   gs_LdcFrame (LoadCurve)
                                                   gs_LdcPos (LoadCurve)
                                                   gs_LdcSet (LoadCurve)
                                                   gs_MeterMode (Dataproc)
                                                   gs_MeterState (Dataproc)
                                                   gs_PDirCnt (EnergyBottom)
                                                   gs_PDirCtr (EnergyBottom)
                                                   gs_PassWordCtr (Prcfrm)
                                                   gs_PowDn (EnergyBottom)
                                                   gs_PowerCf (EnergyBottom)
                                                   gs_ReportState (Report)
                                                   gs_ReportStateFlg (Report)
                                                   gs_ReportWord (Report)
                                                   gs_RptCnt (Report)
                                                   gs_RptStaB (Report)
                                                   gs_SysRunSt (Dataproc)
                                                   gs_powerErr (Powmanger)
                                                   guc_485Bode (ComBottom)
                                                   guc_BodeDely (ComBottom)
                                                   guc_CfOpenFlg (EnergyBottom)
                                                   guc_CheckBatFlg (RtcCpt)
                                                   guc_ChkPowDn (Powmanger)
                                                   guc_ClearType (Event)
                                                   guc_ClearWd (Dataproc)
                                                   guc_ClockErr (Timeproc)
                                                   guc_ComSendDy (ComBottom)
                                                   guc_CoverKeyDwCnt (Key)
                                                   guc_CoverKeyUpCnt (Key)
                                                   guc_CoverStatus (Key)
                                                   guc_DayType (Multariff)
                                                   guc_DjCheckFlg (main)
                                                   guc_DyBgLed (Key)
                                                   guc_DyUart1Over (Uart1)
                                                   guc_DyUart2Over (Uart2)
                                                   guc_DyUart4Over (Uart4)
                                                   guc_EPCalcType (Energy)
                                                   guc_ExtRtcErrCnt (Timeproc)
                                                   guc_FactoryType (Prcfrm)
                                                   guc_FrsCalRTCDelay (RtcCpt)
                                                   guc_GateCF (Energy)
                                                   guc_GiantSCPflag (EnergyBottom)
                                                   guc_InitWd (Dataproc)
                                                   guc_IrShowLcdId (Lcdshow)
                                                   guc_KeyEvent (main)
                                                   guc_LCDRAM (LcdBottom)
                                                   guc_MeteAddr (Prcfrm)
                                                   guc_OpenCfTmCnt (EnergyBottom)
                                                   guc_PluseCount (McuDrive)
                                                   guc_PowOffRuning (main)
                                                   guc_PowerOffTmCnt (EnergyBottom)
                                                   guc_PrKeyNewDown (Key)
                                                   guc_PrOutTm (Key)
                                                   guc_Pulse (Multariff)
                                                   guc_RTCSave (InitPara)
                                                   guc_RptClrCnt (Report)
                                                   guc_RtcConflict (DataProtect)
                                                   guc_SdNum (Multariff)
                                                   guc_SecCnt (main)
                                                   guc_ShowEnergyFlag (Lcdshow)
                                                   guc_ShowStCom (Lcdshow)
                                                   guc_TimeEvent (main)
                                                   guc_Timechange (LoadCurve)
                                                   guc_UnitCF (Energy)
                                                   guc_wdtCnt (main)
                                                   guc_wdtFlg (main)
                                                   gui_DyPgmOut (Key)
                                                   gui_DyProDmOut (Key)
                                                   gui_Kpara (RtcCpt)
                                                   gui_RefreshEvent (main)
                                                   gui_ReportCRC (Report)
                                                   gui_SystemEvent (main)
                                                   gui_SystemSleepState (main)
                                                   gui_SystemState (main)
                                                   gul_CellVoltage (RtcCpt)
                                                   gul_E2ParaStt (DataProtect)
                                                   gul_PowerTm (Dataproc)
                                                   gul_ShowId (Lcdshow)
                                                   gul_ShowState (Lcdshow)
                                                   gut_SysWarn (Dataproc)
                                                   guw_UseCode (DLT_645_2007)
                                                   uc_BeRdData (BEBottom)
                                                   uc_BeWrData (BEBottom)

    -------------------------------------------------------------------------
  LIBRARY MODULE, NAME : ?errno

  SEGMENTS IN THE MODULE
  ======================
XDATA_Z
  Relative segment, address: XDATA 00000A21 - 00000A22 (0x2 bytes), align: 0
  Segment part 6.
           ENTRY                   ADDRESS         REF BY
           =====                   =======         ======
           errno                   00000A21        sqrt (?sqrt)

    -------------------------------------------------------------------------
  LIBRARY MODULE, NAME : ?frexp

  SEGMENTS IN THE MODULE
  ======================
<BANKED_CODE> 2 (was BANKED_CODE)
  Relative segment, address: CODE 0000FF95 - 0000FFF5 (0x61 bytes), align: 0
  Segment part 7.             Intra module refs:   frexp::?relay
           ENTRY                   ADDRESS         REF BY
           =====                   =======         ======
           frexp                   0000FF95 
               is not allocated
               not allocated function
    -------------------------------------------------------------------------
BANK_RELAYS
  Relative segment, address: CODE 00001522 - 00001527 (0x6 bytes), align: 0
  Segment part 8.
           ENTRY                   ADDRESS         REF BY
           =====                   =======         ======
           frexp::?relay           00001522        sqrt (?sqrt)

    -------------------------------------------------------------------------
  LIBRARY MODULE, NAME : ?SC_DIV_MOD

  SEGMENTS IN THE MODULE
  ======================
RCODE
  Relative segment, address: CODE 0000152E - 0000154F (0x22 bytes), align: 0
  Segment part 0.
           ENTRY                   ADDRESS         REF BY
           =====                   =======         ======
           ?SC_DIV_MOD             0000152E        sqrt (?sqrt)

    -------------------------------------------------------------------------
  LIBRARY MODULE, NAME : ?L_EQ

  SEGMENTS IN THE MODULE
  ======================
RCODE
  Relative segment, address: CODE 00001550 - 00001564 (0x15 bytes), align: 0
  Segment part 1.
           ENTRY                   ADDRESS         REF BY
           =====                   =======         ======
           ?L_EQ                   00001550        Ldc_TimeCal (LoadCurve)

    -------------------------------------------------------------------------
  LIBRARY MODULE, NAME : ?L_EQ_X

  SEGMENTS IN THE MODULE
  ======================
RCODE
  Relative segment, address: CODE 00001565 - 00001579 (0x15 bytes), align: 0
  Segment part 1.
           ENTRY                   ADDRESS         REF BY
           =====                   =======         ======
           ?L_EQ_X                 00001565        ChangePassWord (DLT_645_2007)
                                                   ClearEvent (DLT_645_2007)
                                                   ComRWE2Para (DLT_645_2007)
                                                   Decode645Frame (Prcfrm)
                                                   Encode645Frame (Prcfrm)
                                                   FactoryRD (DLT_645_2007)
                                                   FactoryWR (DLT_645_2007)
                                                   IrShowLcd (DLT_645_2007)
                                                   MidFindID (DLT_645_2007)
                                                   Report (DLT_645_2007)

    -------------------------------------------------------------------------
  LIBRARY MODULE, NAME : ?L_EQ_C

  SEGMENTS IN THE MODULE
  ======================
RCODE
  Relative segment, address: CODE 0000157A - 00001592 (0x19 bytes), align: 0
  Segment part 1.
           ENTRY                   ADDRESS         REF BY
           =====                   =======         ======
           ?L_EQ_C                 0000157A        CmpCode (DLT_645_2007)
                                                   ComRWE2Para (DLT_645_2007)
                                                   FactoryRD (DLT_645_2007)
                                                   FactoryWR (DLT_645_2007)
                                                   MidFindID (DLT_645_2007)
                                                   RWData (DLT_645_2007)
                                                   ReadJL (DLT_645_2007)
                                                   RwSysTime (DLT_645_2007)
                                                   SearchDispNO (Lcdshow)

    -------------------------------------------------------------------------
  LIBRARY MODULE, NAME : ?SL_GE_C

  SEGMENTS IN THE MODULE
  ======================
RCODE
  Relative segment, address: CODE 00001593 - 000015BC (0x2a bytes), align: 0
  Segment part 1.
           ENTRY                   ADDRESS         REF BY
           =====                   =======         ======
           ?SL_GE_C                00001593        CalcTimeGap (Timeproc)
                                                   EnyB_Check_PowRev (EnergyBottom)

    -------------------------------------------------------------------------
  LIBRARY MODULE, NAME : ?UL_GT

  SEGMENTS IN THE MODULE
  ======================
RCODE
  Relative segment, address: CODE 000015BD - 000015CC (0x10 bytes), align: 0
  Segment part 1.
           ENTRY                   ADDRESS         REF BY
           =====                   =======         ======
           ?UL_GT                  000015BD        CalPowDwTm (Dataproc)
                                                   EnyB_Check_OC (EnergyBottom)
                                                   Ldc_TimeSub (LoadCurve)

    -------------------------------------------------------------------------
  LIBRARY MODULE, NAME : ?UL_GT_X

  SEGMENTS IN THE MODULE
  ======================
RCODE
  Relative segment, address: CODE 000015CD - 000015DC (0x10 bytes), align: 0
  Segment part 1.
           ENTRY                   ADDRESS         REF BY
           =====                   =======         ======
           ?UL_GT_X                000015CD        CalCos (EnergyBottom)
                                                   CalRMS (EnergyBottom)
                                                   CmpCode (DLT_645_2007)
                                                   EnyB_Check_PowRev (EnergyBottom)
                                                   GetBat (McuDrive)
                                                   Hex2BCD (Api)
                                                   Ldc_TimeAdd (LoadCurve)
                                                   Ldc_ZoneChk (LoadCurve)
                                                   LoadCurveCheck (LoadCurve)
                                                   MidFindID (DLT_645_2007)
                                                   ReadAccuEgy (DLT_645_2007)
                                                   ReadCurEgy (DLT_645_2007)
                                                   ReadEnyD0Block (DLT_645_2007)
                                                   ReadFlash (CmpCode)
                                                   ReadHisEgy (DLT_645_2007)
                                                   ReadJL (DLT_645_2007)
                                                   ReadRSDLogItem (PrologFee)
                                                   ReadSQLogItem (PrologFee)
                                                   ReadZHLYEgy (DLT_645_2007)
                                                   RwDjData (DLT_645_2007)
                                                   SearchEqualItem (LoadCurve)

    -------------------------------------------------------------------------
  LIBRARY MODULE, NAME : ?UL_GE_X

  SEGMENTS IN THE MODULE
  ======================
RCODE
  Relative segment, address: CODE 000015DD - 000015FB (0x1f bytes), align: 0
  Segment part 1.
           ENTRY                   ADDRESS         REF BY
           =====                   =======         ======
           ?UL_GE_X                000015DD        Ldc_TimeAdd (LoadCurve)
                                                   MidFindID (DLT_645_2007)

    -------------------------------------------------------------------------
  LIBRARY MODULE, NAME : ?UL_GE_C

  SEGMENTS IN THE MODULE
  ======================
RCODE
  Relative segment, address: CODE 000015FC - 0000161E (0x23 bytes), align: 0
  Segment part 1.
           ENTRY                   ADDRESS         REF BY
           =====                   =======         ======
           ?UL_GE_C                000015FC        BgCtrFun (McuDrive)
                                                   BroadcastTime (DLT_645_2007)
                                                   CalCos (EnergyBottom)
                                                   CalRMS (EnergyBottom)
                                                   CheckTime (Timeproc)
                                                   IrShowLcd (DLT_645_2007)
                                                   JudgePowerDnValue (Powmanger)
                                                   KeyScan (Key)
                                                   Ldc_TimeCal (LoadCurve)
                                                   PowUpLedCtl (McuDrive)
                                                   ReadFlash (CmpCode)
                                                   SearchEqualItem (LoadCurve)
                                                   Uart2_Receive (Uart2)

    -------------------------------------------------------------------------
  LIBRARY MODULE, NAME : ?L_TO_FLT

  SEGMENTS IN THE MODULE
  ======================
RCODE
  Relative segment, address: CODE 0000161F - 00001621 (0x3 bytes), align: 0
  Segment part 0.
           ENTRY                   ADDRESS         REF BY
           =====                   =======         ======
           ?L_TO_FLT               0000161F        CalRTC (RtcCpt)
    -------------------------------------------------------------------------
RCODE
  Relative segment, address: CODE 00001622 - 00001636 (0x15 bytes), align: 0
  Segment part 1.             Intra module refs:   ?L_TO_FLT
           ENTRY                   ADDRESS         REF BY
           =====                   =======         ======
           ?L_TO_FLT_REW           00001622 
    -------------------------------------------------------------------------
RCODE
  Relative segment, address: CODE 00001637 - 00001639 (0x3 bytes), align: 0
  Segment part 2.             Intra module refs:   ?L_TO_FLT_REW
           ENTRY                   ADDRESS         REF BY
           =====                   =======         ======
           ?UL_TO_FLT_REW          00001637 
    -------------------------------------------------------------------------
RCODE
  Relative segment, address: CODE 0000163A - 00001696 (0x5d bytes), align: 0
  Segment part 3.             Intra module refs:   ?L_TO_FLT_REW
                                                   ?UL_TO_FLT_REW
           ENTRY                   ADDRESS         REF BY
           =====                   =======         ======
           ?UL_TO_FLT              0000163A        CalRTC (RtcCpt)

    -------------------------------------------------------------------------
  LIBRARY MODULE, NAME : ?FLT_TO_L

  SEGMENTS IN THE MODULE
  ======================
RCODE
  Relative segment, address: CODE 00001697 - 000016CA (0x34 bytes), align: 0
  Segment part 5.
           ENTRY                   ADDRESS         REF BY
           =====                   =======         ======
           ?FLT_TO_L               00001697        CalRTC (RtcCpt)
    -------------------------------------------------------------------------
RCODE
  Relative segment, address: CODE 000016CB - 000016D6 (0xc bytes), align: 0
  Segment part 6.             Intra module refs:   ?FLT_TO_L
    -------------------------------------------------------------------------
RCODE
  Relative segment, address: CODE 000016D7 - 00001725 (0x4f bytes), align: 0
  Segment part 7.             Intra module refs:   ?FLT_TO_L

    -------------------------------------------------------------------------
  LIBRARY MODULE, NAME : ?FLT_TEST_ZERO

  SEGMENTS IN THE MODULE
  ======================
RCODE
  Relative segment, address: CODE 00001726 - 0000172E (0x9 bytes), align: 0
  Segment part 1.
           ENTRY                   ADDRESS         REF BY
           =====                   =======         ======
           ?FLT_TEST_ZERO_REW      00001726        ?FLT_ADD (?FLT_ADD)
                                                   ?FLT_DIV (?FLT_DIV)
                                                   ?FLT_EQ (?FLT_EQ)
                                                   ?FLT_GE (?FLT_GE)
                                                   ?FLT_LT (?FLT_LT)
                                                   ?FLT_MUL (?FLT_MUL)

    -------------------------------------------------------------------------
  LIBRARY MODULE, NAME : ?FLT_TEST_ZERO_R1

  SEGMENTS IN THE MODULE
  ======================
RCODE
  Relative segment, address: CODE 0000172F - 00001737 (0x9 bytes), align: 0
  Segment part 1.
           ENTRY                   ADDRESS         REF BY
           =====                   =======         ======
           ?FLT_TEST_ZERO_R1_REW   0000172F        ?FLT_ADD (?FLT_ADD)
                                                   ?FLT_DIV (?FLT_DIV)
                                                   ?FLT_EQ (?FLT_EQ)
                                                   ?FLT_GE (?FLT_GE)
                                                   ?FLT_LT (?FLT_LT)
                                                   ?FLT_MUL (?FLT_MUL)

    -------------------------------------------------------------------------
  LIBRARY MODULE, NAME : ?FLT_TEST_INF

  SEGMENTS IN THE MODULE
  ======================
RCODE
  Relative segment, address: CODE 00001738 - 0000173A (0x3 bytes), align: 0
  Segment part 0.
           ENTRY                   ADDRESS         REF BY
           =====                   =======         ======
           ?FLT_TEST_INF_REW       00001738        ?FLT_ADD (?FLT_ADD)
                                                   ?FLT_MUL (?FLT_MUL)
    -------------------------------------------------------------------------
RCODE
  Relative segment, address: CODE 0000173B - 0000174B (0x11 bytes), align: 0
  Segment part 1.             Intra module refs:   ?FLT_TEST_INF_REW
           ENTRY                   ADDRESS         REF BY
           =====                   =======         ======
           ?FLT_TEST_INF           0000173B        ?FLT_DIV (?FLT_DIV)

    -------------------------------------------------------------------------
  LIBRARY MODULE, NAME : ?FLT_TEST_INF_R1

  SEGMENTS IN THE MODULE
  ======================
RCODE
  Relative segment, address: CODE 0000174C - 0000174E (0x3 bytes), align: 0
  Segment part 0.
           ENTRY                   ADDRESS         REF BY
           =====                   =======         ======
           ?FLT_TEST_INF_R1_REW    0000174C        ?FLT_ADD (?FLT_ADD)
                                                   ?FLT_MUL (?FLT_MUL)
    -------------------------------------------------------------------------
RCODE
  Relative segment, address: CODE 0000174F - 0000175F (0x11 bytes), align: 0
  Segment part 1.             Intra module refs:   ?FLT_TEST_INF_R1_REW
           ENTRY                   ADDRESS         REF BY
           =====                   =======         ======
           ?FLT_TEST_INF_R1        0000174F        ?FLT_DIV (?FLT_DIV)

    -------------------------------------------------------------------------
  LIBRARY MODULE, NAME : ?FLT_TEST_NAN

  SEGMENTS IN THE MODULE
  ======================
RCODE
  Relative segment, address: CODE 00001760 - 0000176E (0xf bytes), align: 0
  Segment part 1.
           ENTRY                   ADDRESS         REF BY
           =====                   =======         ======
           ?FLT_TEST_NAN           00001760        ?FLT_ADD (?FLT_ADD)
                                                   ?FLT_DIV (?FLT_DIV)
                                                   ?FLT_EQ (?FLT_EQ)
                                                   ?FLT_GE (?FLT_GE)
                                                   ?FLT_LT (?FLT_LT)
                                                   ?FLT_MUL (?FLT_MUL)
                                                   ?FLT_SUB (?FLT_ADD)

    -------------------------------------------------------------------------
  LIBRARY MODULE, NAME : ?FLT_TEST_NAN_R1

  SEGMENTS IN THE MODULE
  ======================
RCODE
  Relative segment, address: CODE 0000176F - 0000177D (0xf bytes), align: 0
  Segment part 1.
           ENTRY                   ADDRESS         REF BY
           =====                   =======         ======
           ?FLT_TEST_NAN_R1        0000176F        ?FLT_ADD (?FLT_ADD)
                                                   ?FLT_DIV (?FLT_DIV)
                                                   ?FLT_EQ (?FLT_EQ)
                                                   ?FLT_GE (?FLT_GE)
                                                   ?FLT_LT (?FLT_LT)
                                                   ?FLT_MUL (?FLT_MUL)
                                                   ?FLT_SUB (?FLT_ADD)

    -------------------------------------------------------------------------
  LIBRARY MODULE, NAME : ?FLT_EQ

  SEGMENTS IN THE MODULE
  ======================
RCODE
  Relative segment, address: CODE 0000177E - 000017A9 (0x2c bytes), align: 0
  Segment part 1.
           ENTRY                   ADDRESS         REF BY
           =====                   =======         ======
           ?FLT_EQ                 0000177E        frexp (?frexp)
                                                   sqrt (?sqrt)

    -------------------------------------------------------------------------
  LIBRARY MODULE, NAME : ?FLT_GE

  SEGMENTS IN THE MODULE
  ======================
RCODE
  Relative segment, address: CODE 000017AA - 000017F8 (0x4f bytes), align: 0
  Segment part 1.
           ENTRY                   ADDRESS         REF BY
           =====                   =======         ======
           ?FLT_GE                 000017AA        CalRTC (RtcCpt)

    -------------------------------------------------------------------------
  LIBRARY MODULE, NAME : ?FLT_LT

  SEGMENTS IN THE MODULE
  ======================
RCODE
  Relative segment, address: CODE 000017F9 - 00001844 (0x4c bytes), align: 0
  Segment part 1.
           ENTRY                   ADDRESS         REF BY
           =====                   =======         ======
           ?FLT_LT                 000017F9        CalRTC (RtcCpt)
                                                   sqrt (?sqrt)

    -------------------------------------------------------------------------
  LIBRARY MODULE, NAME : ?FLT_MUL

  SEGMENTS IN THE MODULE
  ======================
RCODE
  Relative segment, address: CODE 00001845 - 000019C4 (0x180 bytes), align: 0
  Segment part 1.
           ENTRY                   ADDRESS         REF BY
           =====                   =======         ======
           ?FLT_MUL                00001845        CalRTC (RtcCpt)
                                                   sqrt (?sqrt)

    -------------------------------------------------------------------------
  LIBRARY MODULE, NAME : ?FLT_ADD

  SEGMENTS IN THE MODULE
  ======================
RCODE
  Relative segment, address: CODE 000019C5 - 000019E9 (0x25 bytes), align: 0
  Segment part 1.
           ENTRY                   ADDRESS         REF BY
           =====                   =======         ======
           ?FLT_SUB                000019C5        CalRTC (RtcCpt)
    -------------------------------------------------------------------------
RCODE
  Relative segment, address: CODE 000019EA - 00001C03 (0x21a bytes), align: 0
  Segment part 3.             Intra module refs:   ?FLT_SUB
           ENTRY                   ADDRESS         REF BY
           =====                   =======         ======
           ?FLT_ADD                000019EA        CalRTC (RtcCpt)
                                                   sqrt (?sqrt)

    -------------------------------------------------------------------------
  LIBRARY MODULE, NAME : ?FLT_DIV

  SEGMENTS IN THE MODULE
  ======================
RCODE
  Relative segment, address: CODE 00001C04 - 00001DE9 (0x1e6 bytes), align: 0
  Segment part 1.
           ENTRY                   ADDRESS         REF BY
           =====                   =======         ======
           ?FLT_DIV                00001C04        CalRTC (RtcCpt)
                                                   sqrt (?sqrt)

    -------------------------------------------------------------------------
  LIBRARY MODULE, NAME : ?L_MUL

  SEGMENTS IN THE MODULE
  ======================
RCODE
  Relative segment, address: CODE 00001DEA - 00001DEC (0x3 bytes), align: 0
  Segment part 0.
           ENTRY                   ADDRESS         REF BY
           =====                   =======         ======
           ?L_MUL                  00001DEA        BCD2Hex (Api)
                                                   CalCos (EnergyBottom)
                                                   CalRTC (RtcCpt)
                                                   CalcAbsSecond (Timeproc)
                                                   CalcAbsTime (Timeproc)
                                                   CalculateAC (EnergyBottom)
                                                   CalculateSC (EnergyBottom)
                                                   EnyB_AutoChkUrms (EnergyBottom)
                                                   Ldc_DataProc (LoadCurve)
                                                   Ldc_TmMinCal (LoadCurve)
                                                   SetRTCNormal (RtcCpt)
    -------------------------------------------------------------------------
RCODE
  Relative segment, address: CODE 00001DED - 00001E69 (0x7d bytes), align: 0
  Segment part 1.             Intra module refs:   ?L_MUL
           ENTRY                   ADDRESS         REF BY
           =====                   =======         ======
           ?L_MUL_REW              00001DED 

    -------------------------------------------------------------------------
  LIBRARY MODULE, NAME : ?UL_DIV_MOD

  SEGMENTS IN THE MODULE
  ======================
RCODE
  Relative segment, address: CODE 00001E6A - 00001ED8 (0x6f bytes), align: 0
  Segment part 1.
           ENTRY                   ADDRESS         REF BY
           =====                   =======         ======
           ?UL_DIV_MOD             00001E6A        ?L_DIV_MOD (?L_DIV_MOD)
                                                   CalCos (EnergyBottom)
                                                   CalPowDwTm (Dataproc)
                                                   CalRMS (EnergyBottom)
                                                   CalRTC (RtcCpt)
                                                   CalculateSC (EnergyBottom)
                                                   Com_ClearMeterJL (Event)
                                                   CoverCloseLog (Event)
                                                   CoverOpenLog (Event)
                                                   EnyB_AutoChkAngle (EnergyBottom)
                                                   EnyB_AutoChkPW (EnergyBottom)
                                                   EnyB_Check_PowRev (EnergyBottom)
                                                   GetBat (McuDrive)
                                                   JudgePowerDnValue (Powmanger)
                                                   Ldc_DataProc (LoadCurve)
                                                   Ldc_Get1stRecord (LoadCurve)
                                                   Ldc_TimeAdd (LoadCurve)
                                                   Ldc_TimeCal (LoadCurve)
                                                   Ldc_ZoneChk (LoadCurve)
                                                   Mcu_BatCal (McuDrive)
                                                   ReadAccuEgy (DLT_645_2007)
                                                   ReadHisEgy (DLT_645_2007)
                                                   ReadZHLYEgy (DLT_645_2007)
                                                   RecoverDayDjData (Dataproc)
                                                   RecoverEnegyData (Dataproc)
                                                   SearchEqualItem (LoadCurve)
                                                   SetRTCNormal (RtcCpt)
                                                   StructFreezeDate (Event)

    -------------------------------------------------------------------------
  LIBRARY MODULE, NAME : ?L_DIV_MOD

  SEGMENTS IN THE MODULE
  ======================
RCODE
  Relative segment, address: CODE 00001ED9 - 00001F2F (0x57 bytes), align: 0
  Segment part 0.
           ENTRY                   ADDRESS         REF BY
           =====                   =======         ======
           ?L_DIV_MOD              00001F03        CalculateAC (EnergyBottom)
                                                   CalculateSC (EnergyBottom)
                                                   ReadCurEgy (DLT_645_2007)
                                                   ReadEnyD0Block (DLT_645_2007)

    -------------------------------------------------------------------------
  LIBRARY MODULE, NAME : ?L_NEG_R1

  SEGMENTS IN THE MODULE
  ======================
RCODE
  Relative segment, address: CODE 00001F30 - 00001F40 (0x11 bytes), align: 0
  Segment part 1.
           ENTRY                   ADDRESS         REF BY
           =====                   =======         ======
           ?L_NEG_R1               00001F30        ?L_DIV_MOD (?L_DIV_MOD)

    -------------------------------------------------------------------------
  LIBRARY MODULE, NAME : ?L_NEG

  SEGMENTS IN THE MODULE
  ======================
RCODE
  Relative segment, address: CODE 00001F41 - 00001F43 (0x3 bytes), align: 0
  Segment part 0.
           ENTRY                   ADDRESS         REF BY
           =====                   =======         ======
           ?L_NEG_REW              00001F41        ?L_TO_FLT_REW (?L_TO_FLT)
    -------------------------------------------------------------------------
RCODE
  Relative segment, address: CODE 00001F44 - 00001F54 (0x11 bytes), align: 0
  Segment part 1.             Intra module refs:   ?L_NEG_REW
           ENTRY                   ADDRESS         REF BY
           =====                   =======         ======
           ?L_NEG                  00001F44        ?L_DIV_MOD (?L_DIV_MOD)
                                                   CalcTimeGap (Timeproc)
                                                   ReadCurEgy (DLT_645_2007)
                                                   ReadEnyD0Block (DLT_645_2007)

    -------------------------------------------------------------------------
  LIBRARY MODULE, NAME : ?L_NOT

  SEGMENTS IN THE MODULE
  ======================
RCODE
  Relative segment, address: CODE 00001F55 - 00001F64 (0x10 bytes), align: 0
  Segment part 1.
           ENTRY                   ADDRESS         REF BY
           =====                   =======         ======
           ?L_NOT                  00001F55        CalRMS (EnergyBottom)
                                                   E2ParaCheck (DataProtect)
                                                   GetBat (McuDrive)
                                                   Mcu_BatCal (McuDrive)
                                                   ReadEnyD0Block (DLT_645_2007)
                                                   ReadHisEgy (DLT_645_2007)

    -------------------------------------------------------------------------
  LIBRARY MODULE, NAME : ?UL_SHR

  SEGMENTS IN THE MODULE
  ======================
RCODE
  Relative segment, address: CODE 00001F65 - 00001F69 (0x5 bytes), align: 0
  Segment part 1.             Intra module refs:   Segment part 2
           ENTRY                   ADDRESS         REF BY
           =====                   =======         ======
           ?UL_SHR                 00001F65        CalRMS (EnergyBottom)
                                                   CalRTC (RtcCpt)
                                                   Disp_Numb (Lcdmiddle)
                                                   Disp_State (Lcdmiddle)
                                                   Disp_String (Lcdmiddle)
                                                   EnyB_Check_PowRev (EnergyBottom)
                                                   Hex2BCD (Api)
                                                   JudgePowerDnValue (Powmanger)
                                                   ReadVar (DLT_645_2007)
                                                   ShowNumManage (Lcdshow)
    -------------------------------------------------------------------------
RCODE
  Relative segment, address: CODE 00001F6A - 00001F7D (0x14 bytes), align: 0
  Segment part 2.             Intra module refs:   ?UL_SHR

    -------------------------------------------------------------------------
  LIBRARY MODULE, NAME : ?L_SHL

  SEGMENTS IN THE MODULE
  ======================
RCODE
  Relative segment, address: CODE 00001F7E - 00001F83 (0x6 bytes), align: 0
  Segment part 0.
           ENTRY                   ADDRESS         REF BY
           =====                   =======         ======
           ?L_SHL                  00001F7E        CalRMS (EnergyBottom)
                                                   EnyB_Check_PowRev (EnergyBottom)
                                                   EnyB_ReadMeterParaACK (EnergyBottom)
    -------------------------------------------------------------------------
RCODE
  Relative segment, address: CODE 00001F84 - 00001F88 (0x5 bytes), align: 0
  Segment part 1.             Intra module refs:   Segment part 2
           ENTRY                   ADDRESS         REF BY
           =====                   =======         ======
           ?L_SHL_REW              00001F84 
    -------------------------------------------------------------------------
RCODE
  Relative segment, address: CODE 00001F89 - 00001F9C (0x14 bytes), align: 0
  Segment part 2.             Intra module refs:   ?L_SHL
                                                   ?L_SHL_REW

    -------------------------------------------------------------------------
  LIBRARY MODULE, NAME : ?L_ADD

  SEGMENTS IN THE MODULE
  ======================
RCODE
  Relative segment, address: CODE 00001F9D - 00001FAF (0x13 bytes), align: 0
  Segment part 1.
           ENTRY                   ADDRESS         REF BY
           =====                   =======         ======
           ?L_ADD                  00001F9D        BCD2Hex (Api)
                                                   CalcAbsSecond (Timeproc)
                                                   CalcAbsTime (Timeproc)
                                                   CalculateSC (EnergyBottom)
                                                   EnyB_ReadMeterParaACK (EnergyBottom)
                                                   Ldc_DataProc (LoadCurve)
                                                   Ldc_TimeAdd (LoadCurve)
                                                   Ldc_TmMinCal (LoadCurve)
                                                   MonthLYDL (Energy)
                                                   ReadAccuEgy (DLT_645_2007)
                                                   ReadZHLYEgy (DLT_645_2007)

    -------------------------------------------------------------------------
  LIBRARY MODULE, NAME : ?L_ADD_X

  SEGMENTS IN THE MODULE
  ======================
RCODE
  Relative segment, address: CODE 00001FB0 - 00001FC2 (0x13 bytes), align: 0
  Segment part 1.
           ENTRY                   ADDRESS         REF BY
           =====                   =======         ======
           ?L_ADD_X                00001FB0        CalRTC (RtcCpt)
                                                   Com_ClearMeterJL (Event)
                                                   CoverCloseLog (Event)
                                                   CoverOpenLog (Event)
                                                   GetBat (McuDrive)
                                                   Ldc_TimeAdd (LoadCurve)
                                                   Ldc_ZoneChk (LoadCurve)
                                                   MonthLYDL (Energy)
                                                   ReadAccuEgy (DLT_645_2007)
                                                   ReadFlash (CmpCode)
                                                   ReadZHLYEgy (DLT_645_2007)
                                                   RecoverDayDjData (Dataproc)
                                                   RecoverEnegyData (Dataproc)
                                                   SearchEqualItem (LoadCurve)
                                                   StructFreezeDate (Event)

    -------------------------------------------------------------------------
  LIBRARY MODULE, NAME : ?L_ADD_C

  SEGMENTS IN THE MODULE
  ======================
RCODE
  Relative segment, address: CODE 00001FC3 - 00001FD9 (0x17 bytes), align: 0
  Segment part 1.
           ENTRY                   ADDRESS         REF BY
           =====                   =======         ======
           ?L_ADD_C                00001FC3        BD_ProcFrame (Prcfrm)
                                                   CalCos (EnergyBottom)
                                                   CalRMS (EnergyBottom)
                                                   CmpCode (DLT_645_2007)
                                                   GetBat (McuDrive)
                                                   JudgePowerDnValue (Powmanger)
                                                   Ldc_ZoneChk (LoadCurve)
                                                   LoadCurveCheck (LoadCurve)
                                                   Mcu_BatCal (McuDrive)
                                                   ReadEnyD0Block (DLT_645_2007)
                                                   ReadHisEgy (DLT_645_2007)
                                                   SearchEqualItem (LoadCurve)
                                                   SetRTCNormal (RtcCpt)

    -------------------------------------------------------------------------
  LIBRARY MODULE, NAME : ?L_ADD_TO_X

  SEGMENTS IN THE MODULE
  ======================
RCODE
  Relative segment, address: CODE 00001FDA - 00001FEC (0x13 bytes), align: 0
  Segment part 1.
           ENTRY                   ADDRESS         REF BY
           =====                   =======         ======
           ?L_ADD_TO_X             00001FDA        CalPowDwTm (Dataproc)
                                                   DataProcEvCountAdd (Dataproc)
                                                   Eny_EnergyActiveSave (Energy)
                                                   Hex2BCD (Api)
                                                   Ldc_DataProc (LoadCurve)
                                                   LoadCurveCheck (LoadCurve)
                                                   ReadCurEgy (DLT_645_2007)
                                                   ReadEnyD0Block (DLT_645_2007)
                                                   Up_FunCfg (FunCfg)

    -------------------------------------------------------------------------
  LIBRARY MODULE, NAME : ?L_SUB

  SEGMENTS IN THE MODULE
  ======================
RCODE
  Relative segment, address: CODE 00001FED - 00002000 (0x14 bytes), align: 0
  Segment part 1.
           ENTRY                   ADDRESS         REF BY
           =====                   =======         ======
           ?L_SUB                  00001FED        CalcTimeGap (Timeproc)
                                                   CalculateSC (EnergyBottom)
                                                   Ldc_Get1stRecord (LoadCurve)
                                                   Ldc_TimeCal (LoadCurve)
                                                   Ldc_TimeSub (LoadCurve)
                                                   Ldc_ZoneChk (LoadCurve)
                                                   LoadCurveCheck (LoadCurve)
                                                   SearchEqualItem (LoadCurve)
                                                   SetRTCNormal (RtcCpt)

    -------------------------------------------------------------------------
  LIBRARY MODULE, NAME : ?L_SUB_X

  SEGMENTS IN THE MODULE
  ======================
RCODE
  Relative segment, address: CODE 00002001 - 00002018 (0x18 bytes), align: 0
  Segment part 1.
           ENTRY                   ADDRESS         REF BY
           =====                   =======         ======
           ?L_SUB_X                00002001        CalculateAC (EnergyBottom)
                                                   CalculateSC (EnergyBottom)
                                                   Ldc_Get1stRecord (LoadCurve)
                                                   ReadAccuEgy (DLT_645_2007)
                                                   ReadZHLYEgy (DLT_645_2007)

    -------------------------------------------------------------------------
  LIBRARY MODULE, NAME : ?L_SUB_FROM_X

  SEGMENTS IN THE MODULE
  ======================
RCODE
  Relative segment, address: CODE 00002019 - 0000202C (0x14 bytes), align: 0
  Segment part 1.
           ENTRY                   ADDRESS         REF BY
           =====                   =======         ======
           ?L_SUB_FROM_X           00002019        Hex2BCD (Api)
                                                   Ldc_TimeAdd (LoadCurve)
                                                   Up_FunCfg (FunCfg)

    -------------------------------------------------------------------------
  LIBRARY MODULE, NAME : ?L_AND_C

  SEGMENTS IN THE MODULE
  ======================
RCODE
  Relative segment, address: CODE 0000202D - 00002043 (0x17 bytes), align: 0
  Segment part 1.
           ENTRY                   ADDRESS         REF BY
           =====                   =======         ======
           ?L_AND_C                0000202D        CalCos (EnergyBottom)
                                                   CmpCode (DLT_645_2007)
                                                   ComRWE2Para (DLT_645_2007)
                                                   EnyB_AutoChkAngle (EnergyBottom)
                                                   EnyB_AutoChkPW (EnergyBottom)
                                                   MidFindID (DLT_645_2007)
                                                   RWData (DLT_645_2007)
                                                   ReadJL (DLT_645_2007)
                                                   ShowNumManage (Lcdshow)
                                                   ShowStateManage (Lcdshow)
                                                   SysE2ReadData (DataProtect)

    -------------------------------------------------------------------------
  LIBRARY MODULE, NAME : ?L_AND_TO_X

  SEGMENTS IN THE MODULE
  ======================
RCODE
  Relative segment, address: CODE 00002044 - 00002056 (0x13 bytes), align: 0
  Segment part 1.
           ENTRY                   ADDRESS         REF BY
           =====                   =======         ======
           ?L_AND_TO_X             00002044        CalCos (EnergyBottom)
                                                   E2ParaCheck (DataProtect)
                                                   GetBat (McuDrive)
                                                   ReadCurEgy (DLT_645_2007)
                                                   ReadEnyD0Block (DLT_645_2007)
                                                   ReadFlash (CmpCode)
                                                   ReadHisEgy (DLT_645_2007)
                                                   ShowNumManage (Lcdshow)
                                                   ShowSecondProc (Lcdshow)
                                                   ShowStateFlashManage (Lcdshow)
                                                   ShowStateManage (Lcdshow)

    -------------------------------------------------------------------------
  LIBRARY MODULE, NAME : ?L_IOR

  SEGMENTS IN THE MODULE
  ======================
RCODE
  Relative segment, address: CODE 00002057 - 00002069 (0x13 bytes), align: 0
  Segment part 1.
           ENTRY                   ADDRESS         REF BY
           =====                   =======         ======
           ?L_IOR                  00002057        ShowStateManage (Lcdshow)

    -------------------------------------------------------------------------
  LIBRARY MODULE, NAME : ?L_IOR_TO_X

  SEGMENTS IN THE MODULE
  ======================
RCODE
  Relative segment, address: CODE 0000206A - 0000207C (0x13 bytes), align: 0
  Segment part 1.
           ENTRY                   ADDRESS         REF BY
           =====                   =======         ======
           ?L_IOR_TO_X             0000206A        BD_ProcFrame (Prcfrm)
                                                   CalRMS (EnergyBottom)
                                                   E2ParaCheck (DataProtect)
                                                   GetBat (McuDrive)
                                                   Hex2BCD (Api)
                                                   ReadCurEgy (DLT_645_2007)
                                                   ReadEnyD0Block (DLT_645_2007)
                                                   ReadFlash (CmpCode)
                                                   ReadHisEgy (DLT_645_2007)
                                                   ReadVar (DLT_645_2007)
                                                   ShowNumManage (Lcdshow)
                                                   ShowStateFlashManage (Lcdshow)
                                                   ShowStateManage (Lcdshow)

    -------------------------------------------------------------------------
  LIBRARY MODULE, NAME : ?L_XOR_TO_X

  SEGMENTS IN THE MODULE
  ======================
RCODE
  Relative segment, address: CODE 0000207D - 0000208F (0x13 bytes), align: 0
  Segment part 1.
           ENTRY                   ADDRESS         REF BY
           =====                   =======         ======
           ?L_XOR_TO_X             0000207D        ShowStateManage (Lcdshow)

    -------------------------------------------------------------------------
  LIBRARY MODULE, NAME : ?L_MOV_X

  SEGMENTS IN THE MODULE
  ======================
RCODE
  Relative segment, address: CODE 00002090 - 0000209E (0xf bytes), align: 0
  Segment part 0.
           ENTRY                   ADDRESS         REF BY
           =====                   =======         ======
           ?L_MOV_X                00002090        CalCos (EnergyBottom)
                                                   CalRMS (EnergyBottom)
                                                   CalRTC (RtcCpt)
                                                   CalculateAC (EnergyBottom)
                                                   CalculateSC (EnergyBottom)
                                                   CmpCode (DLT_645_2007)
                                                   ComRWE2Para (DLT_645_2007)
                                                   ComReadRunCode (DLT_645_2007)
                                                   Disp_Numb (Lcdmiddle)
                                                   EnyB_Check_PowRev (EnergyBottom)
                                                   FactoryRD (DLT_645_2007)
                                                   FactoryWR (DLT_645_2007)
                                                   GetBat (McuDrive)
                                                   Hex2BCD (Api)
                                                   JudgePowerDnValue (Powmanger)
                                                   Ldc_DataProc (LoadCurve)
                                                   Ldc_Get1stRecord (LoadCurve)
                                                   Ldc_TimeAdd (LoadCurve)
                                                   LoadCurveCheck (LoadCurve)
                                                   Mcu_BatCal (McuDrive)
                                                   MidFindID (DLT_645_2007)
                                                   MonthLYDL (Energy)
                                                   RWData (DLT_645_2007)
                                                   ReadAccuEgy (DLT_645_2007)
                                                   ReadCurEgy (DLT_645_2007)
                                                   ReadEnyD0Block (DLT_645_2007)
                                                   ReadFlash (CmpCode)
                                                   ReadHisEgy (DLT_645_2007)
                                                   ReadJL (DLT_645_2007)
                                                   ReadVar (DLT_645_2007)
                                                   ReadZHLYEgy (DLT_645_2007)
                                                   RwSysTime (DLT_645_2007)
                                                   SearchDispNO (Lcdshow)
                                                   SetRTCNormal (RtcCpt)
                                                   ShowNumManage (Lcdshow)
                                                   ShowStateManage (Lcdshow)
                                                   SysE2ReadData (DataProtect)
                                                   Up_FunCfg (FunCfg)
                                                   sqrt (?sqrt)

    -------------------------------------------------------------------------
  LIBRARY MODULE, NAME : ?L_MOV_C

  SEGMENTS IN THE MODULE
  ======================
RCODE
  Relative segment, address: CODE 0000209F - 000020B1 (0x13 bytes), align: 0
  Segment part 0.
           ENTRY                   ADDRESS         REF BY
           =====                   =======         ======
           ?L_MOV_C                0000209F        BCD2Hex (Api)
                                                   BD_ProcFrame (Prcfrm)
                                                   BroadcastTime (DLT_645_2007)
                                                   CalCos (EnergyBottom)
                                                   CalPowDwTm (Dataproc)
                                                   CalRMS (EnergyBottom)
                                                   CalRTC (RtcCpt)
                                                   CalcAbsSecond (Timeproc)
                                                   CalcAbsTime (Timeproc)
                                                   CalculateAC (EnergyBottom)
                                                   CalculateSC (EnergyBottom)
                                                   ChangePassWord (DLT_645_2007)
                                                   ClearEvent (DLT_645_2007)
                                                   ClockBAK_E2 (Timeproc)
                                                   CmpCode (DLT_645_2007)
                                                   ComRWE2Para (DLT_645_2007)
                                                   ComReadRunCode (DLT_645_2007)
                                                   Com_ClearMeterJL (Event)
                                                   CoverCloseLog (Event)
                                                   CoverOpenLog (Event)
                                                   DataProcEvCountAdd (Dataproc)
                                                   Data_ClearMeter (Dataproc)
                                                   Data_FactoryClr (Dataproc)
                                                   Decode645Frame (Prcfrm)
                                                   Disp_String (Lcdmiddle)
                                                   E2ParaCheck (DataProtect)
                                                   Encode645Frame (Prcfrm)
                                                   EnergyCBRManage (Energy)
                                                   EnyB_AutoChkAngle (EnergyBottom)
                                                   EnyB_AutoChkIrms (EnergyBottom)
                                                   EnyB_AutoChkPW (EnergyBottom)
                                                   EnyB_AutoChkUrms (EnergyBottom)
                                                   EnyB_Open_Cf (EnergyBottom)
                                                   Eny_EnergyActiveSave (Energy)
                                                   Eny_EnergyClrCur (Energy)
                                                   Eny_JbPm_GetE2 (Energy)
                                                   Eny_PurCheckRAMEny (Energy)
                                                   Eny_RefCalcType (Energy)
                                                   Eny_RefVar (Energy)
                                                   FactoryRD (DLT_645_2007)
                                                   FactoryWR (DLT_645_2007)
                                                   GetBat (McuDrive)
                                                   Hex2BCD (Api)
                                                   Init_Var (main)
                                                   IrShowLcd (DLT_645_2007)
                                                   IsJR (Multariff)
                                                   IsNumSD (Multariff)
                                                   IsNumSQ (Multariff)
                                                   IsValidSQ (Multariff)
                                                   IsZXR (Multariff)
                                                   Judge645Addr (Prcfrm)
                                                   JudgePassword (Prcfrm)
                                                   KeyPgm_DyOut (Key)
                                                   Ldc_DataProc (LoadCurve)
                                                   Ldc_TimeAdd (LoadCurve)
                                                   Ldc_TmMinCal (LoadCurve)
                                                   Ldc_ZoneChk (LoadCurve)
                                                   LoadCurveCheck (LoadCurve)
                                                   MCUForPowerOff (McuDrive)
                                                   Mcu_BatCal (McuDrive)
                                                   MidFindID (DLT_645_2007)
                                                   MonthLYDL (Energy)
                                                   PMDspInit (EnergyBottom)
                                                   Pow_DnProc (Powmanger)
                                                   ProJL (PrologFee)
                                                   PwBs_DyOut (Prcfrm)
                                                   RSDJLlog (PrologFee)
                                                   ReadAccuEgy (DLT_645_2007)
                                                   ReadCurEgy (DLT_645_2007)
                                                   ReadEnyD0Block (DLT_645_2007)
                                                   ReadFlash (CmpCode)
                                                   ReadHisEgy (DLT_645_2007)
                                                   ReadHisJSTime (DLT_645_2007)
                                                   ReadRSDLogItem (PrologFee)
                                                   ReadSQLogItem (PrologFee)
                                                   ReadVar (DLT_645_2007)
                                                   ReadZHLYEgy (DLT_645_2007)
                                                   RecoverDayDjData (Dataproc)
                                                   RecoverEnegyData (Dataproc)
                                                   RecoverJSRData (Dataproc)
                                                   RecoverRtcPara (RtcCpt)
                                                   Report (DLT_645_2007)
                                                   Rpt_Crc (Report)
                                                   Rpt_Recover (Report)
                                                   Rpt_StaBitClr (Report)
                                                   Rpt_StaFlgClr (Report)
                                                   Rpt_StaSet (Report)
                                                   Rpt_UpdateSta (Report)
                                                   SearchEqualItem (LoadCurve)
                                                   SeekDataID (PrologFee)
                                                   SetRTCNormal (RtcCpt)
                                                   ShowNumManage (Lcdshow)
                                                   ShowSecondProc (Lcdshow)
                                                   ShowStateFlashManage (Lcdshow)
                                                   ShowStateManage (Lcdshow)
                                                   SleepTimeProc (Timeproc)
                                                   SoftClockCheck (Timeproc)
                                                   StructFreezeDate (Event)
                                                   Up_FunCfg (FunCfg)
                                                   WriteHisEP (Energy)
                                                   frexp (?frexp)
                                                   getFee (Multariff)
                                                   getTimeZone (Multariff)
                                                   sqrt (?sqrt)

    -------------------------------------------------------------------------
  LIBRARY MODULE, NAME : ?L_MOV_TO_X

  SEGMENTS IN THE MODULE
  ======================
RCODE
  Relative segment, address: CODE 000020B2 - 000020C0 (0xf bytes), align: 0
  Segment part 2.
           ENTRY                   ADDRESS         REF BY
           =====                   =======         ======
           ?L_MOV_TO_X             000020B2        CalRMS (EnergyBottom)
                                                   CalRTC (RtcCpt)
                                                   ComRWE2Para (DLT_645_2007)
                                                   Com_ClearMeterJL (Event)
                                                   CoverCloseLog (Event)
                                                   CoverOpenLog (Event)
                                                   EnyB_AutoChkAngle (EnergyBottom)
                                                   EnyB_AutoChkIrms (EnergyBottom)
                                                   EnyB_AutoChkPW (EnergyBottom)
                                                   EnyB_AutoChkUrms (EnergyBottom)
                                                   GetBat (McuDrive)
                                                   Hex2BCD (Api)
                                                   Ldc_DataProc (LoadCurve)
                                                   Ldc_TimeAdd (LoadCurve)
                                                   LoadCurveCheck (LoadCurve)
                                                   Mcu_BatCal (McuDrive)
                                                   MonthLYDL (Energy)
                                                   ReadAccuEgy (DLT_645_2007)
                                                   ReadCurEgy (DLT_645_2007)
                                                   ReadEnyD0Block (DLT_645_2007)
                                                   ReadFlash (CmpCode)
                                                   ReadHisEgy (DLT_645_2007)
                                                   ReadVar (DLT_645_2007)
                                                   ReadZHLYEgy (DLT_645_2007)
                                                   RecoverEnegyData (Dataproc)
                                                   SetRTCNormal (RtcCpt)
                                                   ShowDataProc (Lcdshow)
                                                   ShowStateManage (Lcdshow)
                                                   StructFreezeDate (Event)
                                                   Up_FunCfg (FunCfg)
                                                   sqrt (?sqrt)

    -------------------------------------------------------------------------
  LIBRARY MODULE, NAME : ?XLOAD_R2345

  SEGMENTS IN THE MODULE
  ======================
RCODE
  Relative segment, address: CODE 000020C1 - 000020CC (0xc bytes), align: 0
  Segment part 0.
           ENTRY                   ADDRESS         REF BY
           =====                   =======         ======
           ?XLOAD_R2345            000020C1        CalCos (EnergyBottom)
                                                   CalRMS (EnergyBottom)
                                                   CmpCode (DLT_645_2007)
                                                   ComMeterConst (DLT_645_2007)
                                                   ComRWE2Para (DLT_645_2007)
                                                   ComRdEvCnt (DLT_645_2007)
                                                   Com_ClearMeterJL (Event)
                                                   CoverCloseLog (Event)
                                                   CoverOpenLog (Event)
                                                   EnergyCBRManage (Energy)
                                                   EnyB_JbPm_Updata (EnergyBottom)
                                                   Hex2BCD (Api)
                                                   Ldc_DataProc (LoadCurve)
                                                   MonthLYDL (Energy)
                                                   Pow_DnProc (Powmanger)
                                                   ReadAccuEgy (DLT_645_2007)
                                                   ReadCurEgy (DLT_645_2007)
                                                   ReadEnyD0Block (DLT_645_2007)
                                                   ReadHisEgy (DLT_645_2007)
                                                   ReadVar (DLT_645_2007)
                                                   ReadZHLYEgy (DLT_645_2007)
                                                   RecoverDayDjData (Dataproc)
                                                   RecoverEnegyData (Dataproc)
                                                   RwSqSd (DLT_645_2007)
                                                   RwSysTime (DLT_645_2007)
                                                   ShowNumManage (Lcdshow)
                                                   ShowRefresh (Lcdshow)
                                                   StructFreezeDate (Event)
                                                   Uint8_To_Uint32 (Api)
                                                   sqrt (?sqrt)

    -------------------------------------------------------------------------
  LIBRARY MODULE, NAME : ?XSTORE_R2345

  SEGMENTS IN THE MODULE
  ======================
RCODE
  Relative segment, address: CODE 000020CD - 000020D8 (0xc bytes), align: 0
  Segment part 0.
           ENTRY                   ADDRESS         REF BY
           =====                   =======         ======
           ?XSTORE_R2345           000020CD        CalCos (EnergyBottom)
                                                   CalRMS (EnergyBottom)
                                                   ComRWE2Para (DLT_645_2007)
                                                   Com_ClearMeterJL (Event)
                                                   CoverCloseLog (Event)
                                                   CoverOpenLog (Event)
                                                   EnyB_AutoChkPW (EnergyBottom)
                                                   EnyB_AutoChkUrms (EnergyBottom)
                                                   FactoryWR (DLT_645_2007)
                                                   GetBat (McuDrive)
                                                   Ldc_DataProc (LoadCurve)
                                                   Mcu_BatCal (McuDrive)
                                                   Pow_DnProc (Powmanger)
                                                   ReadCurEgy (DLT_645_2007)
                                                   ReadEnyD0Block (DLT_645_2007)
                                                   ReadHisEgy (DLT_645_2007)
                                                   ReadVar (DLT_645_2007)
                                                   ReadZHLYEgy (DLT_645_2007)
                                                   RecoverDayDjData (Dataproc)
                                                   RecoverEnegyData (Dataproc)
                                                   RwDjData (DLT_645_2007)
                                                   ShowNumManage (Lcdshow)
                                                   StructFreezeDate (Event)
                                                   sqrt (?sqrt)

    -------------------------------------------------------------------------
  LIBRARY MODULE, NAME : ?XLOAD_R0123

  SEGMENTS IN THE MODULE
  ======================
RCODE
  Relative segment, address: CODE 000020D9 - 000020E4 (0xc bytes), align: 0
  Segment part 0.
           ENTRY                   ADDRESS         REF BY
           =====                   =======         ======
           ?XLOAD_R0123            000020D9        CalCos (EnergyBottom)
                                                   CalRMS (EnergyBottom)
                                                   CalRTC (RtcCpt)
                                                   EnyB_Check_PowRev (EnergyBottom)
                                                   Ldc_DataProc (LoadCurve)
                                                   Ldc_ZoneChk (LoadCurve)
                                                   ReadCurEgy (DLT_645_2007)
                                                   ReadEnyD0Block (DLT_645_2007)
                                                   ReadHisEgy (DLT_645_2007)
                                                   ShowNumManage (Lcdshow)
                                                   Up_FunCfg (FunCfg)

    -------------------------------------------------------------------------
  LIBRARY MODULE, NAME : ?XSTORE_R0123

  SEGMENTS IN THE MODULE
  ======================
RCODE
  Relative segment, address: CODE 000020E5 - 000020F0 (0xc bytes), align: 0
  Segment part 0.
           ENTRY                   ADDRESS         REF BY
           =====                   =======         ======
           ?XSTORE_R0123           000020E5        CalCos (EnergyBottom)
                                                   CalRMS (EnergyBottom)
                                                   CalRTC (RtcCpt)
                                                   ComMeterConst (DLT_645_2007)
                                                   ComRWE2Para (DLT_645_2007)
                                                   ComRdEvCnt (DLT_645_2007)
                                                   FactoryWR (DLT_645_2007)
                                                   IrShowLcd (DLT_645_2007)
                                                   Ldc_DataProc (LoadCurve)
                                                   ReadAccuEgy (DLT_645_2007)
                                                   ReadCurEgy (DLT_645_2007)
                                                   ReadCurveJl (DLT_645_2007)
                                                   ReadEnyD0Block (DLT_645_2007)
                                                   ReadHisEgy (DLT_645_2007)
                                                   ReadVar (DLT_645_2007)
                                                   RecoverDayDjData (Dataproc)
                                                   RwDjData (DLT_645_2007)
                                                   RwLcdData (DLT_645_2007)
                                                   ShowNumManage (Lcdshow)
                                                   StructFreezeDate (Event)
                                                   Up_FunCfg (FunCfg)

    -------------------------------------------------------------------------
  LIBRARY MODULE, NAME : ?MOVE_LONG8_XDATA_IDATA

  SEGMENTS IN THE MODULE
  ======================
RCODE
  Relative segment, address: CODE 000020F1 - 000020FD (0xd bytes), align: 0
  Segment part 0.
           ENTRY                   ADDRESS         REF BY
           =====                   =======         ======
           ?MOVE_LONG8_XDATA_IDATA
                                   000020F1        ?PUSH_XSTACK_I (?PUSH_XSTACK_I)

    -------------------------------------------------------------------------
  LIBRARY MODULE, NAME : ?MOVE_LONG8_XDATA_XDATA

  SEGMENTS IN THE MODULE
  ======================
RCODE
  Relative segment, address: CODE 000020FE - 0000211E (0x21 bytes), align: 0
  Segment part 0.
           ENTRY                   ADDRESS         REF BY
           =====                   =======         ======
           ?MOVE_LONG8_XDATA_XDATA
                                   000020FE        ?PUSH_XSTACK8_X (?PUSH_XSTACK8_X)

    -------------------------------------------------------------------------
  LIBRARY MODULE, NAME : ?S_DIV_MOD

  SEGMENTS IN THE MODULE
  ======================
RCODE
  Relative segment, address: CODE 0000211F - 0000215F (0x41 bytes), align: 0
  Segment part 0.
           ENTRY                   ADDRESS         REF BY
           =====                   =======         ======
           ?S_DIV_MOD              00002158        FactoryRD (DLT_645_2007)
                                                   RtcParaFsToE2 (RtcCpt)
                                                   SetRTCNormal (RtcCpt)
    -------------------------------------------------------------------------
RCODE
  Relative segment, address: CODE 00002160 - 000021B8 (0x59 bytes), align: 0
  Segment part 1.             Intra module refs:   ?S_DIV_MOD
           ENTRY                   ADDRESS         REF BY
           =====                   =======         ======
           ?US_DIV_MOD             00002160        CalRMS (EnergyBottom)
                                                   CalculateSC (EnergyBottom)
                                                   DataProcRead2Slice (Dataproc)
                                                   DataProcWriteRound2 (Dataproc)
                                                   LoadCurveCheck (LoadCurve)

    -------------------------------------------------------------------------
  LIBRARY MODULE, NAME : ?SS_SHR

  SEGMENTS IN THE MODULE
  ======================
RCODE
  Relative segment, address: CODE 000021B9 - 000021BB (0x3 bytes), align: 0
  Segment part 1.             Intra module refs:   Segment part 2
           ENTRY                   ADDRESS         REF BY
           =====                   =======         ======
           ?SS_SHR                 000021B9        FactoryRD (DLT_645_2007)
                                                   Judge645Addr (Prcfrm)
                                                   MidFindID (DLT_645_2007)
    -------------------------------------------------------------------------
RCODE
  Relative segment, address: CODE 000021BC - 000021C8 (0xd bytes), align: 0
  Segment part 2.             Intra module refs:   ?SS_SHR

    -------------------------------------------------------------------------
  LIBRARY MODULE, NAME : ?US_SHR

  SEGMENTS IN THE MODULE
  ======================
RCODE
  Relative segment, address: CODE 000021C9 - 000021CB (0x3 bytes), align: 0
  Segment part 1.             Intra module refs:   Segment part 2
           ENTRY                   ADDRESS         REF BY
           =====                   =======         ======
           ?US_SHR                 000021C9        Disp_State (Lcdmiddle)
                                                   Disp_String (Lcdmiddle)
                                                   Disp_UnitPoint (Lcdmiddle)
                                                   GetE2Type (DataProtect)
    -------------------------------------------------------------------------
RCODE
  Relative segment, address: CODE 000021CC - 000021D7 (0xc bytes), align: 0
  Segment part 2.             Intra module refs:   ?US_SHR

    -------------------------------------------------------------------------
  LIBRARY MODULE, NAME : ?S_SHL

  SEGMENTS IN THE MODULE
  ======================
RCODE
  Relative segment, address: CODE 000021D8 - 000021DA (0x3 bytes), align: 0
  Segment part 0.
           ENTRY                   ADDRESS         REF BY
           =====                   =======         ======
           ?S_SHL                  000021D8        DataProcEvCountAdd (Dataproc)
                                                   Data_ClearEvent (Event)
                                                   Data_ClearMeter (Dataproc)
                                                   Disp_String (Lcdmiddle)
                                                   E2ParaCheck (DataProtect)
                                                   EnyB_JbPm_Updata (EnergyBottom)
                                                   Eny_EnergyActiveSave (Energy)
                                                   Eny_JbPm_MeterConst (Energy)
                                                   IsJR (Multariff)
                                                   MonthLYDL (Energy)
                                                   RWData (DLT_645_2007)
                                                   ReadCurEgy (DLT_645_2007)
                                                   ReadEnyD0Block (DLT_645_2007)
                                                   ReadHisEgy (DLT_645_2007)
                                                   ReadHisJSTime (DLT_645_2007)
                                                   ReadRSDLogItem (PrologFee)
                                                   ReadZHLYEgy (DLT_645_2007)
                                                   RecoverDayDjData (Dataproc)
                                                   RecoverJSRData (Dataproc)
                                                   RefreshLCDRAM (LcdBottom)
                                                   Report (DLT_645_2007)
                                                   Rpt_Clr (Report)
                                                   Rpt_StaBitClr (Report)
                                                   Rpt_StaFlgClr (Report)
                                                   Rpt_StaSet (Report)
                                                   Rpt_UpdateSta (Report)
                                                   RtcParaFsToE2 (RtcCpt)
                                                   RwDjData (DLT_645_2007)
                                                   RwGGJR (DLT_645_2007)
                                                   RwSqSd (DLT_645_2007)
                                                   SeekDataID (PrologFee)
                                                   StructFreezeDate (Event)
                                                   SysE2ReadData (DataProtect)
                                                   Up_FunCfg (FunCfg)
                                                   getFee (Multariff)
    -------------------------------------------------------------------------
RCODE
  Relative segment, address: CODE 000021DB - 000021DD (0x3 bytes), align: 0
  Segment part 1.             Intra module refs:   Segment part 2
           ENTRY                   ADDRESS         REF BY
           =====                   =======         ======
           ?S_SHL_REW              000021DB 
    -------------------------------------------------------------------------
RCODE
  Relative segment, address: CODE 000021DE - 000021EA (0xd bytes), align: 0
  Segment part 2.             Intra module refs:   ?S_SHL
                                                   ?S_SHL_REW

    -------------------------------------------------------------------------
  LIBRARY MODULE, NAME : ?ALLOC_XSTACK8

  SEGMENTS IN THE MODULE
  ======================
RCODE
  Relative segment, address: CODE 000021EB - 00002200 (0x16 bytes), align: 0
  Segment part 0.
           ENTRY                   ADDRESS         REF BY
           =====                   =======         ======
           ?ALLOC_XSTACK8          000021EB        BCD2Hex (Api)
                                                   BD_ProcFrame (Prcfrm)
                                                   BE_ReadP (BEBottom)
                                                   BroadcastTime (DLT_645_2007)
                                                   CalCBRCount (Api)
                                                   CalCos (EnergyBottom)
                                                   CalRDJCount (Api)
                                                   CalRMS (EnergyBottom)
                                                   CalRTC (RtcCpt)
                                                   ChangeBode (DLT_645_2007)
                                                   ChangeBodeProc (McuDrive)
                                                   CheckCRCWord (Dataproc)
                                                   ClearEvent (DLT_645_2007)
                                                   CmpCode (DLT_645_2007)
                                                   ComCheckFormat (DataProtect)
                                                   ComMeterConst (DLT_645_2007)
                                                   ComRWE2Para (DLT_645_2007)
                                                   ComRdEvCnt (DLT_645_2007)
                                                   Com_ClearMeterJL (Event)
                                                   Com_JSJL (Event)
                                                   CoverCloseLog (Event)
                                                   CoverOpenLog (Event)
                                                   DataProcEvCountAdd (Dataproc)
                                                   DataProcRead2Slice (Dataproc)
                                                   DataProcWriteRound2 (Dataproc)
                                                   Data_FactoryClr (Dataproc)
                                                   Disp_Numb (Lcdmiddle)
                                                   E2ParaCheck (DataProtect)
                                                   EnergyCBRManage (Energy)
                                                   EnyB_AutoChkAngle (EnergyBottom)
                                                   EnyB_AutoChkIrms (EnergyBottom)
                                                   EnyB_AutoChkPW (EnergyBottom)
                                                   EnyB_AutoChkUrms (EnergyBottom)
                                                   Eny_EnergyActiveSave (Energy)
                                                   Eny_JbPm_GetE2 (Energy)
                                                   Eny_PurCheckRAMEny (Energy)
                                                   Eny_RefVar (Energy)
                                                   FactoryWR (DLT_645_2007)
                                                   GetBat (McuDrive)
                                                   GetExtRTC (McuDrive)
                                                   Hex2BCD (Api)
                                                   IntBCD2Hex (Api)
                                                   IrShowLcd (DLT_645_2007)
                                                   IsJR (Multariff)
                                                   IsNumSD (Multariff)
                                                   IsNumSQ (Multariff)
                                                   IsValidSQ (Multariff)
                                                   IsZXR (Multariff)
                                                   JudgePassword (Prcfrm)
                                                   Ldc_DataProc (LoadCurve)
                                                   Ldc_Get1stRecord (LoadCurve)
                                                   Ldc_TimeAdd (LoadCurve)
                                                   Ldc_TimeSub (LoadCurve)
                                                   Ldc_TmMinCal (LoadCurve)
                                                   Ldc_ZoneChk (LoadCurve)
                                                   LoadCurveCheck (LoadCurve)
                                                   Mcu_BatCal (McuDrive)
                                                   MonthLYDL (Energy)
                                                   Pow_DnProc (Powmanger)
                                                   ProJL (PrologFee)
                                                   RSDJLlog (PrologFee)
                                                   RWData (DLT_645_2007)
                                                   ReadAccuEgy (DLT_645_2007)
                                                   ReadCurEgy (DLT_645_2007)
                                                   ReadCurveJl (DLT_645_2007)
                                                   ReadEnyD0Block (DLT_645_2007)
                                                   ReadFlash (CmpCode)
                                                   ReadHisEgy (DLT_645_2007)
                                                   ReadHisJSTime (DLT_645_2007)
                                                   ReadJL (DLT_645_2007)
                                                   ReadRSDLogItem (PrologFee)
                                                   ReadSQLogItem (PrologFee)
                                                   ReadVar (DLT_645_2007)
                                                   ReadZHLYEgy (DLT_645_2007)
                                                   RecoverDayDjData (Dataproc)
                                                   RecoverEnegyData (Dataproc)
                                                   RecoverJSRData (Dataproc)
                                                   RecoverRtcPara (RtcCpt)
                                                   Report (DLT_645_2007)
                                                   Rpt_Clr (Report)
                                                   RtcParaFsToE2 (RtcCpt)
                                                   RwDjData (DLT_645_2007)
                                                   RwLcdData (DLT_645_2007)
                                                   RwRamE2 (DLT_645_2007)
                                                   RwSqSd (DLT_645_2007)
                                                   RwSysTime (DLT_645_2007)
                                                   SaveJSTime (Energy)
                                                   Search1stEqualItem (LoadCurve)
                                                   SearchEqualItem (LoadCurve)
                                                   SetCRCWord (Dataproc)
                                                   SetRTCNormal (RtcCpt)
                                                   ShowDataProc (Lcdshow)
                                                   ShowNumManage (Lcdshow)
                                                   StructFreezeDate (Event)
                                                   SysE2ParaSetManage (DataProtect)
                                                   SysE2ReadData (DataProtect)
                                                   Uint8_To_Uint32 (Api)
                                                   getFee (Multariff)
                                                   getTimeZone (Multariff)
                                                   sqrt (?sqrt)

    -------------------------------------------------------------------------
  LIBRARY MODULE, NAME : ?DEALLOC_XSTACK8

  SEGMENTS IN THE MODULE
  ======================
RCODE
  Relative segment, address: CODE 00002201 - 0000221B (0x1b bytes), align: 0
  Segment part 0.
           ENTRY                   ADDRESS         REF BY
           =====                   =======         ======
           ?DEALLOC_XSTACK8        00002201        BCD2Hex (Api)
                                                   BD_ProcFrame (Prcfrm)
                                                   BE_ReadB (BEBottom)
                                                   BE_ReadP (BEBottom)
                                                   BE_ReadW (BEBottom)
                                                   BroadcastTime (DLT_645_2007)
                                                   CalCBRCount (Api)
                                                   CalCos (EnergyBottom)
                                                   CalPowDwTm (Dataproc)
                                                   CalRDJCount (Api)
                                                   CalRMS (EnergyBottom)
                                                   CalRTC (RtcCpt)
                                                   ChangeBode (DLT_645_2007)
                                                   ChangeBodeProc (McuDrive)
                                                   CheckCRCWord (Dataproc)
                                                   ClearEvent (DLT_645_2007)
                                                   ClockBAK_E2 (Timeproc)
                                                   CmpCode (DLT_645_2007)
                                                   ComCheckFormat (DataProtect)
                                                   ComMeterConst (DLT_645_2007)
                                                   ComRWE2Para (DLT_645_2007)
                                                   ComRdEvCnt (DLT_645_2007)
                                                   Com_ClearMeterJL (Event)
                                                   Com_JSJL (Event)
                                                   CoverCloseLog (Event)
                                                   CoverOpenLog (Event)
                                                   DataProcEvCountAdd (Dataproc)
                                                   DataProcRead2Slice (Dataproc)
                                                   DataProcWriteRound2 (Dataproc)
                                                   Data_ClearEvent (Event)
                                                   Data_ClearMeter (Dataproc)
                                                   Data_FactoryClr (Dataproc)
                                                   Disp_Numb (Lcdmiddle)
                                                   E2ParaCheck (DataProtect)
                                                   EnergyCBRManage (Energy)
                                                   EnyB_AutoChkAngle (EnergyBottom)
                                                   EnyB_AutoChkIrms (EnergyBottom)
                                                   EnyB_AutoChkPW (EnergyBottom)
                                                   EnyB_AutoChkUrms (EnergyBottom)
                                                   EnyB_JbPm_Updata (EnergyBottom)
                                                   EnyB_Open_Cf (EnergyBottom)
                                                   Eny_EnergyActiveSave (Energy)
                                                   Eny_EnergyClrCur (Energy)
                                                   Eny_JbPm_GetE2 (Energy)
                                                   Eny_PurCheckRAMEny (Energy)
                                                   Eny_RefCalcType (Energy)
                                                   Eny_RefVar (Energy)
                                                   FactoryRD (DLT_645_2007)
                                                   FactoryWR (DLT_645_2007)
                                                   GetBat (McuDrive)
                                                   GetExtRTC (McuDrive)
                                                   Hex2BCD (Api)
                                                   Init_Var (main)
                                                   IntBCD2Hex (Api)
                                                   IrShowLcd (DLT_645_2007)
                                                   IsJR (Multariff)
                                                   IsNumSD (Multariff)
                                                   IsNumSQ (Multariff)
                                                   IsValidSQ (Multariff)
                                                   IsZXR (Multariff)
                                                   Judge645Addr (Prcfrm)
                                                   JudgePassword (Prcfrm)
                                                   KeyPgm_DyOut (Key)
                                                   Ldc_DataProc (LoadCurve)
                                                   Ldc_Get1stRecord (LoadCurve)
                                                   Ldc_GetSeqRecord (LoadCurve)
                                                   Ldc_TimeAdd (LoadCurve)
                                                   Ldc_TimeSub (LoadCurve)
                                                   Ldc_TmMinCal (LoadCurve)
                                                   Ldc_ZoneChk (LoadCurve)
                                                   LoadCurveCheck (LoadCurve)
                                                   MCUForPowerOff (McuDrive)
                                                   Mcu_BatCal (McuDrive)
                                                   MonthLYDL (Energy)
                                                   PMDspInit (EnergyBottom)
                                                   Pow_DnProc (Powmanger)
                                                   PowerJL (Event)
                                                   ProJL (PrologFee)
                                                   PwBs_DyOut (Prcfrm)
                                                   RSDJLlog (PrologFee)
                                                   RWData (DLT_645_2007)
                                                   ReadAccuEgy (DLT_645_2007)
                                                   ReadCurEgy (DLT_645_2007)
                                                   ReadCurveJl (DLT_645_2007)
                                                   ReadEnyD0Block (DLT_645_2007)
                                                   ReadFlash (CmpCode)
                                                   ReadHisEgy (DLT_645_2007)
                                                   ReadHisJSTime (DLT_645_2007)
                                                   ReadJL (DLT_645_2007)
                                                   ReadRSDLogItem (PrologFee)
                                                   ReadSQLogItem (PrologFee)
                                                   ReadVar (DLT_645_2007)
                                                   ReadZHLYEgy (DLT_645_2007)
                                                   RecoverDayDjData (Dataproc)
                                                   RecoverEnegyData (Dataproc)
                                                   RecoverJSRData (Dataproc)
                                                   RecoverRtcPara (RtcCpt)
                                                   Report (DLT_645_2007)
                                                   Rpt_Clr (Report)
                                                   Rpt_Crc (Report)
                                                   Rpt_Recover (Report)
                                                   RtcParaFsToE2 (RtcCpt)
                                                   RwDjData (DLT_645_2007)
                                                   RwGGJR (DLT_645_2007)
                                                   RwLcdData (DLT_645_2007)
                                                   RwRamE2 (DLT_645_2007)
                                                   RwSqSd (DLT_645_2007)
                                                   RwSysTime (DLT_645_2007)
                                                   SaveJSTime (Energy)
                                                   SaveProgramLog (Event)
                                                   Search1stEqualItem (LoadCurve)
                                                   SearchEqualItem (LoadCurve)
                                                   SeekDataID (PrologFee)
                                                   SetCRCWord (Dataproc)
                                                   SetRTCNormal (RtcCpt)
                                                   ShowDataProc (Lcdshow)
                                                   ShowNumManage (Lcdshow)
                                                   ShowRefresh (Lcdshow)
                                                   SleepTimeProc (Timeproc)
                                                   SoftClockCheck (Timeproc)
                                                   StructFreezeDate (Event)
                                                   SysE2ParaSetManage (DataProtect)
                                                   SysE2ReadData (DataProtect)
                                                   Uint8_To_Uint32 (Api)
                                                   Up_FunCfg (FunCfg)
                                                   WriteHisEP (Energy)
                                                   getFee (Multariff)
                                                   getTimeZone (Multariff)
                                                   sqrt (?sqrt)

    -------------------------------------------------------------------------
  LIBRARY MODULE, NAME : ?ADD_XSTACK_DISP8

  SEGMENTS IN THE MODULE
  ======================
RCODE
  Relative segment, address: CODE 0000221C - 00002236 (0x1b bytes), align: 0
  Segment part 1.
           ENTRY                   ADDRESS         REF BY
           =====                   =======         ======
           ?ADD_XSTACK_DISP0_8     0000221C        ?PUSH_XSTACK_I (?PUSH_XSTACK_I)

    -------------------------------------------------------------------------
  LIBRARY MODULE, NAME : ?XSTACK_DISP8

  SEGMENTS IN THE MODULE
  ======================
RCODE
  Relative segment, address: CODE 00002237 - 00002240 (0xa bytes), align: 0
  Segment part 1.
           ENTRY                   ADDRESS         REF BY
           =====                   =======         ======
           ?XSTACK_DISP0_8         00002237        BCD2Hex (Api)
                                                   BD_ProcFrame (Prcfrm)
                                                   BE_ReadB (BEBottom)
                                                   BE_ReadP (BEBottom)
                                                   BE_ReadW (BEBottom)
                                                   BE_WriteP (BEBottom)
                                                   CalCBRCount (Api)
                                                   CalCos (EnergyBottom)
                                                   CalRDJCount (Api)
                                                   CalRMS (EnergyBottom)
                                                   CalRTC (RtcCpt)
                                                   CalculateAC (EnergyBottom)
                                                   CalculateSC (EnergyBottom)
                                                   CheckCRCWord (Dataproc)
                                                   CmpCode (DLT_645_2007)
                                                   CodeEncrypt (CmpCode)
                                                   ComCheckFormat (DataProtect)
                                                   ComRWE2Para (DLT_645_2007)
                                                   Com_JSJL (Event)
                                                   CoverCloseLog (Event)
                                                   CoverOpenLog (Event)
                                                   DataProcEvCountAdd (Dataproc)
                                                   DataProcRead2Slice (Dataproc)
                                                   DataProcWriteRound2 (Dataproc)
                                                   Disp_Numb (Lcdmiddle)
                                                   E2ParaCheck (DataProtect)
                                                   EnergyCBRManage (Energy)
                                                   EnyB_AutoChkAngle (EnergyBottom)
                                                   EnyB_AutoChkIrms (EnergyBottom)
                                                   EnyB_AutoChkPW (EnergyBottom)
                                                   EnyB_AutoChkUrms (EnergyBottom)
                                                   EnyB_SetMeterCfgACK (EnergyBottom)
                                                   Eny_EnergyActiveSave (Energy)
                                                   Eny_JbPm_GetE2 (Energy)
                                                   Eny_PurCheckRAMEny (Energy)
                                                   FactoryWR (DLT_645_2007)
                                                   GetBat (McuDrive)
                                                   Hex2BCD (Api)
                                                   IntBCD2Hex (Api)
                                                   IsJR (Multariff)
                                                   IsValidSQ (Multariff)
                                                   IsZXR (Multariff)
                                                   Ldc_DataProc (LoadCurve)
                                                   Ldc_Get1stRecord (LoadCurve)
                                                   Ldc_TimeAdd (LoadCurve)
                                                   Ldc_TimeCal (LoadCurve)
                                                   Ldc_TimeSub (LoadCurve)
                                                   Ldc_ZoneChk (LoadCurve)
                                                   LoadCurveCheck (LoadCurve)
                                                   Mcu_BatCal (McuDrive)
                                                   MidFindID (DLT_645_2007)
                                                   MonthLYDL (Energy)
                                                   MoveBuffer (Api)
                                                   Pow_DnProc (Powmanger)
                                                   RSDJLlog (PrologFee)
                                                   RWData (DLT_645_2007)
                                                   ReadAccuEgy (DLT_645_2007)
                                                   ReadCurEgy (DLT_645_2007)
                                                   ReadEnyD0Block (DLT_645_2007)
                                                   ReadFlash (CmpCode)
                                                   ReadHisEgy (DLT_645_2007)
                                                   ReadJL (DLT_645_2007)
                                                   ReadRSDLogItem (PrologFee)
                                                   ReadSQLogItem (PrologFee)
                                                   ReadVar (DLT_645_2007)
                                                   ReadZHLYEgy (DLT_645_2007)
                                                   RecoverDayDjData (Dataproc)
                                                   RecoverEnegyData (Dataproc)
                                                   RecoverJSRData (Dataproc)
                                                   RecoverRtcPara (RtcCpt)
                                                   RwDjData (DLT_645_2007)
                                                   RwRamE2 (DLT_645_2007)
                                                   RwSqSd (DLT_645_2007)
                                                   Search1stEqualItem (LoadCurve)
                                                   SearchDispNO (Lcdshow)
                                                   SearchEqualItem (LoadCurve)
                                                   Search_Pos (Multariff)
                                                   Search_SdNum (Multariff)
                                                   SeekDataID (PrologFee)
                                                   SetCRCWord (Dataproc)
                                                   SetRTCNormal (RtcCpt)
                                                   ShowDataProc (Lcdshow)
                                                   ShowNumManage (Lcdshow)
                                                   StructFreezeDate (Event)
                                                   SysE2ParaSetManage (DataProtect)
                                                   Uint8_To_Uint32 (Api)
                                                   frexp (?frexp)
                                                   getFee (Multariff)
                                                   sqrt (?sqrt)

    -------------------------------------------------------------------------
  LIBRARY MODULE, NAME : ?XSTACK_DISP8_RP

  SEGMENTS IN THE MODULE
  ======================
RCODE
  Relative segment, address: CODE 00002241 - 00002248 (0x8 bytes), align: 0
  Segment part 0.
           ENTRY                   ADDRESS         REF BY
           =====                   =======         ======
           ?XSTACK_DISP100_8       00002241        CalRTC (RtcCpt)
                                                   ComRWE2Para (DLT_645_2007)
                                                   DataProcEvCountAdd (Dataproc)
                                                   EnergyCBRManage (Energy)
                                                   IsJR (Multariff)
                                                   IsValidSQ (Multariff)
                                                   IsZXR (Multariff)
                                                   JudgePassword (Prcfrm)
                                                   Ldc_ZoneChk (LoadCurve)
                                                   LoadCurveCheck (LoadCurve)
                                                   MonthLYDL (Energy)
                                                   ReadHisEgy (DLT_645_2007)
                                                   ReadJL (DLT_645_2007)
                                                   ReadRSDLogItem (PrologFee)
                                                   ReadSQLogItem (PrologFee)
                                                   ReadZHLYEgy (DLT_645_2007)
                                                   RecoverDayDjData (Dataproc)
                                                   RecoverJSRData (Dataproc)
                                                   RwDjData (DLT_645_2007)
                                                   SearchEqualItem (LoadCurve)
                                                   SysE2ParaSetManage (DataProtect)
                                                   getFee (Multariff)
    -------------------------------------------------------------------------
RCODE
  Relative segment, address: CODE 00002249 - 00002250 (0x8 bytes), align: 0
  Segment part 1.
           ENTRY                   ADDRESS         REF BY
           =====                   =======         ======
           ?XSTACK_DISP101_8       00002249        BroadcastTime (DLT_645_2007)
                                                   CalRTC (RtcCpt)
                                                   CmpCode (DLT_645_2007)
                                                   ComCheckFormat (DataProtect)
                                                   FactoryWR (DLT_645_2007)
                                                   IrShowLcd (DLT_645_2007)
                                                   IsJR (Multariff)
                                                   IsNumSD (Multariff)
                                                   IsNumSQ (Multariff)
                                                   IsValidSQ (Multariff)
                                                   JudgePassword (Prcfrm)
                                                   Ldc_TimeSub (LoadCurve)
                                                   LoadCurveCheck (LoadCurve)
                                                   RecoverDayDjData (Dataproc)
                                                   RecoverJSRData (Dataproc)
                                                   SysE2ParaSetManage (DataProtect)
                                                   getFee (Multariff)
    -------------------------------------------------------------------------
RCODE
  Relative segment, address: CODE 00002251 - 00002258 (0x8 bytes), align: 0
  Segment part 2.
           ENTRY                   ADDRESS         REF BY
           =====                   =======         ======
           ?XSTACK_DISP102_8       00002251        CalRTC (RtcCpt)
                                                   ComRWE2Para (DLT_645_2007)
                                                   FactoryWR (DLT_645_2007)
                                                   IrShowLcd (DLT_645_2007)
                                                   RSDJLlog (PrologFee)
                                                   ReadHisEgy (DLT_645_2007)
                                                   ReadVar (DLT_645_2007)
                                                   ReadZHLYEgy (DLT_645_2007)
                                                   RecoverDayDjData (Dataproc)
                                                   RecoverEnegyData (Dataproc)
                                                   RecoverJSRData (Dataproc)
                                                   RwDjData (DLT_645_2007)
                                                   StructFreezeDate (Event)

    -------------------------------------------------------------------------
  LIBRARY MODULE, NAME : ?CALL_IND

  SEGMENTS IN THE MODULE
  ======================
RCODE
  Relative segment, address: CODE 00002259 - 0000225A (0x2 bytes), align: 0
  Segment part 0.
           ENTRY                   ADDRESS         REF BY
           =====                   =======         ======
           ?CALL_IND               00002259        BD_ProcFrame (Prcfrm)
                                                   RWData (DLT_645_2007)

    -------------------------------------------------------------------------
  LIBRARY MODULE, NAME : ?BANKED_ENTER_XDATA

  SEGMENTS IN THE MODULE
  ======================
RCODE
  Relative segment, address: CODE 0000225B - 000022C6 (0x6c bytes), align: 0
  Segment part 1.
           ENTRY                   ADDRESS         REF BY
           =====                   =======         ======
           ?BANKED_ENTER_XDATA     0000225B        APIByteBCD2HEX (Api)
                                                   APIByteHEX2BCD (Api)
                                                   ApiBufCmp (Api)
                                                   ApiRevBufCmp (Api)
                                                   ApiReverseData (Api)
                                                   BCD2Hex (Api)
                                                   BD_ProcFrame (Prcfrm)
                                                   BE_ReadB (BEBottom)
                                                   BE_ReadP (BEBottom)
                                                   BE_ReadW (BEBottom)
                                                   BE_WriteP (BEBottom)
                                                   BgCtrFun (McuDrive)
                                                   BroadcastTime (DLT_645_2007)
                                                   CalCBRCount (Api)
                                                   CalCos (EnergyBottom)
                                                   CalDayBack (Dataproc)
                                                   CalPowDwTm (Dataproc)
                                                   CalRDJCount (Api)
                                                   CalRMS (EnergyBottom)
                                                   CalRTC (RtcCpt)
                                                   CalcAbsDay (Timeproc)
                                                   CalcAbsSecond (Timeproc)
                                                   CalcAbsTime (Timeproc)
                                                   CalcTimeGap (Timeproc)
                                                   CalcWeek (Timeproc)
                                                   CalculateAC (EnergyBottom)
                                                   CalculateSC (EnergyBottom)
                                                   CfgCheck (FunCfg)
                                                   ChangeBode (DLT_645_2007)
                                                   ChangePassWord (DLT_645_2007)
                                                   CheckCRCWord (Dataproc)
                                                   CheckSdFormat (DataProtect)
                                                   CheckSqFormat (DataProtect)
                                                   CheckTime (Timeproc)
                                                   ClRCRCWord (Dataproc)
                                                   ClearEvent (DLT_645_2007)
                                                   ClearMeter (DLT_645_2007)
                                                   ClockBAK_E2 (Timeproc)
                                                   ClockCheck (Timeproc)
                                                   CmpCode (DLT_645_2007)
                                                   CmpTm (LoadCurve)
                                                   CodeEncrypt (CmpCode)
                                                   ComApp_Proc (ComApplication)
                                                   ComBom_InitAll (ComBottom)
                                                   ComBom_StartSend (ComBottom)
                                                   ComCheckFormat (DataProtect)
                                                   ComMeterConst (DLT_645_2007)
                                                   ComRWE2Para (DLT_645_2007)
                                                   ComRdEvCnt (DLT_645_2007)
                                                   ComReadRunCode (DLT_645_2007)
                                                   Com_ClearEventJL (Event)
                                                   Com_ClearMeterJL (Event)
                                                   Com_JSJL (Event)
                                                   CoverCloseLog (Event)
                                                   CoverOpenLog (Event)
                                                   DataCheck (DataProtect)
                                                   DataProcEvCountAdd (Dataproc)
                                                   DataProcRead2Slice (Dataproc)
                                                   DataProcWriteRound2 (Dataproc)
                                                   DataSecurityInit (DataProtect)
                                                   Data_ClearEvent (Event)
                                                   Data_ClearMeter (Dataproc)
                                                   Data_FactoryClr (Dataproc)
                                                   Decode645Frame (Prcfrm)
                                                   DelayOSC (McuDrive)
                                                   Disp_Numb (Lcdmiddle)
                                                   Disp_State (Lcdmiddle)
                                                   Disp_String (Lcdmiddle)
                                                   Disp_UnitPoint (Lcdmiddle)
                                                   Do33 (Prcfrm)
                                                   DoSum (Prcfrm)
                                                   E2ParaCheck (DataProtect)
                                                   Encode645Frame (Prcfrm)
                                                   EnergyCBRManage (Energy)
                                                   EnyB_AutoChkAngle (EnergyBottom)
                                                   EnyB_AutoChkIrms (EnergyBottom)
                                                   EnyB_AutoChkPW (EnergyBottom)
                                                   EnyB_AutoChkUrms (EnergyBottom)
                                                   EnyB_Check_OC (EnergyBottom)
                                                   EnyB_Check_PowRev (EnergyBottom)
                                                   EnyB_JbPm_Updata (EnergyBottom)
                                                   EnyB_Open_Cf (EnergyBottom)
                                                   EnyB_ReadMeterParaACK (EnergyBottom)
                                                   EnyB_SetMeterCfgACK (EnergyBottom)
                                                   Eny_CheckEnergy (Energy)
                                                   Eny_CheckEnergyActiveRAM (Energy)
                                                   Eny_EnergyActiveSave (Energy)
                                                   Eny_EnergyClrCur (Energy)
                                                   Eny_EnergyProc (Energy)
                                                   Eny_GetEp1 (Energy)
                                                   Eny_JbPm_GetE2 (Energy)
                                                   Eny_JbPm_MeterConst (Energy)
                                                   Eny_PurCheckRAMEny (Energy)
                                                   Eny_RefCalcType (Energy)
                                                   Eny_RefVar (Energy)
                                                   FactoryRD (DLT_645_2007)
                                                   FactoryWR (DLT_645_2007)
                                                   Freeze (DLT_645_2007)
                                                   GetBat (McuDrive)
                                                   GetFactor (CmpCode)
                                                   Hex2BCD (Api)
                                                   HourAndMinToMin (Api)
                                                   Init_Var (main)
                                                   IntBCD2Hex (Api)
                                                   IntHex2BCD (Api)
                                                   IrShowLcd (DLT_645_2007)
                                                   IsJR (Multariff)
                                                   IsNumSD (Multariff)
                                                   IsNumSQ (Multariff)
                                                   IsValidFrame (Prcfrm)
                                                   IsValidSQ (Multariff)
                                                   IsZXR (Multariff)
                                                   Judge645Addr (Prcfrm)
                                                   Judge645Frm (Prcfrm)
                                                   JudgeIsNum (Api)
                                                   JudgeJSR (Dataproc)
                                                   JudgePassword (Prcfrm)
                                                   JudgePowerDnValue (Powmanger)
                                                   KeyPgm_DyOut (Key)
                                                   KeyScan (Key)
                                                   Ldc_BuildFakeFrm (LoadCurve)
                                                   Ldc_BuildFrame (LoadCurve)
                                                   Ldc_DataProc (LoadCurve)
                                                   Ldc_Get1stRecord (LoadCurve)
                                                   Ldc_GetSeqRecord (LoadCurve)
                                                   Ldc_TimeAdd (LoadCurve)
                                                   Ldc_TimeCal (LoadCurve)
                                                   Ldc_TimeSub (LoadCurve)
                                                   Ldc_TmMinCal (LoadCurve)
                                                   Ldc_ZoneChk (LoadCurve)
                                                   LoadCurveCheck (LoadCurve)
                                                   MCUForPowerOff (McuDrive)
                                                   Mcu_BatCal (McuDrive)
                                                   MemInvertCpy (Api)
                                                   MidFindID (DLT_645_2007)
                                                   MonthLYDL (Energy)
                                                   MoveBuffer (Api)
                                                   PMDspInit (EnergyBottom)
                                                   PowUpLedCtl (McuDrive)
                                                   Pow_DnProc (Powmanger)
                                                   PowerJL (Event)
                                                   ProJL (PrologFee)
                                                   PwBs_DyOut (Prcfrm)
                                                   RSDJLlog (PrologFee)
                                                   RTCCheck (Timeproc)
                                                   RTCWakeUpTm (McuDrive)
                                                   RWData (DLT_645_2007)
                                                   ReadAccuEgy (DLT_645_2007)
                                                   ReadCurEgy (DLT_645_2007)
                                                   ReadCurveJl (DLT_645_2007)
                                                   ReadEnyD0Block (DLT_645_2007)
                                                   ReadFlash (CmpCode)
                                                   ReadHisEgy (DLT_645_2007)
                                                   ReadHisJSTime (DLT_645_2007)
                                                   ReadJL (DLT_645_2007)
                                                   ReadMeterAddr (DLT_645_2007)
                                                   ReadRSDLogItem (PrologFee)
                                                   ReadSQLogItem (PrologFee)
                                                   ReadSwVersion (DLT_645_2007)
                                                   ReadVar (DLT_645_2007)
                                                   ReadZHLYEgy (DLT_645_2007)
                                                   RecoverDayDjData (Dataproc)
                                                   RecoverEnegyData (Dataproc)
                                                   RecoverJSRData (Dataproc)
                                                   RecoverRtcPara (RtcCpt)
                                                   RecoverRunPara (Dataproc)
                                                   RefreshLCDRAM (LcdBottom)
                                                   Report (DLT_645_2007)
                                                   Rpt_Clr (Report)
                                                   Rpt_Crc (Report)
                                                   Rpt_Recover (Report)
                                                   Rpt_StaBitClr (Report)
                                                   Rpt_StaFlgClr (Report)
                                                   Rpt_StaSet (Report)
                                                   Rpt_UpdateSta (Report)
                                                   RtcParaFsToE2 (RtcCpt)
                                                   RwDjData (DLT_645_2007)
                                                   RwGGJR (DLT_645_2007)
                                                   RwLcdData (DLT_645_2007)
                                                   RwRamE2 (DLT_645_2007)
                                                   RwSqSd (DLT_645_2007)
                                                   RwSysTime (DLT_645_2007)
                                                   SaveProgramLog (Event)
                                                   Search1stEqualItem (LoadCurve)
                                                   SearchDispNO (Lcdshow)
                                                   SearchEqualItem (LoadCurve)
                                                   Search_Pos (Multariff)
                                                   Search_SdNum (Multariff)
                                                   SecPulsCtrl (DLT_645_2007)
                                                   SeekDataID (PrologFee)
                                                   SetCRCWord (Dataproc)
                                                   SetRTCNormal (RtcCpt)
                                                   SetSysClock (Timeproc)
                                                   ShowDataProc (Lcdshow)
                                                   ShowNumManage (Lcdshow)
                                                   ShowRefresh (Lcdshow)
                                                   ShowSecondProc (Lcdshow)
                                                   ShowStateFlashManage (Lcdshow)
                                                   ShowStateManage (Lcdshow)
                                                   ShowSysStart (Lcdshow)
                                                   SleepTimeProc (Timeproc)
                                                   SoftClockCheck (Timeproc)
                                                   StructFreezeDate (Event)
                                                   SysE2ParaSetManage (DataProtect)
                                                   SysE2ReadData (DataProtect)
                                                   TimerProc (Timeproc)
                                                   Uart1_Receive (Uart1)
                                                   Uart1_Transmit (Uart1)
                                                   Uart2_Receive (Uart2)
                                                   Uart2_Transmit (Uart2)
                                                   Uart4_Receive (Uart4)
                                                   Uart4_Transmit (Uart4)
                                                   Uart_Proc (ComApplication)
                                                   UnDo33 (Prcfrm)
                                                   Up_FunCfg (FunCfg)
                                                   ValidTime (Timeproc)
                                                   WrPassWord (DLT_645_2007)
                                                   WriteHisEP (Energy)
                                                   WriteMeterAddr (DLT_645_2007)
                                                   do_CRC (Api)
                                                   frexp (?frexp)
                                                   getFee (Multariff)
                                                   getTimeZone (Multariff)
                                                   sqrt (?sqrt)

    -------------------------------------------------------------------------
  LIBRARY MODULE, NAME : ?BANKED_LEAVE_XDATA

  SEGMENTS IN THE MODULE
  ======================
RCODE
  Relative segment, address: CODE 000022C7 - 0000230C (0x46 bytes), align: 0
  Segment part 1.
           ENTRY                   ADDRESS         REF BY
           =====                   =======         ======
           ?BANKED_LEAVE_XDATA     000022C7        APIByteBCD2HEX (Api)
                                                   APIByteHEX2BCD (Api)
                                                   ApiBufCmp (Api)
                                                   ApiRevBufCmp (Api)
                                                   ApiReverseData (Api)
                                                   BCD2Hex (Api)
                                                   BD_ProcFrame (Prcfrm)
                                                   BE_ReadB (BEBottom)
                                                   BE_ReadP (BEBottom)
                                                   BE_ReadW (BEBottom)
                                                   BE_WriteP (BEBottom)
                                                   BgCtrFun (McuDrive)
                                                   BroadcastTime (DLT_645_2007)
                                                   CalCBRCount (Api)
                                                   CalCos (EnergyBottom)
                                                   CalDayBack (Dataproc)
                                                   CalPowDwTm (Dataproc)
                                                   CalRDJCount (Api)
                                                   CalRMS (EnergyBottom)
                                                   CalRTC (RtcCpt)
                                                   CalcAbsDay (Timeproc)
                                                   CalcAbsSecond (Timeproc)
                                                   CalcAbsTime (Timeproc)
                                                   CalcTimeGap (Timeproc)
                                                   CalcWeek (Timeproc)
                                                   CalculateAC (EnergyBottom)
                                                   CalculateSC (EnergyBottom)
                                                   CfgCheck (FunCfg)
                                                   ChangeBode (DLT_645_2007)
                                                   ChangePassWord (DLT_645_2007)
                                                   CheckCRCWord (Dataproc)
                                                   CheckSdFormat (DataProtect)
                                                   CheckSqFormat (DataProtect)
                                                   CheckTime (Timeproc)
                                                   ClRCRCWord (Dataproc)
                                                   ClearEvent (DLT_645_2007)
                                                   ClearMeter (DLT_645_2007)
                                                   ClockBAK_E2 (Timeproc)
                                                   ClockCheck (Timeproc)
                                                   CmpCode (DLT_645_2007)
                                                   CmpTm (LoadCurve)
                                                   CodeEncrypt (CmpCode)
                                                   ComApp_Proc (ComApplication)
                                                   ComBom_InitAll (ComBottom)
                                                   ComBom_StartSend (ComBottom)
                                                   ComCheckFormat (DataProtect)
                                                   ComMeterConst (DLT_645_2007)
                                                   ComRWE2Para (DLT_645_2007)
                                                   ComRdEvCnt (DLT_645_2007)
                                                   ComReadRunCode (DLT_645_2007)
                                                   Com_ClearEventJL (Event)
                                                   Com_ClearMeterJL (Event)
                                                   Com_JSJL (Event)
                                                   CoverCloseLog (Event)
                                                   CoverOpenLog (Event)
                                                   DataCheck (DataProtect)
                                                   DataProcEvCountAdd (Dataproc)
                                                   DataProcRead2Slice (Dataproc)
                                                   DataProcWriteRound2 (Dataproc)
                                                   DataSecurityInit (DataProtect)
                                                   Data_ClearEvent (Event)
                                                   Data_ClearMeter (Dataproc)
                                                   Data_FactoryClr (Dataproc)
                                                   Decode645Frame (Prcfrm)
                                                   DelayOSC (McuDrive)
                                                   Disp_Numb (Lcdmiddle)
                                                   Disp_State (Lcdmiddle)
                                                   Disp_String (Lcdmiddle)
                                                   Disp_UnitPoint (Lcdmiddle)
                                                   Do33 (Prcfrm)
                                                   DoSum (Prcfrm)
                                                   E2ParaCheck (DataProtect)
                                                   Encode645Frame (Prcfrm)
                                                   EnergyCBRManage (Energy)
                                                   EnyB_AutoChkAngle (EnergyBottom)
                                                   EnyB_AutoChkIrms (EnergyBottom)
                                                   EnyB_AutoChkPW (EnergyBottom)
                                                   EnyB_AutoChkUrms (EnergyBottom)
                                                   EnyB_Check_OC (EnergyBottom)
                                                   EnyB_Check_PowRev (EnergyBottom)
                                                   EnyB_JbPm_Updata (EnergyBottom)
                                                   EnyB_Open_Cf (EnergyBottom)
                                                   EnyB_ReadMeterParaACK (EnergyBottom)
                                                   EnyB_SetMeterCfgACK (EnergyBottom)
                                                   Eny_CheckEnergy (Energy)
                                                   Eny_CheckEnergyActiveRAM (Energy)
                                                   Eny_EnergyActiveSave (Energy)
                                                   Eny_EnergyClrCur (Energy)
                                                   Eny_EnergyProc (Energy)
                                                   Eny_GetEp1 (Energy)
                                                   Eny_JbPm_GetE2 (Energy)
                                                   Eny_JbPm_MeterConst (Energy)
                                                   Eny_PurCheckRAMEny (Energy)
                                                   Eny_RefCalcType (Energy)
                                                   Eny_RefVar (Energy)
                                                   FactoryRD (DLT_645_2007)
                                                   FactoryWR (DLT_645_2007)
                                                   Freeze (DLT_645_2007)
                                                   GetBat (McuDrive)
                                                   GetFactor (CmpCode)
                                                   Hex2BCD (Api)
                                                   HourAndMinToMin (Api)
                                                   Init_Var (main)
                                                   IntBCD2Hex (Api)
                                                   IntHex2BCD (Api)
                                                   IrShowLcd (DLT_645_2007)
                                                   IsJR (Multariff)
                                                   IsNumSD (Multariff)
                                                   IsNumSQ (Multariff)
                                                   IsValidFrame (Prcfrm)
                                                   IsValidSQ (Multariff)
                                                   IsZXR (Multariff)
                                                   Judge645Addr (Prcfrm)
                                                   Judge645Frm (Prcfrm)
                                                   JudgeIsNum (Api)
                                                   JudgeJSR (Dataproc)
                                                   JudgePassword (Prcfrm)
                                                   JudgePowerDnValue (Powmanger)
                                                   KeyPgm_DyOut (Key)
                                                   KeyScan (Key)
                                                   Ldc_BuildFakeFrm (LoadCurve)
                                                   Ldc_BuildFrame (LoadCurve)
                                                   Ldc_DataProc (LoadCurve)
                                                   Ldc_Get1stRecord (LoadCurve)
                                                   Ldc_GetSeqRecord (LoadCurve)
                                                   Ldc_TimeAdd (LoadCurve)
                                                   Ldc_TimeCal (LoadCurve)
                                                   Ldc_TimeSub (LoadCurve)
                                                   Ldc_TmMinCal (LoadCurve)
                                                   Ldc_ZoneChk (LoadCurve)
                                                   LoadCurveCheck (LoadCurve)
                                                   MCUForPowerOff (McuDrive)
                                                   Mcu_BatCal (McuDrive)
                                                   MemInvertCpy (Api)
                                                   MidFindID (DLT_645_2007)
                                                   MonthLYDL (Energy)
                                                   MoveBuffer (Api)
                                                   PMDspInit (EnergyBottom)
                                                   PowUpLedCtl (McuDrive)
                                                   Pow_DnProc (Powmanger)
                                                   PowerJL (Event)
                                                   ProJL (PrologFee)
                                                   PwBs_DyOut (Prcfrm)
                                                   RSDJLlog (PrologFee)
                                                   RTCCheck (Timeproc)
                                                   RTCWakeUpTm (McuDrive)
                                                   RWData (DLT_645_2007)
                                                   ReadAccuEgy (DLT_645_2007)
                                                   ReadCurEgy (DLT_645_2007)
                                                   ReadCurveJl (DLT_645_2007)
                                                   ReadEnyD0Block (DLT_645_2007)
                                                   ReadFlash (CmpCode)
                                                   ReadHisEgy (DLT_645_2007)
                                                   ReadHisJSTime (DLT_645_2007)
                                                   ReadJL (DLT_645_2007)
                                                   ReadMeterAddr (DLT_645_2007)
                                                   ReadRSDLogItem (PrologFee)
                                                   ReadSQLogItem (PrologFee)
                                                   ReadSwVersion (DLT_645_2007)
                                                   ReadVar (DLT_645_2007)
                                                   ReadZHLYEgy (DLT_645_2007)
                                                   RecoverDayDjData (Dataproc)
                                                   RecoverEnegyData (Dataproc)
                                                   RecoverJSRData (Dataproc)
                                                   RecoverRtcPara (RtcCpt)
                                                   RecoverRunPara (Dataproc)
                                                   RefreshLCDRAM (LcdBottom)
                                                   Report (DLT_645_2007)
                                                   Rpt_Clr (Report)
                                                   Rpt_Crc (Report)
                                                   Rpt_Recover (Report)
                                                   Rpt_StaBitClr (Report)
                                                   Rpt_StaFlgClr (Report)
                                                   Rpt_StaSet (Report)
                                                   Rpt_UpdateSta (Report)
                                                   RtcParaFsToE2 (RtcCpt)
                                                   RwDjData (DLT_645_2007)
                                                   RwGGJR (DLT_645_2007)
                                                   RwLcdData (DLT_645_2007)
                                                   RwRamE2 (DLT_645_2007)
                                                   RwSqSd (DLT_645_2007)
                                                   RwSysTime (DLT_645_2007)
                                                   SaveProgramLog (Event)
                                                   Search1stEqualItem (LoadCurve)
                                                   SearchDispNO (Lcdshow)
                                                   SearchEqualItem (LoadCurve)
                                                   Search_Pos (Multariff)
                                                   Search_SdNum (Multariff)
                                                   SecPulsCtrl (DLT_645_2007)
                                                   SeekDataID (PrologFee)
                                                   SetCRCWord (Dataproc)
                                                   SetRTCNormal (RtcCpt)
                                                   SetSysClock (Timeproc)
                                                   ShowDataProc (Lcdshow)
                                                   ShowNumManage (Lcdshow)
                                                   ShowRefresh (Lcdshow)
                                                   ShowSecondProc (Lcdshow)
                                                   ShowStateFlashManage (Lcdshow)
                                                   ShowStateManage (Lcdshow)
                                                   ShowSysStart (Lcdshow)
                                                   SleepTimeProc (Timeproc)
                                                   SoftClockCheck (Timeproc)
                                                   StructFreezeDate (Event)
                                                   SysE2ParaSetManage (DataProtect)
                                                   SysE2ReadData (DataProtect)
                                                   TimerProc (Timeproc)
                                                   Uart1_Receive (Uart1)
                                                   Uart1_Transmit (Uart1)
                                                   Uart2_Receive (Uart2)
                                                   Uart2_Transmit (Uart2)
                                                   Uart4_Receive (Uart4)
                                                   Uart4_Transmit (Uart4)
                                                   Uart_Proc (ComApplication)
                                                   UnDo33 (Prcfrm)
                                                   Up_FunCfg (FunCfg)
                                                   ValidTime (Timeproc)
                                                   WrPassWord (DLT_645_2007)
                                                   WriteHisEP (Energy)
                                                   WriteMeterAddr (DLT_645_2007)
                                                   do_CRC (Api)
                                                   frexp (?frexp)
                                                   getFee (Multariff)
                                                   getTimeZone (Multariff)
                                                   sqrt (?sqrt)

    -------------------------------------------------------------------------
  LIBRARY MODULE, NAME : ?PUSH_XSTACK_I

  SEGMENTS IN THE MODULE
  ======================
RCODE
  Relative segment, address: CODE 0000230D - 00002310 (0x4 bytes), align: 0
  Segment part 0.
           ENTRY                   ADDRESS         REF BY
           =====                   =======         ======
           ?PUSH_XSTACK_I_FOUR     0000230D        EnyB_AutoChkIrms (EnergyBottom)
                                                   Ldc_Get1stRecord (LoadCurve)
                                                   Ldc_GetSeqRecord (LoadCurve)
                                                   Ldc_TimeSub (LoadCurve)
                                                   ReadCurveJl (DLT_645_2007)
    -------------------------------------------------------------------------
RCODE
  Relative segment, address: CODE 00002311 - 00002314 (0x4 bytes), align: 0
  Segment part 2.
           ENTRY                   ADDRESS         REF BY
           =====                   =======         ======
           ?PUSH_XSTACK_I_TWO      00002311        BroadcastTime (DLT_645_2007)
                                                   CalPowDwTm (Dataproc)
                                                   CalRTC (RtcCpt)
                                                   ClockBAK_E2 (Timeproc)
                                                   CmpCode (DLT_645_2007)
                                                   ComRWE2Para (DLT_645_2007)
                                                   ComRdEvCnt (DLT_645_2007)
                                                   CoverCloseLog (Event)
                                                   DataProcEvCountAdd (Dataproc)
                                                   DataProcRead2Slice (Dataproc)
                                                   DataProcWriteRound2 (Dataproc)
                                                   Data_ClearEvent (Event)
                                                   Data_ClearMeter (Dataproc)
                                                   Data_FactoryClr (Dataproc)
                                                   E2ParaCheck (DataProtect)
                                                   EnergyCBRManage (Energy)
                                                   EnyB_AutoChkAngle (EnergyBottom)
                                                   EnyB_AutoChkIrms (EnergyBottom)
                                                   EnyB_AutoChkPW (EnergyBottom)
                                                   EnyB_AutoChkUrms (EnergyBottom)
                                                   EnyB_JbPm_Updata (EnergyBottom)
                                                   EnyB_Open_Cf (EnergyBottom)
                                                   Eny_EnergyActiveSave (Energy)
                                                   Eny_EnergyClrCur (Energy)
                                                   Eny_JbPm_GetE2 (Energy)
                                                   Eny_PurCheckRAMEny (Energy)
                                                   Eny_RefCalcType (Energy)
                                                   Eny_RefVar (Energy)
                                                   FactoryRD (DLT_645_2007)
                                                   FactoryWR (DLT_645_2007)
                                                   Init_Var (main)
                                                   IsJR (Multariff)
                                                   IsNumSD (Multariff)
                                                   IsNumSQ (Multariff)
                                                   IsValidSQ (Multariff)
                                                   IsZXR (Multariff)
                                                   Judge645Addr (Prcfrm)
                                                   JudgePassword (Prcfrm)
                                                   KeyPgm_DyOut (Key)
                                                   Ldc_Get1stRecord (LoadCurve)
                                                   Ldc_GetSeqRecord (LoadCurve)
                                                   Ldc_ZoneChk (LoadCurve)
                                                   LoadCurveCheck (LoadCurve)
                                                   MCUForPowerOff (McuDrive)
                                                   MonthLYDL (Energy)
                                                   PMDspInit (EnergyBottom)
                                                   Pow_DnProc (Powmanger)
                                                   PowerJL (Event)
                                                   ProJL (PrologFee)
                                                   PwBs_DyOut (Prcfrm)
                                                   RSDJLlog (PrologFee)
                                                   ReadAccuEgy (DLT_645_2007)
                                                   ReadEnyD0Block (DLT_645_2007)
                                                   ReadHisEgy (DLT_645_2007)
                                                   ReadHisJSTime (DLT_645_2007)
                                                   ReadJL (DLT_645_2007)
                                                   ReadRSDLogItem (PrologFee)
                                                   ReadSQLogItem (PrologFee)
                                                   ReadZHLYEgy (DLT_645_2007)
                                                   RecoverDayDjData (Dataproc)
                                                   RecoverEnegyData (Dataproc)
                                                   RecoverJSRData (Dataproc)
                                                   RecoverRtcPara (RtcCpt)
                                                   Rpt_Crc (Report)
                                                   Rpt_Recover (Report)
                                                   RwDjData (DLT_645_2007)
                                                   RwGGJR (DLT_645_2007)
                                                   RwLcdData (DLT_645_2007)
                                                   RwRamE2 (DLT_645_2007)
                                                   RwSqSd (DLT_645_2007)
                                                   RwSysTime (DLT_645_2007)
                                                   SaveProgramLog (Event)
                                                   Search1stEqualItem (LoadCurve)
                                                   SearchEqualItem (LoadCurve)
                                                   SeekDataID (PrologFee)
                                                   ShowDataProc (Lcdshow)
                                                   ShowNumManage (Lcdshow)
                                                   SleepTimeProc (Timeproc)
                                                   SoftClockCheck (Timeproc)
                                                   SysE2ParaSetManage (DataProtect)
                                                   Up_FunCfg (FunCfg)
                                                   WriteHisEP (Energy)
                                                   getFee (Multariff)
                                                   getTimeZone (Multariff)
                                                   sqrt (?sqrt)
    -------------------------------------------------------------------------
RCODE
  Relative segment, address: CODE 00002315 - 00002316 (0x2 bytes), align: 0
  Segment part 3.
           ENTRY                   ADDRESS         REF BY
           =====                   =======         ======
           ?PUSH_XSTACK_I_ONE      00002315        RecoverDayDjData (Dataproc)
                                                   RecoverJSRData (Dataproc)
    -------------------------------------------------------------------------
RCODE
  Relative segment, address: CODE 00002317 - 00002323 (0xd bytes), align: 0
  Segment part 4.             Intra module refs:   ?PUSH_XSTACK_I_FOUR
                                                   ?PUSH_XSTACK_I_ONE
                                                   ?PUSH_XSTACK_I_TWO
           ENTRY                   ADDRESS         REF BY
           =====                   =======         ======
           ?PUSH_XSTACK_I          00002317 

    -------------------------------------------------------------------------
  LIBRARY MODULE, NAME : ?PUSH_XSTACK8_X

  SEGMENTS IN THE MODULE
  ======================
RCODE
  Relative segment, address: CODE 00002324 - 00002327 (0x4 bytes), align: 0
  Segment part 1.
           ENTRY                   ADDRESS         REF BY
           =====                   =======         ======
           ?PUSH_XSTACK8_X_FOUR    00002324        EnyB_AutoChkAngle (EnergyBottom)
                                                   EnyB_AutoChkIrms (EnergyBottom)
                                                   EnyB_AutoChkPW (EnergyBottom)
                                                   EnyB_AutoChkUrms (EnergyBottom)
                                                   ShowRefresh (Lcdshow)
    -------------------------------------------------------------------------
RCODE
  Relative segment, address: CODE 00002328 - 0000232B (0x4 bytes), align: 0
  Segment part 3.
           ENTRY                   ADDRESS         REF BY
           =====                   =======         ======
           ?PUSH_XSTACK8_X_TWO     00002328        BE_ReadB (BEBottom)
                                                   BE_ReadW (BEBottom)
                                                   DataProcRead2Slice (Dataproc)
                                                   DataProcWriteRound2 (Dataproc)
                                                   Ldc_GetSeqRecord (LoadCurve)
                                                   ReadRSDLogItem (PrologFee)
                                                   ReadSQLogItem (PrologFee)
                                                   RwGGJR (DLT_645_2007)
                                                   RwLcdData (DLT_645_2007)
                                                   RwSqSd (DLT_645_2007)
                                                   SysE2ParaSetManage (DataProtect)
                                                   SysE2ReadData (DataProtect)
    -------------------------------------------------------------------------
RCODE
  Relative segment, address: CODE 0000232C - 00002354 (0x29 bytes), align: 0
  Segment part 5.             Intra module refs:   ?PUSH_XSTACK8_X_FOUR
                                                   ?PUSH_XSTACK8_X_TWO
           ENTRY                   ADDRESS         REF BY
           =====                   =======         ======
           ?PUSH_XSTACK8_X         0000232C        IrShowLcd (DLT_645_2007)
                                                   IsValidSQ (Multariff)
                                                   RWData (DLT_645_2007)
                                                   RwLcdData (DLT_645_2007)
                                                   RwSqSd (DLT_645_2007)
                                                   ShowDataProc (Lcdshow)
                                                   getFee (Multariff)

    -------------------------------------------------------------------------
  LIBRARY MODULE, NAME : ?UC_SWITCH_DENSE

  SEGMENTS IN THE MODULE
  ======================
RCODE
  Relative segment, address: CODE 00002355 - 0000235A (0x6 bytes), align: 0
  Segment part 0.
           ENTRY                   ADDRESS         REF BY
           =====                   =======         ======
           ?UC_SWITCH_DENSE        00002355        ComCheckFormat (DataProtect)
           ?UC_SWITCH_DENSE_CFI_INVALID_BEGINS
                                   00002355 
    -------------------------------------------------------------------------
RCODE
  Relative segment, address: CODE 0000235B - 00002389 (0x2f bytes), align: 0
  Segment part 2.             Intra module refs:   Segment part 0
    -------------------------------------------------------------------------
RCODE
  Relative segment, address: CODE 0000238A - 0000238A (0x1 bytes), align: 0
  Segment part 4.             Intra module refs:   Segment part 0
           ENTRY                   ADDRESS         REF BY
           =====                   =======         ======
           ?UC_SWITCH_DENSE_CFI_INVALID_ENDS
                                   0000238B 

    -------------------------------------------------------------------------
  LIBRARY MODULE, NAME : ?US_SWITCH_SPARSE

  SEGMENTS IN THE MODULE
  ======================
RCODE
  Relative segment, address: CODE 0000238B - 00002394 (0xa bytes), align: 0
  Segment part 0.
           ENTRY                   ADDRESS         REF BY
           =====                   =======         ======
           ?US_SWITCH_SPARSE       0000238B        CalRMS (EnergyBottom)
           ?US_SWITCH_SPARSE_CFI_INVALID_BEGINS
                                   0000238B 
    -------------------------------------------------------------------------
RCODE
  Relative segment, address: CODE 00002395 - 000023D5 (0x41 bytes), align: 0
  Segment part 2.             Intra module refs:   Segment part 0
           ENTRY                   ADDRESS         REF BY
           =====                   =======         ======
           ?US_SWITCH_SPARSE_LEAVE
                                   000023C7        Segment part 0 (?US_JMP_IF_IN_RANGE)
                                                   Segment part 0 (?US_JMP_IF_VALUE)
    -------------------------------------------------------------------------
RCODE
  Relative segment, address: CODE 000023D6 - 000023D6 (0x1 bytes), align: 0
  Segment part 4.             Intra module refs:   Segment part 0
           ENTRY                   ADDRESS         REF BY
           =====                   =======         ======
           ?US_SWITCH_SPARSE_CFI_INVALID_ENDS
                                   000023D7 

    -------------------------------------------------------------------------
  LIBRARY MODULE, NAME : ?US_JMP_IF_IN_RANGE

  SEGMENTS IN THE MODULE
  ======================
RCODE
  Relative segment, address: CODE 000023D7 - 00002415 (0x3f bytes), align: 0
  Segment part 0.
           ENTRY                   ADDRESS         REF BY
           =====                   =======         ======
           ?US_JMP_IF_IN_RANGE     000023D7        ?US_SWITCH_SPARSE_LEAVE (?US_SWITCH_SPARSE)
           ?US_JMP_IF_IN_RANGE_CFI_INVALID_BEGINS
                                   000023D7 
           ?US_JMP_IF_IN_RANGE_CFI_INVALID_ENDS
                                   00002416 

    -------------------------------------------------------------------------
  LIBRARY MODULE, NAME : ?US_JMP_IF_VALUE

  SEGMENTS IN THE MODULE
  ======================
RCODE
  Relative segment, address: CODE 00002416 - 00002440 (0x2b bytes), align: 0
  Segment part 0.
           ENTRY                   ADDRESS         REF BY
           =====                   =======         ======
           ?US_JMP_IF_VALUE        00002416        ?US_SWITCH_SPARSE_LEAVE (?US_SWITCH_SPARSE)
           ?US_JMP_IF_VALUE_CFI_INVALID_BEGINS
                                   00002416 
           ?US_JMP_IF_VALUE_CFI_INVALID_ENDS
                                   00002441 

    -------------------------------------------------------------------------
  LIBRARY MODULE, NAME : ?sqrt

  SEGMENTS IN THE MODULE
  ======================
<BANKED_CODE> 3 (was BANKED_CODE)
  Relative segment, address: CODE 0001E6BD - 0001E848 (0x18c bytes), align: 0
  Segment part 12.            Intra module refs:   sqrt::?relay
           ENTRY                   ADDRESS         REF BY
           =====                   =======         ======
           sqrt                    0001E6BD 
               calls direct, is not allocated
               not allocated function
    -------------------------------------------------------------------------
CODE_C
  Relative segment, address: CODE 0000361C - 0000361F (0x4 bytes), align: 0
  Segment part 8.             Intra module refs:   sqrt
           ENTRY                   ADDRESS         REF BY
           =====                   =======         ======
           __Constant_3f4203c5     0000361C 
    -------------------------------------------------------------------------
CODE_C
  Relative segment, address: CODE 00003620 - 00003623 (0x4 bytes), align: 0
  Segment part 9.             Intra module refs:   sqrt
           ENTRY                   ADDRESS         REF BY
           =====                   =======         ======
           __Constant_3f12511a     00003620 
    -------------------------------------------------------------------------
CODE_C
  Relative segment, address: CODE 00003624 - 00003627 (0x4 bytes), align: 0
  Segment part 10.            Intra module refs:   sqrt
           ENTRY                   ADDRESS         REF BY
           =====                   =======         ======
           __Constant_3fb504f3     00003624 
    -------------------------------------------------------------------------
CODE_C
  Relative segment, address: CODE 00003628 - 0000362B (0x4 bytes), align: 0
  Segment part 11.            Intra module refs:   sqrt
           ENTRY                   ADDRESS         REF BY
           =====                   =======         ======
           __Constant_3e800000     00003628 
    -------------------------------------------------------------------------
BANK_RELAYS
  Relative segment, address: CODE 00001528 - 0000152D (0x6 bytes), align: 0
  Segment part 13.
           ENTRY                   ADDRESS         REF BY
           =====                   =======         ======
           sqrt::?relay            00001528        CalRTC (RtcCpt)

    *************************************************************************

  DEFINED ABSOLUTE ENTRIES



                ****************************************
                *                                      *
                *      SEGMENTS IN ADDRESS ORDER       *
                *                                      *
                ****************************************


SEGMENT              SPACE    START ADDRESS   END ADDRESS     SIZE  TYPE  ALIGN
=======              =====    =============   ===========     ====  ====  =====
INTVEC               CODE          00000000 - 00000065          66   com    0
CSTART               CODE          00000066 - 000000EE          89   rel    0
CODE_AC              CODE          00000100 - 00000399         29A   rel    0
                     CODE          0000039C - 00000BC3         828 
                     CODE          00000C00 - 00000C05           6 
                     CODE          00000D00 - 00000D3F          40 
                     CODE          00000E00 - 00000E09           A 
                     CODE          00000E0D - 00000E0D           1 
BANK_RELAYS          CODE          00000E0E - 0000152D         720   rel    0
RCODE                CODE          0000152E - 00002440         F13   rel    0
DIFUNCT              CODE               00002441                     dse    0
CODE_C               CODE          00002441 - 0000362B        11EB   rel    0
CODE_N               CODE               0000362C                     dse    0
NEAR_CODE            CODE          0000362C - 00003989         35E   rel    0
<BANKED_CODE> 1      CODE          0000398A - 00007FC7        463E   rel    0
<BANKED_CODE> 2      CODE          00008000 - 0000FFF5        7FF6   rel    0
<BANKED_CODE> 3      CODE          00018000 - 0001E97C        697D   rel    0
REGISTERS            DATA          00000000 - 00000007           8   rel    0
__REG_BANK2          DATA          00000010 - 00000017           8   rel    0
BREG                 BIT        00000020.0  -  00000020.7        8   rel    0
VREG                 DATA          00000021 - 00000030          10   rel    0
PSP                  DATA               00000031                     dse    0
XSP                  DATA          00000031 - 00000032           2   rel    0
SFR_AN               DATA          00000080 - 00000080           1   rel    0
                     DATA          00000088 - 0000008E           7 
                     DATA          00000090 - 00000091           2 
                     DATA          00000093 - 00000097           5 
                     DATA          0000009A - 0000009F           6 
                     DATA          000000A1 - 000000A1           1 
                     DATA          000000A3 - 000000A9           7 
                     DATA          000000AB - 000000AB           1 
                     DATA          000000AD - 000000AD           1 
                     DATA          000000C0 - 000000C1           2 
                     DATA          000000C7 - 000000C8           2 
                     DATA          000000CC - 000000D0           5 
                     DATA          000000D8 - 000000D8           1 
                     DATA          000000DA - 000000DD           4 
                     DATA          000000E0 - 000000E0           1 
                     DATA          000000E8 - 000000E8           1 
XSTACK               XDATA         00000001 - 00000200         200   rel    0
XDATA_Z              XDATA         00000201 - 00000A22         822   rel    0
XDATA_AN             XDATA         00002820 - 00002821           2   rel    0
                     XDATA         00002823 - 00002823           1 
                     XDATA         00002825 - 00002828           4 
                     XDATA         0000282E - 0000282E           1 
                     XDATA         00002830 - 00002831           2 
                     XDATA         00002833 - 00002833           1 
                     XDATA         00002835 - 00002838           4 
                     XDATA         0000283E - 0000283E           1 
                     XDATA         00002840 - 00002840           1 
                     XDATA         00002843 - 00002843           1 
                     XDATA         00002848 - 00002848           1 
                     XDATA         0000284B - 0000284B           1 
                     XDATA         00002850 - 00002850           1 
                     XDATA         00002858 - 00002858           1 
                     XDATA         0000285D - 00002868           C 
                     XDATA         00002898 - 0000289B           4 
                     XDATA         000028A8 - 000028AA           3 
                     XDATA         000028AC - 000028B2           7 
                     XDATA         000028B4 - 000028B5           2 
                     XDATA         000028B8 - 000028BA           3 
                     XDATA         000028BC - 000028BD           2 
                     XDATA         000028C0 - 000028C2           3 
                     XDATA         000028C5 - 000028CA           6 
                     XDATA         000028CD - 000028CF           3 
                     XDATA         000028D5 - 000028D7           3 
                     XDATA         000028D9 - 000028DB           3 
                     XDATA         00002A04 - 00002A05           2 
                     XDATA         00002C01 - 00002C03           3 
                     XDATA         00002C1E - 00002C23           6 
IDATA_I              IDATA              00000033                     dse    0
IDATA_Z              IDATA         00000033 - 00000042          10   rel    0
ISTACK               IDATA         000000A0 - 000000FF          60   rel    0

                ****************************************
                *                                      *
                *        END OF CROSS REFERENCE        *
                *                                      *
                ****************************************

 89 116 bytes of CODE  memory (+ 2 835 absolute )
     26 bytes of DATA  memory (+    55 absolute )
  2 594 bytes of XDATA memory (+    84 absolute )
    112 bytes of IDATA memory
      8 bits  of BIT   memory

Errors: none
Warnings: none

